SF:/Users/poile/repos/actualai/actual-cli/.worktrees/2u6.4/src/analysis/cache.rs
FN:31,_RNvNtNtCs14eHuuW48ek_10actual_cli8analysis5cache12get_git_head
FN:14,_RNvNtNtCs14eHuuW48ek_10actual_cli8analysis5cache21parse_git_head_output
FN:48,_RINvNtNtCs14eHuuW48ek_10actual_cli8analysis5cache19run_analysis_cachedNtNtNtB6_6claude10subprocess15CliClaudeRunnerEB6_
FN:53,_RNCINvNtNtCs14eHuuW48ek_10actual_cli8analysis5cache19run_analysis_cachedNtNtNtB8_6claude10subprocess15CliClaudeRunnerE0B8_
FN:152,_RINvXs_NtNtNtCs23MeGd5xNbL_10actual_cli8analysis5cache5testsNtB5_10MockRunnerNtNtNtBb_6claude10subprocess12ClaudeRunner3runNtNtB9_5types12RepoAnalysisEBb_
FN:155,_RNCINvXs_NtNtNtCs23MeGd5xNbL_10actual_cli8analysis5cache5testsNtB7_10MockRunnerNtNtNtBd_6claude10subprocess12ClaudeRunner3runNtNtBb_5types12RepoAnalysisE0Bd_
FN:132,_RNCNvMNtNtNtCs23MeGd5xNbL_10actual_cli8analysis5cache5testsNtB4_10MockRunner9from_json0Ba_
FN:239,_RNCNvNtNtNtCs23MeGd5xNbL_10actual_cli8analysis5cache5tests19fake_output_success0B9_
FN:224,_RNCNvNtNtNtCs23MeGd5xNbL_10actual_cli8analysis5cache5tests23write_config_with_cache0B9_
FN:388,_RNCNvNtNtNtCs23MeGd5xNbL_10actual_cli8analysis5cache5testss_33test_cache_miss_no_previous_cache0B9_
FN:415,_RNCNvNtNtNtCs23MeGd5xNbL_10actual_cli8analysis5cache5testss_33test_cache_miss_repo_path_differs0B9_
FN:449,_RNCNvNtNtNtCs23MeGd5xNbL_10actual_cli8analysis5cache5testss_36test_corrupted_cache_reruns_analysis0B9_
FN:367,_RNCNvNtNtNtCs23MeGd5xNbL_10actual_cli8analysis5cache5testss_36test_no_git_repo_always_calls_runner0B9_
FN:530,_RNCNvNtNtNtCs23MeGd5xNbL_10actual_cli8analysis5cache5testss_37test_cache_miss_save_error_propagates0B9_
FN:508,_RNCNvNtNtNtCs23MeGd5xNbL_10actual_cli8analysis5cache5testss_39test_cache_miss_runner_error_propagates0B9_
FN:487,_RNCNvNtNtNtCs23MeGd5xNbL_10actual_cli8analysis5cache5testss_44test_cache_miss_config_load_error_propagates0B9_
FN:302,_RNCNvNtNtNtCs23MeGd5xNbL_10actual_cli8analysis5cache5testss_52test_cache_hit_returns_cached_without_calling_runner0B9_
FN:333,_RNCNvNtNtNtCs23MeGd5xNbL_10actual_cli8analysis5cache5testss_52test_cache_miss_head_differs_calls_runner_and_caches0B9_
FN:31,_RNvNtNtCs23MeGd5xNbL_10actual_cli8analysis5cache12get_git_head
FN:14,_RNvNtNtCs23MeGd5xNbL_10actual_cli8analysis5cache21parse_git_head_output
FN:48,_RINvNtNtCs23MeGd5xNbL_10actual_cli8analysis5cache19run_analysis_cachedNtNtB2_5tests10MockRunnerEB6_
FN:48,_RINvNtNtCs23MeGd5xNbL_10actual_cli8analysis5cache19run_analysis_cachedNtNtNtB6_6claude10subprocess15CliClaudeRunnerEB6_
FN:48,_RINvNtNtCs23MeGd5xNbL_10actual_cli8analysis5cache19run_analysis_cachedNtNtNtNtNtB6_3cli8commands4sync5tests10MockRunnerEB6_
FN:53,_RNCINvNtNtCs23MeGd5xNbL_10actual_cli8analysis5cache19run_analysis_cachedNtNtB4_5tests10MockRunnerE0B8_
FN:53,_RNCINvNtNtCs23MeGd5xNbL_10actual_cli8analysis5cache19run_analysis_cachedNtNtNtB8_6claude10subprocess15CliClaudeRunnerE0B8_
FN:53,_RNCINvNtNtCs23MeGd5xNbL_10actual_cli8analysis5cache19run_analysis_cachedNtNtNtNtNtB8_3cli8commands4sync5tests10MockRunnerE0B8_
FN:139,_RNvMNtNtNtCs23MeGd5xNbL_10actual_cli8analysis5cache5testsNtB2_10MockRunner10from_error
FN:146,_RNvMNtNtNtCs23MeGd5xNbL_10actual_cli8analysis5cache5testsNtB2_10MockRunner5calls
FN:127,_RNvMNtNtNtCs23MeGd5xNbL_10actual_cli8analysis5cache5testsNtB2_10MockRunner9from_json
FN:210,_RNvNtNtNtCs23MeGd5xNbL_10actual_cli8analysis5cache5tests14valid_analysis
FN:174,_RNvNtNtNtCs23MeGd5xNbL_10actual_cli8analysis5cache5tests15create_git_repo
FN:247,_RNvNtNtNtCs23MeGd5xNbL_10actual_cli8analysis5cache5tests19fake_output_failure
FN:236,_RNvNtNtNtCs23MeGd5xNbL_10actual_cli8analysis5cache5tests19fake_output_success
FN:215,_RNvNtNtNtCs23MeGd5xNbL_10actual_cli8analysis5cache5tests23write_config_with_cache
FN:388,_RNvNtNtNtCs23MeGd5xNbL_10actual_cli8analysis5cache5testss_33test_cache_miss_no_previous_cache
FN:415,_RNvNtNtNtCs23MeGd5xNbL_10actual_cli8analysis5cache5testss_33test_cache_miss_repo_path_differs
FN:252,_RNvNtNtNtCs23MeGd5xNbL_10actual_cli8analysis5cache5testss_34test_parse_git_head_output_success
FN:449,_RNvNtNtNtCs23MeGd5xNbL_10actual_cli8analysis5cache5testss_36test_corrupted_cache_reruns_analysis
FN:367,_RNvNtNtNtCs23MeGd5xNbL_10actual_cli8analysis5cache5testss_36test_no_git_repo_always_calls_runner
FN:530,_RNvNtNtNtCs23MeGd5xNbL_10actual_cli8analysis5cache5testss_37test_cache_miss_save_error_propagates
FN:508,_RNvNtNtNtCs23MeGd5xNbL_10actual_cli8analysis5cache5testss_39test_cache_miss_runner_error_propagates
FN:267,_RNvNtNtNtCs23MeGd5xNbL_10actual_cli8analysis5cache5testss_39test_parse_git_head_output_empty_stdout
FN:279,_RNvNtNtNtCs23MeGd5xNbL_10actual_cli8analysis5cache5testss_39test_parse_git_head_output_invalid_utf8
FN:261,_RNvNtNtNtCs23MeGd5xNbL_10actual_cli8analysis5cache5testss_41test_parse_git_head_output_failure_status
FN:273,_RNvNtNtNtCs23MeGd5xNbL_10actual_cli8analysis5cache5testss_42test_parse_git_head_output_whitespace_only
FN:285,_RNvNtNtNtCs23MeGd5xNbL_10actual_cli8analysis5cache5testss_43test_get_git_head_returns_hash_for_git_repo
FN:487,_RNvNtNtNtCs23MeGd5xNbL_10actual_cli8analysis5cache5testss_44test_cache_miss_config_load_error_propagates
FN:294,_RNvNtNtNtCs23MeGd5xNbL_10actual_cli8analysis5cache5testss_46test_get_git_head_returns_none_for_non_git_dir
FN:481,_RNvNtNtNtCs23MeGd5xNbL_10actual_cli8analysis5cache5testss_51test_get_git_head_returns_none_for_nonexistent_path
FN:302,_RNvNtNtNtCs23MeGd5xNbL_10actual_cli8analysis5cache5testss_52test_cache_hit_returns_cached_without_calling_runner
FN:333,_RNvNtNtNtCs23MeGd5xNbL_10actual_cli8analysis5cache5testss_52test_cache_miss_head_differs_calls_runner_and_caches
FNDA:66,_RNvNtNtCs14eHuuW48ek_10actual_cli8analysis5cache12get_git_head
FNDA:66,_RNvNtNtCs14eHuuW48ek_10actual_cli8analysis5cache21parse_git_head_output
FNDA:33,_RINvNtNtCs14eHuuW48ek_10actual_cli8analysis5cache19run_analysis_cachedNtNtNtB6_6claude10subprocess15CliClaudeRunnerEB6_
FNDA:33,_RNCINvNtNtCs14eHuuW48ek_10actual_cli8analysis5cache19run_analysis_cachedNtNtNtB8_6claude10subprocess15CliClaudeRunnerE0B8_
FNDA:7,_RINvXs_NtNtNtCs23MeGd5xNbL_10actual_cli8analysis5cache5testsNtB5_10MockRunnerNtNtNtBb_6claude10subprocess12ClaudeRunner3runNtNtB9_5types12RepoAnalysisEBb_
FNDA:7,_RNCINvXs_NtNtNtCs23MeGd5xNbL_10actual_cli8analysis5cache5testsNtB7_10MockRunnerNtNtNtBd_6claude10subprocess12ClaudeRunner3runNtNtBb_5types12RepoAnalysisE0Bd_
FNDA:8,_RNCNvMNtNtNtCs23MeGd5xNbL_10actual_cli8analysis5cache5testsNtB4_10MockRunner9from_json0Ba_
FNDA:4,_RNCNvNtNtNtCs23MeGd5xNbL_10actual_cli8analysis5cache5tests19fake_output_success0B9_
FNDA:4,_RNCNvNtNtNtCs23MeGd5xNbL_10actual_cli8analysis5cache5tests23write_config_with_cache0B9_
FNDA:1,_RNCNvNtNtNtCs23MeGd5xNbL_10actual_cli8analysis5cache5testss_33test_cache_miss_no_previous_cache0B9_
FNDA:1,_RNCNvNtNtNtCs23MeGd5xNbL_10actual_cli8analysis5cache5testss_33test_cache_miss_repo_path_differs0B9_
FNDA:1,_RNCNvNtNtNtCs23MeGd5xNbL_10actual_cli8analysis5cache5testss_36test_corrupted_cache_reruns_analysis0B9_
FNDA:1,_RNCNvNtNtNtCs23MeGd5xNbL_10actual_cli8analysis5cache5testss_36test_no_git_repo_always_calls_runner0B9_
FNDA:1,_RNCNvNtNtNtCs23MeGd5xNbL_10actual_cli8analysis5cache5testss_37test_cache_miss_save_error_propagates0B9_
FNDA:1,_RNCNvNtNtNtCs23MeGd5xNbL_10actual_cli8analysis5cache5testss_39test_cache_miss_runner_error_propagates0B9_
FNDA:1,_RNCNvNtNtNtCs23MeGd5xNbL_10actual_cli8analysis5cache5testss_44test_cache_miss_config_load_error_propagates0B9_
FNDA:1,_RNCNvNtNtNtCs23MeGd5xNbL_10actual_cli8analysis5cache5testss_52test_cache_hit_returns_cached_without_calling_runner0B9_
FNDA:1,_RNCNvNtNtNtCs23MeGd5xNbL_10actual_cli8analysis5cache5testss_52test_cache_miss_head_differs_calls_runner_and_caches0B9_
FNDA:47,_RNvNtNtCs23MeGd5xNbL_10actual_cli8analysis5cache12get_git_head
FNDA:51,_RNvNtNtCs23MeGd5xNbL_10actual_cli8analysis5cache21parse_git_head_output
FNDA:9,_RINvNtNtCs23MeGd5xNbL_10actual_cli8analysis5cache19run_analysis_cachedNtNtB2_5tests10MockRunnerEB6_
FNDA:0,_RINvNtNtCs23MeGd5xNbL_10actual_cli8analysis5cache19run_analysis_cachedNtNtNtB6_6claude10subprocess15CliClaudeRunnerEB6_
FNDA:17,_RINvNtNtCs23MeGd5xNbL_10actual_cli8analysis5cache19run_analysis_cachedNtNtNtNtNtB6_3cli8commands4sync5tests10MockRunnerEB6_
FNDA:9,_RNCINvNtNtCs23MeGd5xNbL_10actual_cli8analysis5cache19run_analysis_cachedNtNtB4_5tests10MockRunnerE0B8_
FNDA:0,_RNCINvNtNtCs23MeGd5xNbL_10actual_cli8analysis5cache19run_analysis_cachedNtNtNtB8_6claude10subprocess15CliClaudeRunnerE0B8_
FNDA:17,_RNCINvNtNtCs23MeGd5xNbL_10actual_cli8analysis5cache19run_analysis_cachedNtNtNtNtNtB8_3cli8commands4sync5tests10MockRunnerE0B8_
FNDA:1,_RNvMNtNtNtCs23MeGd5xNbL_10actual_cli8analysis5cache5testsNtB2_10MockRunner10from_error
FNDA:9,_RNvMNtNtNtCs23MeGd5xNbL_10actual_cli8analysis5cache5testsNtB2_10MockRunner5calls
FNDA:8,_RNvMNtNtNtCs23MeGd5xNbL_10actual_cli8analysis5cache5testsNtB2_10MockRunner9from_json
FNDA:3,_RNvNtNtNtCs23MeGd5xNbL_10actual_cli8analysis5cache5tests14valid_analysis
FNDA:9,_RNvNtNtNtCs23MeGd5xNbL_10actual_cli8analysis5cache5tests15create_git_repo
FNDA:1,_RNvNtNtNtCs23MeGd5xNbL_10actual_cli8analysis5cache5tests19fake_output_failure
FNDA:4,_RNvNtNtNtCs23MeGd5xNbL_10actual_cli8analysis5cache5tests19fake_output_success
FNDA:4,_RNvNtNtNtCs23MeGd5xNbL_10actual_cli8analysis5cache5tests23write_config_with_cache
FNDA:1,_RNvNtNtNtCs23MeGd5xNbL_10actual_cli8analysis5cache5testss_33test_cache_miss_no_previous_cache
FNDA:1,_RNvNtNtNtCs23MeGd5xNbL_10actual_cli8analysis5cache5testss_33test_cache_miss_repo_path_differs
FNDA:1,_RNvNtNtNtCs23MeGd5xNbL_10actual_cli8analysis5cache5testss_34test_parse_git_head_output_success
FNDA:1,_RNvNtNtNtCs23MeGd5xNbL_10actual_cli8analysis5cache5testss_36test_corrupted_cache_reruns_analysis
FNDA:1,_RNvNtNtNtCs23MeGd5xNbL_10actual_cli8analysis5cache5testss_36test_no_git_repo_always_calls_runner
FNDA:1,_RNvNtNtNtCs23MeGd5xNbL_10actual_cli8analysis5cache5testss_37test_cache_miss_save_error_propagates
FNDA:1,_RNvNtNtNtCs23MeGd5xNbL_10actual_cli8analysis5cache5testss_39test_cache_miss_runner_error_propagates
FNDA:1,_RNvNtNtNtCs23MeGd5xNbL_10actual_cli8analysis5cache5testss_39test_parse_git_head_output_empty_stdout
FNDA:1,_RNvNtNtNtCs23MeGd5xNbL_10actual_cli8analysis5cache5testss_39test_parse_git_head_output_invalid_utf8
FNDA:1,_RNvNtNtNtCs23MeGd5xNbL_10actual_cli8analysis5cache5testss_41test_parse_git_head_output_failure_status
FNDA:1,_RNvNtNtNtCs23MeGd5xNbL_10actual_cli8analysis5cache5testss_42test_parse_git_head_output_whitespace_only
FNDA:1,_RNvNtNtNtCs23MeGd5xNbL_10actual_cli8analysis5cache5testss_43test_get_git_head_returns_hash_for_git_repo
FNDA:1,_RNvNtNtNtCs23MeGd5xNbL_10actual_cli8analysis5cache5testss_44test_cache_miss_config_load_error_propagates
FNDA:1,_RNvNtNtNtCs23MeGd5xNbL_10actual_cli8analysis5cache5testss_46test_get_git_head_returns_none_for_non_git_dir
FNDA:1,_RNvNtNtNtCs23MeGd5xNbL_10actual_cli8analysis5cache5testss_51test_get_git_head_returns_none_for_nonexistent_path
FNDA:1,_RNvNtNtNtCs23MeGd5xNbL_10actual_cli8analysis5cache5testss_52test_cache_hit_returns_cached_without_calling_runner
FNDA:1,_RNvNtNtNtCs23MeGd5xNbL_10actual_cli8analysis5cache5testss_52test_cache_miss_head_differs_calls_runner_and_caches
FNF:43
FNH:43
DA:14,117
DA:15,117
DA:16,101
DA:17,16
DA:19,16
DA:20,15
DA:21,15
DA:22,2
DA:23,13
DA:24,13
DA:25,117
DA:31,113
DA:32,113
DA:33,113
DA:34,113
DA:35,113
DA:36,113
DA:38,112
DA:39,113
DA:48,59
DA:49,59
DA:50,59
DA:51,59
DA:52,59
DA:53,59
DA:54,59
DA:57,59
DA:58,9
DA:59,50
DA:62,9
DA:65,8
DA:66,4
DA:67,3
DA:70,2
DA:71,1
DA:72,1
DA:74,2
DA:75,4
DA:78,7
DA:81,6
DA:82,6
DA:83,6
DA:84,6
DA:85,6
DA:86,6
DA:87,6
DA:88,6
DA:90,5
DA:91,59
DA:127,8
DA:129,8
DA:130,8
DA:131,8
DA:132,8
DA:133,8
DA:135,8
DA:137,8
DA:139,1
DA:140,1
DA:141,1
DA:142,1
DA:143,1
DA:144,1
DA:146,9
DA:147,9
DA:148,9
DA:152,7
DA:153,7
DA:154,7
DA:155,7
DA:156,7
DA:157,7
DA:158,7
DA:159,7
DA:161,7
DA:162,6
DA:163,6
DA:164,6
DA:166,1
DA:168,7
DA:174,9
DA:175,9
DA:176,9
DA:177,9
DA:178,9
DA:179,9
DA:180,9
DA:181,9
DA:182,9
DA:183,9
DA:184,9
DA:185,9
DA:186,9
DA:187,9
DA:188,9
DA:189,9
DA:190,9
DA:191,9
DA:192,9
DA:193,9
DA:194,9
DA:195,9
DA:196,9
DA:197,9
DA:198,9
DA:199,9
DA:200,9
DA:201,9
DA:202,9
DA:203,9
DA:204,9
DA:205,9
DA:206,9
DA:207,9
DA:210,3
DA:211,3
DA:212,3
DA:215,4
DA:216,4
DA:217,4
DA:218,4
DA:219,4
DA:220,4
DA:221,4
DA:223,4
DA:224,4
DA:225,4
DA:226,4
DA:228,4
DA:230,4
DA:231,4
DA:236,4
DA:237,4
DA:238,4
DA:239,4
DA:240,4
DA:241,4
DA:242,4
DA:243,4
DA:244,4
DA:247,1
DA:248,1
DA:249,1
DA:252,1
DA:253,1
DA:254,1
DA:255,1
DA:256,1
DA:258,1
DA:261,1
DA:262,1
DA:263,1
DA:264,1
DA:267,1
DA:268,1
DA:269,1
DA:270,1
DA:273,1
DA:274,1
DA:275,1
DA:276,1
DA:279,1
DA:280,1
DA:281,1
DA:282,1
DA:285,1
DA:286,1
DA:287,1
DA:289,1
DA:290,1
DA:291,1
DA:294,1
DA:295,1
DA:297,1
DA:298,1
DA:299,1
DA:302,1
DA:303,1
DA:304,1
DA:306,1
DA:307,1
DA:310,1
DA:311,1
DA:312,1
DA:313,1
DA:314,1
DA:315,1
DA:316,1
DA:320,1
DA:322,1
DA:323,1
DA:324,1
DA:326,1
DA:327,1
DA:328,1
DA:329,1
DA:330,1
DA:333,1
DA:334,1
DA:335,1
DA:337,1
DA:338,1
DA:341,1
DA:342,1
DA:343,1
DA:344,1
DA:345,1
DA:346,1
DA:347,1
DA:350,1
DA:352,1
DA:353,1
DA:354,1
DA:356,1
DA:357,1
DA:360,1
DA:361,1
DA:362,1
DA:363,1
DA:364,1
DA:367,1
DA:368,1
DA:371,1
DA:372,1
DA:374,1
DA:376,1
DA:377,1
DA:378,1
DA:380,1
DA:381,1
DA:384,1
DA:385,1
DA:388,1
DA:389,1
DA:390,1
DA:392,1
DA:393,1
DA:396,1
DA:397,1
DA:399,1
DA:401,1
DA:402,1
DA:403,1
DA:405,1
DA:406,1
DA:409,1
DA:410,1
DA:411,1
DA:412,1
DA:415,1
DA:416,1
DA:417,1
DA:419,1
DA:420,1
DA:423,1
DA:424,1
DA:425,1
DA:426,1
DA:427,1
DA:428,1
DA:429,1
DA:430,1
DA:433,1
DA:435,1
DA:436,1
DA:437,1
DA:439,1
DA:440,1
DA:443,1
DA:444,1
DA:445,1
DA:446,1
DA:449,1
DA:450,1
DA:451,1
DA:453,1
DA:454,1
DA:457,1
DA:458,1
DA:459,1
DA:460,1
DA:461,1
DA:462,1
DA:465,1
DA:467,1
DA:468,1
DA:469,1
DA:471,1
DA:472,1
DA:475,1
DA:476,1
DA:477,1
DA:478,1
DA:481,1
DA:482,1
DA:483,1
DA:484,1
DA:487,1
DA:488,1
DA:489,1
DA:491,1
DA:492,1
DA:495,1
DA:497,1
DA:499,1
DA:500,1
DA:501,1
DA:503,1
DA:504,1
DA:505,1
DA:508,1
DA:509,1
DA:510,1
DA:512,1
DA:513,1
DA:515,1
DA:516,1
DA:517,1
DA:518,1
DA:520,1
DA:521,1
DA:522,1
DA:524,1
DA:525,1
DA:526,1
DA:530,1
DA:533,1
DA:534,1
DA:536,1
DA:537,1
DA:540,1
DA:541,1
DA:542,1
DA:543,1
DA:545,1
DA:547,1
DA:548,1
DA:549,1
DA:551,1
DA:552,1
DA:555,1
DA:556,1
DA:557,1
DA:558,1
BRF:0
BRH:0
LF:367
LH:367
end_of_record
SF:/Users/poile/repos/actualai/actual-cli/.worktrees/2u6.4/src/analysis/confirm.rs
FN:30,_RNvNtNtNtCs23MeGd5xNbL_10actual_cli8analysis7confirm5testss_17confirm_action_eq
FN:22,_RNvNtNtNtCs23MeGd5xNbL_10actual_cli8analysis7confirm5testss_19confirm_action_copy
FN:15,_RNvNtNtNtCs23MeGd5xNbL_10actual_cli8analysis7confirm5testss_20confirm_action_clone
FN:37,_RNvNtNtNtCs23MeGd5xNbL_10actual_cli8analysis7confirm5testss_20confirm_action_debug
FNDA:1,_RNvNtNtNtCs23MeGd5xNbL_10actual_cli8analysis7confirm5testss_17confirm_action_eq
FNDA:1,_RNvNtNtNtCs23MeGd5xNbL_10actual_cli8analysis7confirm5testss_19confirm_action_copy
FNDA:1,_RNvNtNtNtCs23MeGd5xNbL_10actual_cli8analysis7confirm5testss_20confirm_action_clone
FNDA:1,_RNvNtNtNtCs23MeGd5xNbL_10actual_cli8analysis7confirm5testss_20confirm_action_debug
FNF:4
FNH:4
DA:15,1
DA:16,1
DA:17,1
DA:18,1
DA:19,1
DA:22,1
DA:23,1
DA:24,1
DA:26,1
DA:27,1
DA:30,1
DA:31,1
DA:32,1
DA:33,1
DA:34,1
DA:37,1
DA:38,1
DA:39,1
DA:40,1
BRF:0
BRH:0
LF:19
LH:19
end_of_record
SF:/Users/poile/repos/actualai/actual-cli/.worktrees/2u6.4/src/analysis/orchestrate.rs
FN:56,_RNvNtNtCs14eHuuW48ek_10actual_cli8analysis11orchestrate15relative_or_dot
FN:70,_RNvNtNtCs14eHuuW48ek_10actual_cli8analysis11orchestrate18normalize_analysis
FN:19,_RNvNtNtCs14eHuuW48ek_10actual_cli8analysis11orchestrate22normalize_project_path
FN:83,_RINvNtNtCs14eHuuW48ek_10actual_cli8analysis11orchestrate12run_analysisNtNtNtB6_6claude10subprocess15CliClaudeRunnerEB6_
FN:87,_RNCINvNtNtCs14eHuuW48ek_10actual_cli8analysis11orchestrate12run_analysisNtNtNtB8_6claude10subprocess15CliClaudeRunnerE0B8_
FN:83,_RINvNtNtCs23MeGd5xNbL_10actual_cli8analysis11orchestrate12run_analysisNtNtB2_5tests10MockRunnerEB6_
FN:83,_RINvNtNtCs23MeGd5xNbL_10actual_cli8analysis11orchestrate12run_analysisNtNtNtB4_5cache5tests10MockRunnerEB6_
FN:83,_RINvNtNtCs23MeGd5xNbL_10actual_cli8analysis11orchestrate12run_analysisNtNtNtB6_6claude10subprocess15CliClaudeRunnerEB6_
FN:83,_RINvNtNtCs23MeGd5xNbL_10actual_cli8analysis11orchestrate12run_analysisNtNtNtNtNtB6_3cli8commands4sync5tests10MockRunnerEB6_
FN:87,_RNCINvNtNtCs23MeGd5xNbL_10actual_cli8analysis11orchestrate12run_analysisNtNtB4_5tests10MockRunnerE0B8_
FN:87,_RNCINvNtNtCs23MeGd5xNbL_10actual_cli8analysis11orchestrate12run_analysisNtNtNtB6_5cache5tests10MockRunnerE0B8_
FN:87,_RNCINvNtNtCs23MeGd5xNbL_10actual_cli8analysis11orchestrate12run_analysisNtNtNtB8_6claude10subprocess15CliClaudeRunnerE0B8_
FN:87,_RNCINvNtNtCs23MeGd5xNbL_10actual_cli8analysis11orchestrate12run_analysisNtNtNtNtNtB8_3cli8commands4sync5tests10MockRunnerE0B8_
FN:56,_RNvNtNtCs23MeGd5xNbL_10actual_cli8analysis11orchestrate15relative_or_dot
FN:70,_RNvNtNtCs23MeGd5xNbL_10actual_cli8analysis11orchestrate18normalize_analysis
FN:19,_RNvNtNtCs23MeGd5xNbL_10actual_cli8analysis11orchestrate22normalize_project_path
FN:171,_RNvMNtNtNtCs23MeGd5xNbL_10actual_cli8analysis11orchestrate5testsNtB2_10MockRunner10from_error
FN:178,_RNvMNtNtNtCs23MeGd5xNbL_10actual_cli8analysis11orchestrate5testsNtB2_10MockRunner5calls
FN:159,_RNvMNtNtNtCs23MeGd5xNbL_10actual_cli8analysis11orchestrate5testsNtB2_10MockRunner9from_json
FN:365,_RNvNtNtNtCs23MeGd5xNbL_10actual_cli8analysis11orchestrate5testss_27test_normalize_empty_to_dot
FN:371,_RNvNtNtNtCs23MeGd5xNbL_10actual_cli8analysis11orchestrate5testss_28test_normalize_dot_unchanged
FN:395,_RNvNtNtNtCs23MeGd5xNbL_10actual_cli8analysis11orchestrate5testss_29test_normalize_dot_slash_only
FN:220,_RNvNtNtNtCs23MeGd5xNbL_10actual_cli8analysis11orchestrate5testss_33test_empty_projects_returns_error
FN:265,_RNvNtNtNtCs23MeGd5xNbL_10actual_cli8analysis11orchestrate5testss_34test_model_override_passed_to_args
FN:356,_RNvNtNtNtCs23MeGd5xNbL_10actual_cli8analysis11orchestrate5testss_35test_normalize_strip_trailing_slash
FN:377,_RNvNtNtNtCs23MeGd5xNbL_10actual_cli8analysis11orchestrate5testss_38test_normalize_relative_path_unchanged
FN:347,_RNvNtNtNtCs23MeGd5xNbL_10actual_cli8analysis11orchestrate5testss_38test_normalize_strip_leading_dot_slash
FN:310,_RNvNtNtNtCs23MeGd5xNbL_10actual_cli8analysis11orchestrate5testss_40test_normalize_canonical_fallback_subdir
FN:204,_RNvNtNtNtCs23MeGd5xNbL_10actual_cli8analysis11orchestrate5testss_42test_valid_analysis_returns_correct_result
FN:324,_RNvNtNtNtCs23MeGd5xNbL_10actual_cli8analysis11orchestrate5testss_43test_normalize_canonical_none_falls_through
FN:401,_RNvNtNtNtCs23MeGd5xNbL_10actual_cli8analysis11orchestrate5testss_43test_run_analysis_normalizes_absolute_paths
FN:297,_RNvNtNtNtCs23MeGd5xNbL_10actual_cli8analysis11orchestrate5testss_44test_normalize_canonical_fallback_root_match
FN:457,_RNvNtNtNtCs23MeGd5xNbL_10actual_cli8analysis11orchestrate5testss_44test_run_analysis_normalizes_dot_slash_paths
FN:252,_RNvNtNtNtCs23MeGd5xNbL_10actual_cli8analysis11orchestrate5testss_45test_non_parse_error_propagates_without_retry
FN:241,_RNvNtNtNtCs23MeGd5xNbL_10actual_cli8analysis11orchestrate5testss_48test_invalid_json_both_times_returns_parse_error
FN:230,_RNvNtNtNtCs23MeGd5xNbL_10actual_cli8analysis11orchestrate5testss_49test_invalid_json_then_valid_retries_successfully
FN:279,_RNvNtNtNtCs23MeGd5xNbL_10actual_cli8analysis11orchestrate5testss_49test_normalize_absolute_path_matching_working_dir
FN:429,_RNvNtNtNtCs23MeGd5xNbL_10actual_cli8analysis11orchestrate5testss_49test_run_analysis_normalizes_absolute_subdir_path
FN:288,_RNvNtNtNtCs23MeGd5xNbL_10actual_cli8analysis11orchestrate5testss_50test_normalize_absolute_path_subdir_of_working_dir
FN:386,_RNvNtNtNtCs23MeGd5xNbL_10actual_cli8analysis11orchestrate5testss_53test_normalize_absolute_path_unrelated_to_working_dir
FN:335,_RNvNtNtNtCs23MeGd5xNbL_10actual_cli8analysis11orchestrate5testss_56test_normalize_canonical_some_but_no_match_falls_through
FN:184,_RINvXs_NtNtNtCs23MeGd5xNbL_10actual_cli8analysis11orchestrate5testsNtB5_10MockRunnerNtNtNtBb_6claude10subprocess12ClaudeRunner3runNtNtB9_5types12RepoAnalysisEBb_
FN:187,_RNCINvXs_NtNtNtCs23MeGd5xNbL_10actual_cli8analysis11orchestrate5testsNtB7_10MockRunnerNtNtNtBd_6claude10subprocess12ClaudeRunner3runNtNtBb_5types12RepoAnalysisE0Bd_
FN:164,_RNCNvMNtNtNtCs23MeGd5xNbL_10actual_cli8analysis11orchestrate5testsNtB4_10MockRunner9from_json0Ba_
FN:220,_RNCNvNtNtNtCs23MeGd5xNbL_10actual_cli8analysis11orchestrate5testss_33test_empty_projects_returns_error0B9_
FN:265,_RNCNvNtNtNtCs23MeGd5xNbL_10actual_cli8analysis11orchestrate5testss_34test_model_override_passed_to_args0B9_
FN:204,_RNCNvNtNtNtCs23MeGd5xNbL_10actual_cli8analysis11orchestrate5testss_42test_valid_analysis_returns_correct_result0B9_
FN:401,_RNCNvNtNtNtCs23MeGd5xNbL_10actual_cli8analysis11orchestrate5testss_43test_run_analysis_normalizes_absolute_paths0B9_
FN:457,_RNCNvNtNtNtCs23MeGd5xNbL_10actual_cli8analysis11orchestrate5testss_44test_run_analysis_normalizes_dot_slash_paths0B9_
FN:252,_RNCNvNtNtNtCs23MeGd5xNbL_10actual_cli8analysis11orchestrate5testss_45test_non_parse_error_propagates_without_retry0B9_
FN:241,_RNCNvNtNtNtCs23MeGd5xNbL_10actual_cli8analysis11orchestrate5testss_48test_invalid_json_both_times_returns_parse_error0B9_
FN:230,_RNCNvNtNtNtCs23MeGd5xNbL_10actual_cli8analysis11orchestrate5testss_49test_invalid_json_then_valid_retries_successfully0B9_
FN:429,_RNCNvNtNtNtCs23MeGd5xNbL_10actual_cli8analysis11orchestrate5testss_49test_run_analysis_normalizes_absolute_subdir_path0B9_
FNDA:0,_RNvNtNtCs14eHuuW48ek_10actual_cli8analysis11orchestrate15relative_or_dot
FNDA:31,_RNvNtNtCs14eHuuW48ek_10actual_cli8analysis11orchestrate18normalize_analysis
FNDA:41,_RNvNtNtCs14eHuuW48ek_10actual_cli8analysis11orchestrate22normalize_project_path
FNDA:33,_RINvNtNtCs14eHuuW48ek_10actual_cli8analysis11orchestrate12run_analysisNtNtNtB6_6claude10subprocess15CliClaudeRunnerEB6_
FNDA:33,_RNCINvNtNtCs14eHuuW48ek_10actual_cli8analysis11orchestrate12run_analysisNtNtNtB8_6claude10subprocess15CliClaudeRunnerE0B8_
FNDA:9,_RINvNtNtCs23MeGd5xNbL_10actual_cli8analysis11orchestrate12run_analysisNtNtB2_5tests10MockRunnerEB6_
FNDA:7,_RINvNtNtCs23MeGd5xNbL_10actual_cli8analysis11orchestrate12run_analysisNtNtNtB4_5cache5tests10MockRunnerEB6_
FNDA:0,_RINvNtNtCs23MeGd5xNbL_10actual_cli8analysis11orchestrate12run_analysisNtNtNtB6_6claude10subprocess15CliClaudeRunnerEB6_
FNDA:17,_RINvNtNtCs23MeGd5xNbL_10actual_cli8analysis11orchestrate12run_analysisNtNtNtNtNtB6_3cli8commands4sync5tests10MockRunnerEB6_
FNDA:9,_RNCINvNtNtCs23MeGd5xNbL_10actual_cli8analysis11orchestrate12run_analysisNtNtB4_5tests10MockRunnerE0B8_
FNDA:7,_RNCINvNtNtCs23MeGd5xNbL_10actual_cli8analysis11orchestrate12run_analysisNtNtNtB6_5cache5tests10MockRunnerE0B8_
FNDA:0,_RNCINvNtNtCs23MeGd5xNbL_10actual_cli8analysis11orchestrate12run_analysisNtNtNtB8_6claude10subprocess15CliClaudeRunnerE0B8_
FNDA:17,_RNCINvNtNtCs23MeGd5xNbL_10actual_cli8analysis11orchestrate12run_analysisNtNtNtNtNtB8_3cli8commands4sync5tests10MockRunnerE0B8_
FNDA:6,_RNvNtNtCs23MeGd5xNbL_10actual_cli8analysis11orchestrate15relative_or_dot
FNDA:28,_RNvNtNtCs23MeGd5xNbL_10actual_cli8analysis11orchestrate18normalize_analysis
FNDA:44,_RNvNtNtCs23MeGd5xNbL_10actual_cli8analysis11orchestrate22normalize_project_path
FNDA:1,_RNvMNtNtNtCs23MeGd5xNbL_10actual_cli8analysis11orchestrate5testsNtB2_10MockRunner10from_error
FNDA:5,_RNvMNtNtNtCs23MeGd5xNbL_10actual_cli8analysis11orchestrate5testsNtB2_10MockRunner5calls
FNDA:8,_RNvMNtNtNtCs23MeGd5xNbL_10actual_cli8analysis11orchestrate5testsNtB2_10MockRunner9from_json
FNDA:1,_RNvNtNtNtCs23MeGd5xNbL_10actual_cli8analysis11orchestrate5testss_27test_normalize_empty_to_dot
FNDA:1,_RNvNtNtNtCs23MeGd5xNbL_10actual_cli8analysis11orchestrate5testss_28test_normalize_dot_unchanged
FNDA:1,_RNvNtNtNtCs23MeGd5xNbL_10actual_cli8analysis11orchestrate5testss_29test_normalize_dot_slash_only
FNDA:1,_RNvNtNtNtCs23MeGd5xNbL_10actual_cli8analysis11orchestrate5testss_33test_empty_projects_returns_error
FNDA:1,_RNvNtNtNtCs23MeGd5xNbL_10actual_cli8analysis11orchestrate5testss_34test_model_override_passed_to_args
FNDA:1,_RNvNtNtNtCs23MeGd5xNbL_10actual_cli8analysis11orchestrate5testss_35test_normalize_strip_trailing_slash
FNDA:1,_RNvNtNtNtCs23MeGd5xNbL_10actual_cli8analysis11orchestrate5testss_38test_normalize_relative_path_unchanged
FNDA:1,_RNvNtNtNtCs23MeGd5xNbL_10actual_cli8analysis11orchestrate5testss_38test_normalize_strip_leading_dot_slash
FNDA:1,_RNvNtNtNtCs23MeGd5xNbL_10actual_cli8analysis11orchestrate5testss_40test_normalize_canonical_fallback_subdir
FNDA:1,_RNvNtNtNtCs23MeGd5xNbL_10actual_cli8analysis11orchestrate5testss_42test_valid_analysis_returns_correct_result
FNDA:1,_RNvNtNtNtCs23MeGd5xNbL_10actual_cli8analysis11orchestrate5testss_43test_normalize_canonical_none_falls_through
FNDA:1,_RNvNtNtNtCs23MeGd5xNbL_10actual_cli8analysis11orchestrate5testss_43test_run_analysis_normalizes_absolute_paths
FNDA:1,_RNvNtNtNtCs23MeGd5xNbL_10actual_cli8analysis11orchestrate5testss_44test_normalize_canonical_fallback_root_match
FNDA:1,_RNvNtNtNtCs23MeGd5xNbL_10actual_cli8analysis11orchestrate5testss_44test_run_analysis_normalizes_dot_slash_paths
FNDA:1,_RNvNtNtNtCs23MeGd5xNbL_10actual_cli8analysis11orchestrate5testss_45test_non_parse_error_propagates_without_retry
FNDA:1,_RNvNtNtNtCs23MeGd5xNbL_10actual_cli8analysis11orchestrate5testss_48test_invalid_json_both_times_returns_parse_error
FNDA:1,_RNvNtNtNtCs23MeGd5xNbL_10actual_cli8analysis11orchestrate5testss_49test_invalid_json_then_valid_retries_successfully
FNDA:1,_RNvNtNtNtCs23MeGd5xNbL_10actual_cli8analysis11orchestrate5testss_49test_normalize_absolute_path_matching_working_dir
FNDA:1,_RNvNtNtNtCs23MeGd5xNbL_10actual_cli8analysis11orchestrate5testss_49test_run_analysis_normalizes_absolute_subdir_path
FNDA:1,_RNvNtNtNtCs23MeGd5xNbL_10actual_cli8analysis11orchestrate5testss_50test_normalize_absolute_path_subdir_of_working_dir
FNDA:1,_RNvNtNtNtCs23MeGd5xNbL_10actual_cli8analysis11orchestrate5testss_53test_normalize_absolute_path_unrelated_to_working_dir
FNDA:1,_RNvNtNtNtCs23MeGd5xNbL_10actual_cli8analysis11orchestrate5testss_56test_normalize_canonical_some_but_no_match_falls_through
FNDA:11,_RINvXs_NtNtNtCs23MeGd5xNbL_10actual_cli8analysis11orchestrate5testsNtB5_10MockRunnerNtNtNtBb_6claude10subprocess12ClaudeRunner3runNtNtB9_5types12RepoAnalysisEBb_
FNDA:11,_RNCINvXs_NtNtNtCs23MeGd5xNbL_10actual_cli8analysis11orchestrate5testsNtB7_10MockRunnerNtNtNtBd_6claude10subprocess12ClaudeRunner3runNtNtBb_5types12RepoAnalysisE0Bd_
FNDA:10,_RNCNvMNtNtNtCs23MeGd5xNbL_10actual_cli8analysis11orchestrate5testsNtB4_10MockRunner9from_json0Ba_
FNDA:1,_RNCNvNtNtNtCs23MeGd5xNbL_10actual_cli8analysis11orchestrate5testss_33test_empty_projects_returns_error0B9_
FNDA:1,_RNCNvNtNtNtCs23MeGd5xNbL_10actual_cli8analysis11orchestrate5testss_34test_model_override_passed_to_args0B9_
FNDA:1,_RNCNvNtNtNtCs23MeGd5xNbL_10actual_cli8analysis11orchestrate5testss_42test_valid_analysis_returns_correct_result0B9_
FNDA:1,_RNCNvNtNtNtCs23MeGd5xNbL_10actual_cli8analysis11orchestrate5testss_43test_run_analysis_normalizes_absolute_paths0B9_
FNDA:1,_RNCNvNtNtNtCs23MeGd5xNbL_10actual_cli8analysis11orchestrate5testss_44test_run_analysis_normalizes_dot_slash_paths0B9_
FNDA:1,_RNCNvNtNtNtCs23MeGd5xNbL_10actual_cli8analysis11orchestrate5testss_45test_non_parse_error_propagates_without_retry0B9_
FNDA:1,_RNCNvNtNtNtCs23MeGd5xNbL_10actual_cli8analysis11orchestrate5testss_48test_invalid_json_both_times_returns_parse_error0B9_
FNDA:1,_RNCNvNtNtNtCs23MeGd5xNbL_10actual_cli8analysis11orchestrate5testss_49test_invalid_json_then_valid_retries_successfully0B9_
FNDA:1,_RNCNvNtNtNtCs23MeGd5xNbL_10actual_cli8analysis11orchestrate5testss_49test_run_analysis_normalizes_absolute_subdir_path0B9_
FNF:42
FNH:42
DA:19,85
DA:20,85
DA:21,85
DA:22,85
DA:23,85
DA:24,85
DA:27,85
DA:28,9
DA:29,4
DA:30,5
DA:32,5
DA:33,3
DA:34,2
DA:35,1
DA:36,2
DA:38,3
DA:39,76
DA:42,76
DA:45,76
DA:48,76
DA:49,2
DA:50,74
DA:52,74
DA:53,85
DA:56,6
DA:57,6
DA:58,3
DA:60,3
DA:62,6
DA:70,59
DA:71,59
DA:72,131
DA:73,72
DA:74,72
DA:75,59
DA:83,66
DA:84,66
DA:85,66
DA:86,66
DA:87,66
DA:88,66
DA:89,66
DA:91,66
DA:92,66
DA:93,66
DA:96,66
DA:98,61
DA:99,60
DA:102,4
DA:104,2
DA:107,61
DA:108,2
DA:109,59
DA:112,59
DA:114,59
DA:115,66
DA:159,8
DA:161,8
DA:162,8
DA:163,8
DA:164,10
DA:165,8
DA:167,8
DA:169,8
DA:171,1
DA:172,1
DA:173,1
DA:174,1
DA:175,1
DA:176,1
DA:178,5
DA:179,5
DA:180,5
DA:184,11
DA:185,11
DA:186,11
DA:187,11
DA:188,11
DA:189,11
DA:190,11
DA:191,11
DA:193,11
DA:194,10
DA:195,10
DA:196,7
DA:198,1
DA:200,11
DA:204,1
DA:205,1
DA:206,1
DA:207,1
DA:209,1
DA:210,1
DA:211,1
DA:212,1
DA:213,1
DA:214,1
DA:215,1
DA:216,1
DA:217,1
DA:220,1
DA:221,1
DA:222,1
DA:223,1
DA:225,1
DA:226,1
DA:227,1
DA:230,1
DA:231,1
DA:232,1
DA:233,1
DA:235,1
DA:236,1
DA:237,1
DA:238,1
DA:241,1
DA:242,1
DA:243,1
DA:244,1
DA:246,1
DA:247,1
DA:248,1
DA:249,1
DA:252,1
DA:253,1
DA:254,1
DA:255,1
DA:256,1
DA:257,1
DA:258,1
DA:260,1
DA:261,1
DA:262,1
DA:265,1
DA:266,1
DA:267,1
DA:268,1
DA:269,1
DA:270,1
DA:272,1
DA:273,1
DA:274,1
DA:279,1
DA:280,1
DA:281,1
DA:282,1
DA:285,1
DA:288,1
DA:289,1
DA:290,1
DA:291,1
DA:294,1
DA:297,1
DA:301,1
DA:302,1
DA:303,1
DA:304,1
DA:307,1
DA:310,1
DA:311,1
DA:312,1
DA:313,1
DA:314,1
DA:315,1
DA:316,1
DA:317,1
DA:321,1
DA:324,1
DA:327,1
DA:328,1
DA:329,1
DA:332,1
DA:335,1
DA:338,1
DA:339,1
DA:340,1
DA:341,1
DA:344,1
DA:347,1
DA:348,1
DA:349,1
DA:350,1
DA:353,1
DA:356,1
DA:357,1
DA:358,1
DA:359,1
DA:362,1
DA:365,1
DA:366,1
DA:367,1
DA:368,1
DA:371,1
DA:372,1
DA:373,1
DA:374,1
DA:377,1
DA:378,1
DA:379,1
DA:380,1
DA:383,1
DA:386,1
DA:387,1
DA:388,1
DA:389,1
DA:392,1
DA:395,1
DA:396,1
DA:397,1
DA:398,1
DA:401,1
DA:404,1
DA:405,1
DA:406,1
DA:407,1
DA:408,1
DA:409,1
DA:410,1
DA:411,1
DA:412,1
DA:413,1
DA:414,1
DA:415,1
DA:416,1
DA:417,1
DA:418,1
DA:422,1
DA:423,1
DA:425,1
DA:426,1
DA:429,1
DA:432,1
DA:433,1
DA:434,1
DA:435,1
DA:436,1
DA:437,1
DA:438,1
DA:439,1
DA:440,1
DA:441,1
DA:442,1
DA:443,1
DA:444,1
DA:445,1
DA:446,1
DA:450,1
DA:451,1
DA:453,1
DA:454,1
DA:457,1
DA:458,1
DA:459,1
DA:460,1
DA:461,1
DA:462,1
DA:463,1
DA:464,1
DA:465,1
DA:466,1
DA:467,1
DA:468,1
DA:469,1
DA:470,1
DA:471,1
DA:472,1
DA:473,1
DA:474,1
DA:475,1
DA:476,1
DA:478,1
DA:479,1
DA:481,1
DA:482,1
DA:483,1
BRF:0
BRH:0
LF:296
LH:296
end_of_record
SF:/Users/poile/repos/actualai/actual-cli/.worktrees/2u6.4/src/analysis/static_analyzer/frameworks.rs
FN:103,_RNCNCNvNtNtNtCs14eHuuW48ek_10actual_cli8analysis15static_analyzer10frameworks24detect_config_frameworkss0_00Bb_
FN:38,_RNCNvNtNtNtCs14eHuuW48ek_10actual_cli8analysis15static_analyzer10frameworks17detect_frameworks0B9_
FN:91,_RNCNvNtNtNtCs14eHuuW48ek_10actual_cli8analysis15static_analyzer10frameworks24detect_config_frameworks0B9_
FN:103,_RNCNvNtNtNtCs14eHuuW48ek_10actual_cli8analysis15static_analyzer10frameworks24detect_config_frameworkss0_0B9_
FN:102,_RNCNvNtNtNtCs14eHuuW48ek_10actual_cli8analysis15static_analyzer10frameworks24detect_config_frameworkss_0B9_
FN:243,_RNvNtNtNtNtCs23MeGd5xNbL_10actual_cli8analysis15static_analyzer10frameworks5testss_18test_deduplication
FN:321,_RNvNtNtNtNtCs23MeGd5xNbL_10actual_cli8analysis15static_analyzer10frameworks5testss_22test_detect_config_vue
FN:259,_RNvNtNtNtNtCs23MeGd5xNbL_10actual_cli8analysis15static_analyzer10frameworks5testss_22test_frameworks_sorted
FN:341,_RNvNtNtNtNtCs23MeGd5xNbL_10actual_cli8analysis15static_analyzer10frameworks5testss_23test_detect_config_vite
FN:311,_RNvNtNtNtNtCs23MeGd5xNbL_10actual_cli8analysis15static_analyzer10frameworks5testss_26test_detect_config_angular
FN:331,_RNvNtNtNtNtCs23MeGd5xNbL_10actual_cli8analysis15static_analyzer10frameworks5testss_27test_detect_config_tailwind
FN:220,_RNvNtNtNtNtCs23MeGd5xNbL_10actual_cli8analysis15static_analyzer10frameworks5testss_27test_detect_package_manager
FN:186,_RNvNtNtNtNtCs23MeGd5xNbL_10actual_cli8analysis15static_analyzer10frameworks5testss_29test_detect_config_frameworks
FN:278,_RNvNtNtNtNtCs23MeGd5xNbL_10actual_cli8analysis15static_analyzer10frameworks5testss_30test_empty_deps_with_no_config
FN:237,_RNvNtNtNtNtCs23MeGd5xNbL_10actual_cli8analysis15static_analyzer10frameworks5testss_32test_detect_package_manager_none
FN:301,_RNvNtNtNtNtCs23MeGd5xNbL_10actual_cli8analysis15static_analyzer10frameworks5testss_33test_detect_config_docker_compose
FN:171,_RNvNtNtNtNtCs23MeGd5xNbL_10actual_cli8analysis15static_analyzer10frameworks5testss_33test_detect_frameworks_categories
FN:227,_RNvNtNtNtNtCs23MeGd5xNbL_10actual_cli8analysis15static_analyzer10frameworks5testss_33test_detect_package_manager_cargo
FN:368,_RNvNtNtNtNtCs23MeGd5xNbL_10actual_cli8analysis15static_analyzer10frameworks5testss_34test_detect_config_nonexistent_dir
FN:289,_RNvNtNtNtNtCs23MeGd5xNbL_10actual_cli8analysis15static_analyzer10frameworks5testss_37test_detect_config_no_terraform_files
FN:198,_RNvNtNtNtNtCs23MeGd5xNbL_10actual_cli8analysis15static_analyzer10frameworks5testss_39test_detect_config_frameworks_terraform
FN:156,_RNvNtNtNtNtCs23MeGd5xNbL_10actual_cli8analysis15static_analyzer10frameworks5testss_40test_detect_frameworks_from_dependencies
FN:351,_RNvNtNtNtNtCs23MeGd5xNbL_10actual_cli8analysis15static_analyzer10frameworks5testss_42test_detect_frameworks_config_only_no_deps
FN:208,_RNvNtNtNtNtCs23MeGd5xNbL_10actual_cli8analysis15static_analyzer10frameworks5testss_44test_detect_config_frameworks_github_actions
FN:376,_RNvNtNtNtNtCs23MeGd5xNbL_10actual_cli8analysis15static_analyzer10frameworks5testss_46test_detect_unknown_dependency_not_in_registry
FN:14,_RNvNtNtNtCs23MeGd5xNbL_10actual_cli8analysis15static_analyzer10frameworks17detect_frameworks
FN:127,_RNvNtNtNtCs23MeGd5xNbL_10actual_cli8analysis15static_analyzer10frameworks22detect_package_manager
FN:46,_RNvNtNtNtCs23MeGd5xNbL_10actual_cli8analysis15static_analyzer10frameworks24detect_config_frameworks
FN:254,_RNCNvNtNtNtNtCs23MeGd5xNbL_10actual_cli8analysis15static_analyzer10frameworks5testss_18test_deduplication0Bb_
FN:326,_RNCNvNtNtNtNtCs23MeGd5xNbL_10actual_cli8analysis15static_analyzer10frameworks5testss_22test_detect_config_vue0Bb_
FN:271,_RNCNvNtNtNtNtCs23MeGd5xNbL_10actual_cli8analysis15static_analyzer10frameworks5testss_22test_frameworks_sorted0Bb_
FN:346,_RNCNvNtNtNtNtCs23MeGd5xNbL_10actual_cli8analysis15static_analyzer10frameworks5testss_23test_detect_config_vite0Bb_
FN:316,_RNCNvNtNtNtNtCs23MeGd5xNbL_10actual_cli8analysis15static_analyzer10frameworks5testss_26test_detect_config_angular0Bb_
FN:336,_RNCNvNtNtNtNtCs23MeGd5xNbL_10actual_cli8analysis15static_analyzer10frameworks5testss_27test_detect_config_tailwind0Bb_
FN:192,_RNCNvNtNtNtNtCs23MeGd5xNbL_10actual_cli8analysis15static_analyzer10frameworks5testss_29test_detect_config_frameworks0Bb_
FN:306,_RNCNvNtNtNtNtCs23MeGd5xNbL_10actual_cli8analysis15static_analyzer10frameworks5testss_33test_detect_config_docker_compose0Bb_
FN:179,_RNCNvNtNtNtNtCs23MeGd5xNbL_10actual_cli8analysis15static_analyzer10frameworks5testss_33test_detect_frameworks_categories0Bb_
FN:181,_RNCNvNtNtNtNtCs23MeGd5xNbL_10actual_cli8analysis15static_analyzer10frameworks5testss_33test_detect_frameworks_categoriess_0Bb_
FN:372,_RNCNvNtNtNtNtCs23MeGd5xNbL_10actual_cli8analysis15static_analyzer10frameworks5testss_34test_detect_config_nonexistent_dir0Bb_
FN:296,_RNCNvNtNtNtNtCs23MeGd5xNbL_10actual_cli8analysis15static_analyzer10frameworks5testss_37test_detect_config_no_terraform_files0Bb_
FN:203,_RNCNvNtNtNtNtCs23MeGd5xNbL_10actual_cli8analysis15static_analyzer10frameworks5testss_39test_detect_config_frameworks_terraform0Bb_
FN:164,_RNCNvNtNtNtNtCs23MeGd5xNbL_10actual_cli8analysis15static_analyzer10frameworks5testss_40test_detect_frameworks_from_dependencies0Bb_
FN:363,_RNCNvNtNtNtNtCs23MeGd5xNbL_10actual_cli8analysis15static_analyzer10frameworks5testss_42test_detect_frameworks_config_only_no_deps0Bb_
FN:215,_RNCNvNtNtNtNtCs23MeGd5xNbL_10actual_cli8analysis15static_analyzer10frameworks5testss_44test_detect_config_frameworks_github_actions0Bb_
FN:103,_RNCNCNvNtNtNtCs23MeGd5xNbL_10actual_cli8analysis15static_analyzer10frameworks24detect_config_frameworkss0_00Bb_
FN:38,_RNCNvNtNtNtCs23MeGd5xNbL_10actual_cli8analysis15static_analyzer10frameworks17detect_frameworks0B9_
FN:91,_RNCNvNtNtNtCs23MeGd5xNbL_10actual_cli8analysis15static_analyzer10frameworks24detect_config_frameworks0B9_
FN:103,_RNCNvNtNtNtCs23MeGd5xNbL_10actual_cli8analysis15static_analyzer10frameworks24detect_config_frameworkss0_0B9_
FN:102,_RNCNvNtNtNtCs23MeGd5xNbL_10actual_cli8analysis15static_analyzer10frameworks24detect_config_frameworkss_0B9_
FNDA:0,_RNCNCNvNtNtNtCs14eHuuW48ek_10actual_cli8analysis15static_analyzer10frameworks24detect_config_frameworkss0_00Bb_
FNDA:0,_RNCNvNtNtNtCs14eHuuW48ek_10actual_cli8analysis15static_analyzer10frameworks17detect_frameworks0B9_
FNDA:0,_RNCNvNtNtNtCs14eHuuW48ek_10actual_cli8analysis15static_analyzer10frameworks24detect_config_frameworks0B9_
FNDA:0,_RNCNvNtNtNtCs14eHuuW48ek_10actual_cli8analysis15static_analyzer10frameworks24detect_config_frameworkss0_0B9_
FNDA:0,_RNCNvNtNtNtCs14eHuuW48ek_10actual_cli8analysis15static_analyzer10frameworks24detect_config_frameworkss_0B9_
FNDA:1,_RNvNtNtNtNtCs23MeGd5xNbL_10actual_cli8analysis15static_analyzer10frameworks5testss_18test_deduplication
FNDA:1,_RNvNtNtNtNtCs23MeGd5xNbL_10actual_cli8analysis15static_analyzer10frameworks5testss_22test_detect_config_vue
FNDA:1,_RNvNtNtNtNtCs23MeGd5xNbL_10actual_cli8analysis15static_analyzer10frameworks5testss_22test_frameworks_sorted
FNDA:1,_RNvNtNtNtNtCs23MeGd5xNbL_10actual_cli8analysis15static_analyzer10frameworks5testss_23test_detect_config_vite
FNDA:1,_RNvNtNtNtNtCs23MeGd5xNbL_10actual_cli8analysis15static_analyzer10frameworks5testss_26test_detect_config_angular
FNDA:1,_RNvNtNtNtNtCs23MeGd5xNbL_10actual_cli8analysis15static_analyzer10frameworks5testss_27test_detect_config_tailwind
FNDA:1,_RNvNtNtNtNtCs23MeGd5xNbL_10actual_cli8analysis15static_analyzer10frameworks5testss_27test_detect_package_manager
FNDA:1,_RNvNtNtNtNtCs23MeGd5xNbL_10actual_cli8analysis15static_analyzer10frameworks5testss_29test_detect_config_frameworks
FNDA:1,_RNvNtNtNtNtCs23MeGd5xNbL_10actual_cli8analysis15static_analyzer10frameworks5testss_30test_empty_deps_with_no_config
FNDA:1,_RNvNtNtNtNtCs23MeGd5xNbL_10actual_cli8analysis15static_analyzer10frameworks5testss_32test_detect_package_manager_none
FNDA:1,_RNvNtNtNtNtCs23MeGd5xNbL_10actual_cli8analysis15static_analyzer10frameworks5testss_33test_detect_config_docker_compose
FNDA:1,_RNvNtNtNtNtCs23MeGd5xNbL_10actual_cli8analysis15static_analyzer10frameworks5testss_33test_detect_frameworks_categories
FNDA:1,_RNvNtNtNtNtCs23MeGd5xNbL_10actual_cli8analysis15static_analyzer10frameworks5testss_33test_detect_package_manager_cargo
FNDA:1,_RNvNtNtNtNtCs23MeGd5xNbL_10actual_cli8analysis15static_analyzer10frameworks5testss_34test_detect_config_nonexistent_dir
FNDA:1,_RNvNtNtNtNtCs23MeGd5xNbL_10actual_cli8analysis15static_analyzer10frameworks5testss_37test_detect_config_no_terraform_files
FNDA:1,_RNvNtNtNtNtCs23MeGd5xNbL_10actual_cli8analysis15static_analyzer10frameworks5testss_39test_detect_config_frameworks_terraform
FNDA:1,_RNvNtNtNtNtCs23MeGd5xNbL_10actual_cli8analysis15static_analyzer10frameworks5testss_40test_detect_frameworks_from_dependencies
FNDA:1,_RNvNtNtNtNtCs23MeGd5xNbL_10actual_cli8analysis15static_analyzer10frameworks5testss_42test_detect_frameworks_config_only_no_deps
FNDA:1,_RNvNtNtNtNtCs23MeGd5xNbL_10actual_cli8analysis15static_analyzer10frameworks5testss_44test_detect_config_frameworks_github_actions
FNDA:1,_RNvNtNtNtNtCs23MeGd5xNbL_10actual_cli8analysis15static_analyzer10frameworks5testss_46test_detect_unknown_dependency_not_in_registry
FNDA:7,_RNvNtNtNtCs23MeGd5xNbL_10actual_cli8analysis15static_analyzer10frameworks17detect_frameworks
FNDA:3,_RNvNtNtNtCs23MeGd5xNbL_10actual_cli8analysis15static_analyzer10frameworks22detect_package_manager
FNDA:17,_RNvNtNtNtCs23MeGd5xNbL_10actual_cli8analysis15static_analyzer10frameworks24detect_config_frameworks
FNDA:1,_RNCNvNtNtNtNtCs23MeGd5xNbL_10actual_cli8analysis15static_analyzer10frameworks5testss_18test_deduplication0Bb_
FNDA:1,_RNCNvNtNtNtNtCs23MeGd5xNbL_10actual_cli8analysis15static_analyzer10frameworks5testss_22test_detect_config_vue0Bb_
FNDA:3,_RNCNvNtNtNtNtCs23MeGd5xNbL_10actual_cli8analysis15static_analyzer10frameworks5testss_22test_frameworks_sorted0Bb_
FNDA:1,_RNCNvNtNtNtNtCs23MeGd5xNbL_10actual_cli8analysis15static_analyzer10frameworks5testss_23test_detect_config_vite0Bb_
FNDA:1,_RNCNvNtNtNtNtCs23MeGd5xNbL_10actual_cli8analysis15static_analyzer10frameworks5testss_26test_detect_config_angular0Bb_
FNDA:1,_RNCNvNtNtNtNtCs23MeGd5xNbL_10actual_cli8analysis15static_analyzer10frameworks5testss_27test_detect_config_tailwind0Bb_
FNDA:2,_RNCNvNtNtNtNtCs23MeGd5xNbL_10actual_cli8analysis15static_analyzer10frameworks5testss_29test_detect_config_frameworks0Bb_
FNDA:1,_RNCNvNtNtNtNtCs23MeGd5xNbL_10actual_cli8analysis15static_analyzer10frameworks5testss_33test_detect_config_docker_compose0Bb_
FNDA:2,_RNCNvNtNtNtNtCs23MeGd5xNbL_10actual_cli8analysis15static_analyzer10frameworks5testss_33test_detect_frameworks_categories0Bb_
FNDA:1,_RNCNvNtNtNtNtCs23MeGd5xNbL_10actual_cli8analysis15static_analyzer10frameworks5testss_33test_detect_frameworks_categoriess_0Bb_
FNDA:0,_RNCNvNtNtNtNtCs23MeGd5xNbL_10actual_cli8analysis15static_analyzer10frameworks5testss_34test_detect_config_nonexistent_dir0Bb_
FNDA:0,_RNCNvNtNtNtNtCs23MeGd5xNbL_10actual_cli8analysis15static_analyzer10frameworks5testss_37test_detect_config_no_terraform_files0Bb_
FNDA:1,_RNCNvNtNtNtNtCs23MeGd5xNbL_10actual_cli8analysis15static_analyzer10frameworks5testss_39test_detect_config_frameworks_terraform0Bb_
FNDA:3,_RNCNvNtNtNtNtCs23MeGd5xNbL_10actual_cli8analysis15static_analyzer10frameworks5testss_40test_detect_frameworks_from_dependencies0Bb_
FNDA:1,_RNCNvNtNtNtNtCs23MeGd5xNbL_10actual_cli8analysis15static_analyzer10frameworks5testss_42test_detect_frameworks_config_only_no_deps0Bb_
FNDA:1,_RNCNvNtNtNtNtCs23MeGd5xNbL_10actual_cli8analysis15static_analyzer10frameworks5testss_44test_detect_config_frameworks_github_actions0Bb_
FNDA:10,_RNCNCNvNtNtNtCs23MeGd5xNbL_10actual_cli8analysis15static_analyzer10frameworks24detect_config_frameworkss0_00Bb_
FNDA:7,_RNCNvNtNtNtCs23MeGd5xNbL_10actual_cli8analysis15static_analyzer10frameworks17detect_frameworks0B9_
FNDA:293,_RNCNvNtNtNtCs23MeGd5xNbL_10actual_cli8analysis15static_analyzer10frameworks24detect_config_frameworks0B9_
FNDA:13,_RNCNvNtNtNtCs23MeGd5xNbL_10actual_cli8analysis15static_analyzer10frameworks24detect_config_frameworkss0_0B9_
FNDA:13,_RNCNvNtNtNtCs23MeGd5xNbL_10actual_cli8analysis15static_analyzer10frameworks24detect_config_frameworkss_0B9_
FNF:44
FNH:42
DA:14,7
DA:15,7
DA:16,7
DA:19,7
DA:20,17
DA:21,10
DA:22,9
DA:23,9
DA:24,9
DA:25,9
DA:26,9
DA:27,9
DA:28,1
DA:32,7
DA:33,2
DA:34,1
DA:35,1
DA:38,7
DA:39,7
DA:40,7
DA:46,17
DA:47,17
DA:49,17
DA:50,17
DA:51,17
DA:52,17
DA:53,17
DA:54,17
DA:55,17
DA:56,17
DA:57,17
DA:58,17
DA:59,17
DA:60,17
DA:61,17
DA:62,17
DA:63,17
DA:64,17
DA:65,17
DA:66,17
DA:67,17
DA:68,17
DA:69,17
DA:70,17
DA:71,17
DA:72,17
DA:73,17
DA:74,17
DA:75,17
DA:76,17
DA:77,17
DA:78,17
DA:79,17
DA:80,17
DA:81,17
DA:82,17
DA:83,17
DA:84,17
DA:85,17
DA:86,17
DA:87,17
DA:88,17
DA:90,136
DA:91,293
DA:92,9
DA:93,9
DA:94,9
DA:95,9
DA:96,110
DA:100,17
DA:101,16
DA:102,16
DA:103,16
DA:104,16
DA:105,1
DA:106,1
DA:107,1
DA:108,1
DA:109,15
DA:110,1
DA:113,17
DA:114,1
DA:115,1
DA:116,1
DA:117,1
DA:118,16
DA:120,17
DA:121,17
DA:127,3
DA:128,3
DA:129,3
DA:130,3
DA:131,3
DA:132,3
DA:133,3
DA:134,3
DA:135,3
DA:136,3
DA:137,3
DA:138,3
DA:140,16
DA:141,15
DA:142,2
DA:143,13
DA:146,1
DA:147,3
DA:156,1
DA:157,1
DA:158,1
DA:159,1
DA:160,1
DA:161,1
DA:163,1
DA:164,3
DA:165,1
DA:166,1
DA:167,1
DA:168,1
DA:171,1
DA:172,1
DA:173,1
DA:174,1
DA:175,1
DA:176,1
DA:178,1
DA:179,2
DA:180,1
DA:181,1
DA:182,1
DA:183,1
DA:186,1
DA:187,1
DA:188,1
DA:189,1
DA:191,1
DA:192,2
DA:193,1
DA:194,1
DA:195,1
DA:198,1
DA:199,1
DA:200,1
DA:202,1
DA:203,1
DA:204,1
DA:205,1
DA:208,1
DA:209,1
DA:210,1
DA:211,1
DA:212,1
DA:214,1
DA:215,1
DA:216,1
DA:217,1
DA:220,1
DA:221,1
DA:222,1
DA:223,1
DA:224,1
DA:227,1
DA:228,1
DA:229,1
DA:230,1
DA:231,1
DA:232,1
DA:234,1
DA:237,1
DA:238,1
DA:239,1
DA:240,1
DA:243,1
DA:244,1
DA:246,1
DA:248,1
DA:249,1
DA:250,1
DA:251,1
DA:253,1
DA:254,1
DA:255,1
DA:256,1
DA:259,1
DA:260,1
DA:261,1
DA:262,1
DA:263,1
DA:264,1
DA:265,1
DA:266,1
DA:267,1
DA:268,1
DA:270,1
DA:271,3
DA:272,1
DA:273,1
DA:274,1
DA:275,1
DA:278,1
DA:279,1
DA:280,1
DA:281,1
DA:282,1
DA:283,1
DA:284,1
DA:285,1
DA:286,1
DA:289,1
DA:291,1
DA:292,1
DA:293,1
DA:295,1
DA:296,1
DA:297,1
DA:298,1
DA:301,1
DA:302,1
DA:303,1
DA:305,1
DA:306,1
DA:307,1
DA:308,1
DA:311,1
DA:312,1
DA:313,1
DA:315,1
DA:316,1
DA:317,1
DA:318,1
DA:321,1
DA:322,1
DA:323,1
DA:325,1
DA:326,1
DA:327,1
DA:328,1
DA:331,1
DA:332,1
DA:333,1
DA:335,1
DA:336,1
DA:337,1
DA:338,1
DA:341,1
DA:342,1
DA:343,1
DA:345,1
DA:346,1
DA:347,1
DA:348,1
DA:351,1
DA:354,1
DA:355,1
DA:357,1
DA:358,1
DA:359,1
DA:360,1
DA:362,1
DA:363,1
DA:364,1
DA:365,1
DA:368,1
DA:370,1
DA:372,1
DA:373,1
DA:376,1
DA:377,1
DA:378,1
DA:379,1
DA:380,1
DA:381,1
DA:383,1
DA:384,1
DA:385,1
BRF:0
BRH:0
LF:295
LH:293
end_of_record
SF:/Users/poile/repos/actualai/actual-cli/.worktrees/2u6.4/src/analysis/static_analyzer/manifests.rs
FN:310,_RNCNvNtNtNtCs14eHuuW48ek_10actual_cli8analysis15static_analyzer9manifests13parse_gemfile0B9_
FN:311,_RNCNvNtNtNtCs14eHuuW48ek_10actual_cli8analysis15static_analyzer9manifests13parse_gemfiles_0B9_
FN:240,_RNCNvNtNtNtCs14eHuuW48ek_10actual_cli8analysis15static_analyzer9manifests13parse_pipfile0B9_
FN:245,_RNCNvNtNtNtCs14eHuuW48ek_10actual_cli8analysis15static_analyzer9manifests13parse_pipfiles_0B9_
FN:341,_RNCNvNtNtNtCs14eHuuW48ek_10actual_cli8analysis15static_analyzer9manifests13parse_pom_xml0B9_
FN:345,_RNCNvNtNtNtCs14eHuuW48ek_10actual_cli8analysis15static_analyzer9manifests13parse_pom_xmls0_0B9_
FN:346,_RNCNvNtNtNtCs14eHuuW48ek_10actual_cli8analysis15static_analyzer9manifests13parse_pom_xmls1_0B9_
FN:342,_RNCNvNtNtNtCs14eHuuW48ek_10actual_cli8analysis15static_analyzer9manifests13parse_pom_xmls_0B9_
FN:90,_RNCNvNtNtNtCs14eHuuW48ek_10actual_cli8analysis15static_analyzer9manifests16parse_cargo_toml0B9_
FN:95,_RNCNvNtNtNtCs14eHuuW48ek_10actual_cli8analysis15static_analyzer9manifests16parse_cargo_tomls_0B9_
FN:384,_RNCNvNtNtNtCs14eHuuW48ek_10actual_cli8analysis15static_analyzer9manifests18parse_build_gradle0B9_
FN:385,_RNCNvNtNtNtCs14eHuuW48ek_10actual_cli8analysis15static_analyzer9manifests18parse_build_gradles_0B9_
FN:61,_RNCNvNtNtNtCs14eHuuW48ek_10actual_cli8analysis15static_analyzer9manifests18parse_package_json0B9_
FN:66,_RNCNvNtNtNtCs14eHuuW48ek_10actual_cli8analysis15static_analyzer9manifests18parse_package_jsons_0B9_
FN:435,_RNCNvNtNtNtCs14eHuuW48ek_10actual_cli8analysis15static_analyzer9manifests19parse_package_swift0B9_
FN:122,_RNCNvNtNtNtCs14eHuuW48ek_10actual_cli8analysis15static_analyzer9manifests20parse_pyproject_toml0B9_
FN:137,_RNCNvNtNtNtCs14eHuuW48ek_10actual_cli8analysis15static_analyzer9manifests20parse_pyproject_tomls0_0B9_
FN:138,_RNCNvNtNtNtCs14eHuuW48ek_10actual_cli8analysis15static_analyzer9manifests20parse_pyproject_tomls1_0B9_
FN:156,_RNCNvNtNtNtCs14eHuuW48ek_10actual_cli8analysis15static_analyzer9manifests20parse_pyproject_tomls2_0B9_
FN:157,_RNCNvNtNtNtCs14eHuuW48ek_10actual_cli8analysis15static_analyzer9manifests20parse_pyproject_tomls3_0B9_
FN:158,_RNCNvNtNtNtCs14eHuuW48ek_10actual_cli8analysis15static_analyzer9manifests20parse_pyproject_tomls4_0B9_
FN:170,_RNCNvNtNtNtCs14eHuuW48ek_10actual_cli8analysis15static_analyzer9manifests20parse_pyproject_tomls5_0B9_
FN:171,_RNCNvNtNtNtCs14eHuuW48ek_10actual_cli8analysis15static_analyzer9manifests20parse_pyproject_tomls6_0B9_
FN:172,_RNCNvNtNtNtCs14eHuuW48ek_10actual_cli8analysis15static_analyzer9manifests20parse_pyproject_tomls7_0B9_
FN:123,_RNCNvNtNtNtCs14eHuuW48ek_10actual_cli8analysis15static_analyzer9manifests20parse_pyproject_tomls_0B9_
FN:310,_RNCNvNtNtNtCs23MeGd5xNbL_10actual_cli8analysis15static_analyzer9manifests13parse_gemfile0B9_
FN:311,_RNCNvNtNtNtCs23MeGd5xNbL_10actual_cli8analysis15static_analyzer9manifests13parse_gemfiles_0B9_
FN:240,_RNCNvNtNtNtCs23MeGd5xNbL_10actual_cli8analysis15static_analyzer9manifests13parse_pipfile0B9_
FN:245,_RNCNvNtNtNtCs23MeGd5xNbL_10actual_cli8analysis15static_analyzer9manifests13parse_pipfiles_0B9_
FN:341,_RNCNvNtNtNtCs23MeGd5xNbL_10actual_cli8analysis15static_analyzer9manifests13parse_pom_xml0B9_
FN:345,_RNCNvNtNtNtCs23MeGd5xNbL_10actual_cli8analysis15static_analyzer9manifests13parse_pom_xmls0_0B9_
FN:346,_RNCNvNtNtNtCs23MeGd5xNbL_10actual_cli8analysis15static_analyzer9manifests13parse_pom_xmls1_0B9_
FN:342,_RNCNvNtNtNtCs23MeGd5xNbL_10actual_cli8analysis15static_analyzer9manifests13parse_pom_xmls_0B9_
FN:90,_RNCNvNtNtNtCs23MeGd5xNbL_10actual_cli8analysis15static_analyzer9manifests16parse_cargo_toml0B9_
FN:95,_RNCNvNtNtNtCs23MeGd5xNbL_10actual_cli8analysis15static_analyzer9manifests16parse_cargo_tomls_0B9_
FN:384,_RNCNvNtNtNtCs23MeGd5xNbL_10actual_cli8analysis15static_analyzer9manifests18parse_build_gradle0B9_
FN:385,_RNCNvNtNtNtCs23MeGd5xNbL_10actual_cli8analysis15static_analyzer9manifests18parse_build_gradles_0B9_
FN:61,_RNCNvNtNtNtCs23MeGd5xNbL_10actual_cli8analysis15static_analyzer9manifests18parse_package_json0B9_
FN:66,_RNCNvNtNtNtCs23MeGd5xNbL_10actual_cli8analysis15static_analyzer9manifests18parse_package_jsons_0B9_
FN:435,_RNCNvNtNtNtCs23MeGd5xNbL_10actual_cli8analysis15static_analyzer9manifests19parse_package_swift0B9_
FN:122,_RNCNvNtNtNtCs23MeGd5xNbL_10actual_cli8analysis15static_analyzer9manifests20parse_pyproject_toml0B9_
FN:137,_RNCNvNtNtNtCs23MeGd5xNbL_10actual_cli8analysis15static_analyzer9manifests20parse_pyproject_tomls0_0B9_
FN:138,_RNCNvNtNtNtCs23MeGd5xNbL_10actual_cli8analysis15static_analyzer9manifests20parse_pyproject_tomls1_0B9_
FN:156,_RNCNvNtNtNtCs23MeGd5xNbL_10actual_cli8analysis15static_analyzer9manifests20parse_pyproject_tomls2_0B9_
FN:157,_RNCNvNtNtNtCs23MeGd5xNbL_10actual_cli8analysis15static_analyzer9manifests20parse_pyproject_tomls3_0B9_
FN:158,_RNCNvNtNtNtCs23MeGd5xNbL_10actual_cli8analysis15static_analyzer9manifests20parse_pyproject_tomls4_0B9_
FN:170,_RNCNvNtNtNtCs23MeGd5xNbL_10actual_cli8analysis15static_analyzer9manifests20parse_pyproject_tomls5_0B9_
FN:171,_RNCNvNtNtNtCs23MeGd5xNbL_10actual_cli8analysis15static_analyzer9manifests20parse_pyproject_tomls6_0B9_
FN:172,_RNCNvNtNtNtCs23MeGd5xNbL_10actual_cli8analysis15static_analyzer9manifests20parse_pyproject_tomls7_0B9_
FN:123,_RNCNvNtNtNtCs23MeGd5xNbL_10actual_cli8analysis15static_analyzer9manifests20parse_pyproject_tomls_0B9_
FN:254,_RNvNtNtNtCs23MeGd5xNbL_10actual_cli8analysis15static_analyzer9manifests12parse_go_mod
FN:297,_RNvNtNtNtCs23MeGd5xNbL_10actual_cli8analysis15static_analyzer9manifests13parse_gemfile
FN:229,_RNvNtNtNtCs23MeGd5xNbL_10actual_cli8analysis15static_analyzer9manifests13parse_pipfile
FN:325,_RNvNtNtNtCs23MeGd5xNbL_10actual_cli8analysis15static_analyzer9manifests13parse_pom_xml
FN:319,_RNvNtNtNtCs23MeGd5xNbL_10actual_cli8analysis15static_analyzer9manifests14regex_gem_name
FN:75,_RNvNtNtNtCs23MeGd5xNbL_10actual_cli8analysis15static_analyzer9manifests16parse_cargo_toml
FN:371,_RNvNtNtNtCs23MeGd5xNbL_10actual_cli8analysis15static_analyzer9manifests18parse_build_gradle
FN:18,_RNvNtNtNtCs23MeGd5xNbL_10actual_cli8analysis15static_analyzer9manifests18parse_dependencies
FN:46,_RNvNtNtNtCs23MeGd5xNbL_10actual_cli8analysis15static_analyzer9manifests18parse_package_json
FN:361,_RNvNtNtNtCs23MeGd5xNbL_10actual_cli8analysis15static_analyzer9manifests18regex_pom_group_id
FN:410,_RNvNtNtNtCs23MeGd5xNbL_10actual_cli8analysis15static_analyzer9manifests19parse_package_swift
FN:104,_RNvNtNtNtCs23MeGd5xNbL_10actual_cli8analysis15static_analyzer9manifests20parse_pyproject_toml
FN:357,_RNvNtNtNtCs23MeGd5xNbL_10actual_cli8analysis15static_analyzer9manifests20regex_pom_dependency
FN:365,_RNvNtNtNtCs23MeGd5xNbL_10actual_cli8analysis15static_analyzer9manifests21regex_pom_artifact_id
FN:208,_RNvNtNtNtCs23MeGd5xNbL_10actual_cli8analysis15static_analyzer9manifests22parse_requirements_txt
FN:399,_RNvNtNtNtCs23MeGd5xNbL_10actual_cli8analysis15static_analyzer9manifests23regex_gradle_dependency
FN:446,_RNvNtNtNtCs23MeGd5xNbL_10actual_cli8analysis15static_analyzer9manifests23regex_swift_package_url
FN:442,_RNvNtNtNtCs23MeGd5xNbL_10actual_cli8analysis15static_analyzer9manifests24regex_swift_package_name
FN:183,_RNvNtNtNtCs23MeGd5xNbL_10actual_cli8analysis15static_analyzer9manifests30strip_python_version_specifier
FN:596,_RNvNtNtNtNtCs23MeGd5xNbL_10actual_cli8analysis15static_analyzer9manifests5testss_11test_go_mod
FN:628,_RNvNtNtNtNtCs23MeGd5xNbL_10actual_cli8analysis15static_analyzer9manifests5testss_12test_gemfile
FN:775,_RNvNtNtNtNtCs23MeGd5xNbL_10actual_cli8analysis15static_analyzer9manifests5testss_12test_pipfile
FN:722,_RNvNtNtNtNtCs23MeGd5xNbL_10actual_cli8analysis15static_analyzer9manifests5testss_12test_pom_xml
FN:482,_RNvNtNtNtNtCs23MeGd5xNbL_10actual_cli8analysis15static_analyzer9manifests5testss_15test_cargo_toml
FN:649,_RNvNtNtNtNtCs23MeGd5xNbL_10actual_cli8analysis15static_analyzer9manifests5testss_17test_build_gradle
FN:457,_RNvNtNtNtNtCs23MeGd5xNbL_10actual_cli8analysis15static_analyzer9manifests5testss_17test_package_json
FN:750,_RNvNtNtNtNtCs23MeGd5xNbL_10actual_cli8analysis15static_analyzer9manifests5testss_18test_package_swift
FN:676,_RNvNtNtNtNtCs23MeGd5xNbL_10actual_cli8analysis15static_analyzer9manifests5testss_21test_build_gradle_kts
FN:569,_RNvNtNtNtNtCs23MeGd5xNbL_10actual_cli8analysis15static_analyzer9manifests5testss_21test_requirements_txt
FN:835,_RNvNtNtNtNtCs23MeGd5xNbL_10actual_cli8analysis15static_analyzer9manifests5testss_25test_pipfile_invalid_toml
FN:510,_RNvNtNtNtNtCs23MeGd5xNbL_10actual_cli8analysis15static_analyzer9manifests5testss_26test_pyproject_toml_pep631
FN:541,_RNvNtNtNtNtCs23MeGd5xNbL_10actual_cli8analysis15static_analyzer9manifests5testss_26test_pyproject_toml_poetry
FN:819,_RNvNtNtNtNtCs23MeGd5xNbL_10actual_cli8analysis15static_analyzer9manifests5testss_28test_cargo_toml_invalid_toml
FN:703,_RNvNtNtNtNtCs23MeGd5xNbL_10actual_cli8analysis15static_analyzer9manifests5testss_28test_dependencies_are_sorted
FN:797,_RNvNtNtNtNtCs23MeGd5xNbL_10actual_cli8analysis15static_analyzer9manifests5testss_30test_package_json_invalid_json
FN:1017,_RNvNtNtNtNtCs23MeGd5xNbL_10actual_cli8analysis15static_analyzer9manifests5testss_32test_pipfile_no_packages_section
FN:827,_RNvNtNtNtNtCs23MeGd5xNbL_10actual_cli8analysis15static_analyzer9manifests5testss_32test_pyproject_toml_invalid_toml
FN:888,_RNvNtNtNtNtCs23MeGd5xNbL_10actual_cli8analysis15static_analyzer9manifests5testss_32test_requirements_txt_with_flags
FN:924,_RNvNtNtNtNtCs23MeGd5xNbL_10actual_cli8analysis15static_analyzer9manifests5testss_35test_build_gradle_api_configuration
FN:1118,_RNvNtNtNtNtCs23MeGd5xNbL_10actual_cli8analysis15static_analyzer9manifests5testss_35test_strip_python_version_specifier
FN:1091,_RNvNtNtNtNtCs23MeGd5xNbL_10actual_cli8analysis15static_analyzer9manifests5testss_37test_build_gradle_no_matching_pattern
FN:806,_RNvNtNtNtNtCs23MeGd5xNbL_10actual_cli8analysis15static_analyzer9manifests5testss_37test_package_json_no_dependencies_key
FN:945,_RNvNtNtNtNtCs23MeGd5xNbL_10actual_cli8analysis15static_analyzer9manifests5testss_38test_build_gradle_single_quoted_parens
FN:1004,_RNvNtNtNtNtCs23MeGd5xNbL_10actual_cli8analysis15static_analyzer9manifests5testss_39test_cargo_toml_no_dependencies_section
FN:1076,_RNvNtNtNtNtCs23MeGd5xNbL_10actual_cli8analysis15static_analyzer9manifests5testss_40test_go_mod_empty_lines_in_require_block
FN:695,_RNvNtNtNtNtCs23MeGd5xNbL_10actual_cli8analysis15static_analyzer9manifests5testss_40test_missing_manifests_return_empty_deps
FN:1105,_RNvNtNtNtNtCs23MeGd5xNbL_10actual_cli8analysis15static_analyzer9manifests5testss_40test_package_swift_url_only_name_portion
FN:960,_RNvNtNtNtNtCs23MeGd5xNbL_10actual_cli8analysis15static_analyzer9manifests5testss_40test_pom_xml_dependency_without_group_id
FN:873,_RNvNtNtNtNtCs23MeGd5xNbL_10actual_cli8analysis15static_analyzer9manifests5testss_41test_go_mod_require_no_space_before_paren
FN:903,_RNvNtNtNtNtCs23MeGd5xNbL_10actual_cli8analysis15static_analyzer9manifests5testss_41test_package_swift_url_without_git_suffix
FN:1030,_RNvNtNtNtNtCs23MeGd5xNbL_10actual_cli8analysis15static_analyzer9manifests5testss_41test_pyproject_toml_non_string_dependency
FN:843,_RNvNtNtNtNtCs23MeGd5xNbL_10actual_cli8analysis15static_analyzer9manifests5testss_42test_go_mod_with_comments_in_require_block
FN:1070,_RNvNtNtNtNtCs23MeGd5xNbL_10actual_cli8analysis15static_analyzer9manifests5testss_42test_strip_python_specifier_only_specifier
FN:982,_RNvNtNtNtNtCs23MeGd5xNbL_10actual_cli8analysis15static_analyzer9manifests5testss_43test_pom_xml_dependency_without_artifact_id
FN:1044,_RNvNtNtNtNtCs23MeGd5xNbL_10actual_cli8analysis15static_analyzer9manifests5testss_49test_pyproject_toml_optional_deps_non_array_group
FN:1057,_RNvNtNtNtNtCs23MeGd5xNbL_10actual_cli8analysis15static_analyzer9manifests5testss_50test_pyproject_toml_optional_deps_non_string_items
FN:863,_RNCNvNtNtNtNtCs23MeGd5xNbL_10actual_cli8analysis15static_analyzer9manifests5testss_42test_go_mod_with_comments_in_require_block0Bb_
FNDA:0,_RNCNvNtNtNtCs14eHuuW48ek_10actual_cli8analysis15static_analyzer9manifests13parse_gemfile0B9_
FNDA:0,_RNCNvNtNtNtCs14eHuuW48ek_10actual_cli8analysis15static_analyzer9manifests13parse_gemfiles_0B9_
FNDA:0,_RNCNvNtNtNtCs14eHuuW48ek_10actual_cli8analysis15static_analyzer9manifests13parse_pipfile0B9_
FNDA:0,_RNCNvNtNtNtCs14eHuuW48ek_10actual_cli8analysis15static_analyzer9manifests13parse_pipfiles_0B9_
FNDA:0,_RNCNvNtNtNtCs14eHuuW48ek_10actual_cli8analysis15static_analyzer9manifests13parse_pom_xml0B9_
FNDA:0,_RNCNvNtNtNtCs14eHuuW48ek_10actual_cli8analysis15static_analyzer9manifests13parse_pom_xmls0_0B9_
FNDA:0,_RNCNvNtNtNtCs14eHuuW48ek_10actual_cli8analysis15static_analyzer9manifests13parse_pom_xmls1_0B9_
FNDA:0,_RNCNvNtNtNtCs14eHuuW48ek_10actual_cli8analysis15static_analyzer9manifests13parse_pom_xmls_0B9_
FNDA:0,_RNCNvNtNtNtCs14eHuuW48ek_10actual_cli8analysis15static_analyzer9manifests16parse_cargo_toml0B9_
FNDA:0,_RNCNvNtNtNtCs14eHuuW48ek_10actual_cli8analysis15static_analyzer9manifests16parse_cargo_tomls_0B9_
FNDA:0,_RNCNvNtNtNtCs14eHuuW48ek_10actual_cli8analysis15static_analyzer9manifests18parse_build_gradle0B9_
FNDA:0,_RNCNvNtNtNtCs14eHuuW48ek_10actual_cli8analysis15static_analyzer9manifests18parse_build_gradles_0B9_
FNDA:0,_RNCNvNtNtNtCs14eHuuW48ek_10actual_cli8analysis15static_analyzer9manifests18parse_package_json0B9_
FNDA:0,_RNCNvNtNtNtCs14eHuuW48ek_10actual_cli8analysis15static_analyzer9manifests18parse_package_jsons_0B9_
FNDA:0,_RNCNvNtNtNtCs14eHuuW48ek_10actual_cli8analysis15static_analyzer9manifests19parse_package_swift0B9_
FNDA:0,_RNCNvNtNtNtCs14eHuuW48ek_10actual_cli8analysis15static_analyzer9manifests20parse_pyproject_toml0B9_
FNDA:0,_RNCNvNtNtNtCs14eHuuW48ek_10actual_cli8analysis15static_analyzer9manifests20parse_pyproject_tomls0_0B9_
FNDA:0,_RNCNvNtNtNtCs14eHuuW48ek_10actual_cli8analysis15static_analyzer9manifests20parse_pyproject_tomls1_0B9_
FNDA:0,_RNCNvNtNtNtCs14eHuuW48ek_10actual_cli8analysis15static_analyzer9manifests20parse_pyproject_tomls2_0B9_
FNDA:0,_RNCNvNtNtNtCs14eHuuW48ek_10actual_cli8analysis15static_analyzer9manifests20parse_pyproject_tomls3_0B9_
FNDA:0,_RNCNvNtNtNtCs14eHuuW48ek_10actual_cli8analysis15static_analyzer9manifests20parse_pyproject_tomls4_0B9_
FNDA:0,_RNCNvNtNtNtCs14eHuuW48ek_10actual_cli8analysis15static_analyzer9manifests20parse_pyproject_tomls5_0B9_
FNDA:0,_RNCNvNtNtNtCs14eHuuW48ek_10actual_cli8analysis15static_analyzer9manifests20parse_pyproject_tomls6_0B9_
FNDA:0,_RNCNvNtNtNtCs14eHuuW48ek_10actual_cli8analysis15static_analyzer9manifests20parse_pyproject_tomls7_0B9_
FNDA:0,_RNCNvNtNtNtCs14eHuuW48ek_10actual_cli8analysis15static_analyzer9manifests20parse_pyproject_tomls_0B9_
FNDA:1,_RNCNvNtNtNtCs23MeGd5xNbL_10actual_cli8analysis15static_analyzer9manifests13parse_gemfile0B9_
FNDA:3,_RNCNvNtNtNtCs23MeGd5xNbL_10actual_cli8analysis15static_analyzer9manifests13parse_gemfiles_0B9_
FNDA:1,_RNCNvNtNtNtCs23MeGd5xNbL_10actual_cli8analysis15static_analyzer9manifests13parse_pipfile0B9_
FNDA:1,_RNCNvNtNtNtCs23MeGd5xNbL_10actual_cli8analysis15static_analyzer9manifests13parse_pipfiles_0B9_
FNDA:2,_RNCNvNtNtNtCs23MeGd5xNbL_10actual_cli8analysis15static_analyzer9manifests13parse_pom_xml0B9_
FNDA:2,_RNCNvNtNtNtCs23MeGd5xNbL_10actual_cli8analysis15static_analyzer9manifests13parse_pom_xmls0_0B9_
FNDA:2,_RNCNvNtNtNtCs23MeGd5xNbL_10actual_cli8analysis15static_analyzer9manifests13parse_pom_xmls1_0B9_
FNDA:2,_RNCNvNtNtNtCs23MeGd5xNbL_10actual_cli8analysis15static_analyzer9manifests13parse_pom_xmls_0B9_
FNDA:1,_RNCNvNtNtNtCs23MeGd5xNbL_10actual_cli8analysis15static_analyzer9manifests16parse_cargo_toml0B9_
FNDA:1,_RNCNvNtNtNtCs23MeGd5xNbL_10actual_cli8analysis15static_analyzer9manifests16parse_cargo_tomls_0B9_
FNDA:6,_RNCNvNtNtNtCs23MeGd5xNbL_10actual_cli8analysis15static_analyzer9manifests18parse_build_gradle0B9_
FNDA:1,_RNCNvNtNtNtCs23MeGd5xNbL_10actual_cli8analysis15static_analyzer9manifests18parse_build_gradles_0B9_
FNDA:2,_RNCNvNtNtNtCs23MeGd5xNbL_10actual_cli8analysis15static_analyzer9manifests18parse_package_json0B9_
FNDA:1,_RNCNvNtNtNtCs23MeGd5xNbL_10actual_cli8analysis15static_analyzer9manifests18parse_package_jsons_0B9_
FNDA:3,_RNCNvNtNtNtCs23MeGd5xNbL_10actual_cli8analysis15static_analyzer9manifests19parse_package_swift0B9_
FNDA:4,_RNCNvNtNtNtCs23MeGd5xNbL_10actual_cli8analysis15static_analyzer9manifests20parse_pyproject_toml0B9_
FNDA:4,_RNCNvNtNtNtCs23MeGd5xNbL_10actual_cli8analysis15static_analyzer9manifests20parse_pyproject_tomls0_0B9_
FNDA:3,_RNCNvNtNtNtCs23MeGd5xNbL_10actual_cli8analysis15static_analyzer9manifests20parse_pyproject_tomls1_0B9_
FNDA:1,_RNCNvNtNtNtCs23MeGd5xNbL_10actual_cli8analysis15static_analyzer9manifests20parse_pyproject_tomls2_0B9_
FNDA:1,_RNCNvNtNtNtCs23MeGd5xNbL_10actual_cli8analysis15static_analyzer9manifests20parse_pyproject_tomls3_0B9_
FNDA:1,_RNCNvNtNtNtCs23MeGd5xNbL_10actual_cli8analysis15static_analyzer9manifests20parse_pyproject_tomls4_0B9_
FNDA:1,_RNCNvNtNtNtCs23MeGd5xNbL_10actual_cli8analysis15static_analyzer9manifests20parse_pyproject_tomls5_0B9_
FNDA:1,_RNCNvNtNtNtCs23MeGd5xNbL_10actual_cli8analysis15static_analyzer9manifests20parse_pyproject_tomls6_0B9_
FNDA:1,_RNCNvNtNtNtCs23MeGd5xNbL_10actual_cli8analysis15static_analyzer9manifests20parse_pyproject_tomls7_0B9_
FNDA:2,_RNCNvNtNtNtCs23MeGd5xNbL_10actual_cli8analysis15static_analyzer9manifests20parse_pyproject_tomls_0B9_
FNDA:35,_RNvNtNtNtCs23MeGd5xNbL_10actual_cli8analysis15static_analyzer9manifests12parse_go_mod
FNDA:35,_RNvNtNtNtCs23MeGd5xNbL_10actual_cli8analysis15static_analyzer9manifests13parse_gemfile
FNDA:35,_RNvNtNtNtCs23MeGd5xNbL_10actual_cli8analysis15static_analyzer9manifests13parse_pipfile
FNDA:35,_RNvNtNtNtCs23MeGd5xNbL_10actual_cli8analysis15static_analyzer9manifests13parse_pom_xml
FNDA:1,_RNvNtNtNtCs23MeGd5xNbL_10actual_cli8analysis15static_analyzer9manifests14regex_gem_name
FNDA:35,_RNvNtNtNtCs23MeGd5xNbL_10actual_cli8analysis15static_analyzer9manifests16parse_cargo_toml
FNDA:35,_RNvNtNtNtCs23MeGd5xNbL_10actual_cli8analysis15static_analyzer9manifests18parse_build_gradle
FNDA:35,_RNvNtNtNtCs23MeGd5xNbL_10actual_cli8analysis15static_analyzer9manifests18parse_dependencies
FNDA:35,_RNvNtNtNtCs23MeGd5xNbL_10actual_cli8analysis15static_analyzer9manifests18parse_package_json
FNDA:3,_RNvNtNtNtCs23MeGd5xNbL_10actual_cli8analysis15static_analyzer9manifests18regex_pom_group_id
FNDA:35,_RNvNtNtNtCs23MeGd5xNbL_10actual_cli8analysis15static_analyzer9manifests19parse_package_swift
FNDA:35,_RNvNtNtNtCs23MeGd5xNbL_10actual_cli8analysis15static_analyzer9manifests20parse_pyproject_toml
FNDA:3,_RNvNtNtNtCs23MeGd5xNbL_10actual_cli8analysis15static_analyzer9manifests20regex_pom_dependency
FNDA:3,_RNvNtNtNtCs23MeGd5xNbL_10actual_cli8analysis15static_analyzer9manifests21regex_pom_artifact_id
FNDA:35,_RNvNtNtNtCs23MeGd5xNbL_10actual_cli8analysis15static_analyzer9manifests22parse_requirements_txt
FNDA:5,_RNvNtNtNtCs23MeGd5xNbL_10actual_cli8analysis15static_analyzer9manifests23regex_gradle_dependency
FNDA:3,_RNvNtNtNtCs23MeGd5xNbL_10actual_cli8analysis15static_analyzer9manifests23regex_swift_package_url
FNDA:3,_RNvNtNtNtCs23MeGd5xNbL_10actual_cli8analysis15static_analyzer9manifests24regex_swift_package_name
FNDA:22,_RNvNtNtNtCs23MeGd5xNbL_10actual_cli8analysis15static_analyzer9manifests30strip_python_version_specifier
FNDA:1,_RNvNtNtNtNtCs23MeGd5xNbL_10actual_cli8analysis15static_analyzer9manifests5testss_11test_go_mod
FNDA:1,_RNvNtNtNtNtCs23MeGd5xNbL_10actual_cli8analysis15static_analyzer9manifests5testss_12test_gemfile
FNDA:1,_RNvNtNtNtNtCs23MeGd5xNbL_10actual_cli8analysis15static_analyzer9manifests5testss_12test_pipfile
FNDA:1,_RNvNtNtNtNtCs23MeGd5xNbL_10actual_cli8analysis15static_analyzer9manifests5testss_12test_pom_xml
FNDA:1,_RNvNtNtNtNtCs23MeGd5xNbL_10actual_cli8analysis15static_analyzer9manifests5testss_15test_cargo_toml
FNDA:1,_RNvNtNtNtNtCs23MeGd5xNbL_10actual_cli8analysis15static_analyzer9manifests5testss_17test_build_gradle
FNDA:1,_RNvNtNtNtNtCs23MeGd5xNbL_10actual_cli8analysis15static_analyzer9manifests5testss_17test_package_json
FNDA:1,_RNvNtNtNtNtCs23MeGd5xNbL_10actual_cli8analysis15static_analyzer9manifests5testss_18test_package_swift
FNDA:1,_RNvNtNtNtNtCs23MeGd5xNbL_10actual_cli8analysis15static_analyzer9manifests5testss_21test_build_gradle_kts
FNDA:1,_RNvNtNtNtNtCs23MeGd5xNbL_10actual_cli8analysis15static_analyzer9manifests5testss_21test_requirements_txt
FNDA:1,_RNvNtNtNtNtCs23MeGd5xNbL_10actual_cli8analysis15static_analyzer9manifests5testss_25test_pipfile_invalid_toml
FNDA:1,_RNvNtNtNtNtCs23MeGd5xNbL_10actual_cli8analysis15static_analyzer9manifests5testss_26test_pyproject_toml_pep631
FNDA:1,_RNvNtNtNtNtCs23MeGd5xNbL_10actual_cli8analysis15static_analyzer9manifests5testss_26test_pyproject_toml_poetry
FNDA:1,_RNvNtNtNtNtCs23MeGd5xNbL_10actual_cli8analysis15static_analyzer9manifests5testss_28test_cargo_toml_invalid_toml
FNDA:1,_RNvNtNtNtNtCs23MeGd5xNbL_10actual_cli8analysis15static_analyzer9manifests5testss_28test_dependencies_are_sorted
FNDA:1,_RNvNtNtNtNtCs23MeGd5xNbL_10actual_cli8analysis15static_analyzer9manifests5testss_30test_package_json_invalid_json
FNDA:1,_RNvNtNtNtNtCs23MeGd5xNbL_10actual_cli8analysis15static_analyzer9manifests5testss_32test_pipfile_no_packages_section
FNDA:1,_RNvNtNtNtNtCs23MeGd5xNbL_10actual_cli8analysis15static_analyzer9manifests5testss_32test_pyproject_toml_invalid_toml
FNDA:1,_RNvNtNtNtNtCs23MeGd5xNbL_10actual_cli8analysis15static_analyzer9manifests5testss_32test_requirements_txt_with_flags
FNDA:1,_RNvNtNtNtNtCs23MeGd5xNbL_10actual_cli8analysis15static_analyzer9manifests5testss_35test_build_gradle_api_configuration
FNDA:1,_RNvNtNtNtNtCs23MeGd5xNbL_10actual_cli8analysis15static_analyzer9manifests5testss_35test_strip_python_version_specifier
FNDA:1,_RNvNtNtNtNtCs23MeGd5xNbL_10actual_cli8analysis15static_analyzer9manifests5testss_37test_build_gradle_no_matching_pattern
FNDA:1,_RNvNtNtNtNtCs23MeGd5xNbL_10actual_cli8analysis15static_analyzer9manifests5testss_37test_package_json_no_dependencies_key
FNDA:1,_RNvNtNtNtNtCs23MeGd5xNbL_10actual_cli8analysis15static_analyzer9manifests5testss_38test_build_gradle_single_quoted_parens
FNDA:1,_RNvNtNtNtNtCs23MeGd5xNbL_10actual_cli8analysis15static_analyzer9manifests5testss_39test_cargo_toml_no_dependencies_section
FNDA:1,_RNvNtNtNtNtCs23MeGd5xNbL_10actual_cli8analysis15static_analyzer9manifests5testss_40test_go_mod_empty_lines_in_require_block
FNDA:1,_RNvNtNtNtNtCs23MeGd5xNbL_10actual_cli8analysis15static_analyzer9manifests5testss_40test_missing_manifests_return_empty_deps
FNDA:1,_RNvNtNtNtNtCs23MeGd5xNbL_10actual_cli8analysis15static_analyzer9manifests5testss_40test_package_swift_url_only_name_portion
FNDA:1,_RNvNtNtNtNtCs23MeGd5xNbL_10actual_cli8analysis15static_analyzer9manifests5testss_40test_pom_xml_dependency_without_group_id
FNDA:1,_RNvNtNtNtNtCs23MeGd5xNbL_10actual_cli8analysis15static_analyzer9manifests5testss_41test_go_mod_require_no_space_before_paren
FNDA:1,_RNvNtNtNtNtCs23MeGd5xNbL_10actual_cli8analysis15static_analyzer9manifests5testss_41test_package_swift_url_without_git_suffix
FNDA:1,_RNvNtNtNtNtCs23MeGd5xNbL_10actual_cli8analysis15static_analyzer9manifests5testss_41test_pyproject_toml_non_string_dependency
FNDA:1,_RNvNtNtNtNtCs23MeGd5xNbL_10actual_cli8analysis15static_analyzer9manifests5testss_42test_go_mod_with_comments_in_require_block
FNDA:1,_RNvNtNtNtNtCs23MeGd5xNbL_10actual_cli8analysis15static_analyzer9manifests5testss_42test_strip_python_specifier_only_specifier
FNDA:1,_RNvNtNtNtNtCs23MeGd5xNbL_10actual_cli8analysis15static_analyzer9manifests5testss_43test_pom_xml_dependency_without_artifact_id
FNDA:1,_RNvNtNtNtNtCs23MeGd5xNbL_10actual_cli8analysis15static_analyzer9manifests5testss_49test_pyproject_toml_optional_deps_non_array_group
FNDA:1,_RNvNtNtNtNtCs23MeGd5xNbL_10actual_cli8analysis15static_analyzer9manifests5testss_50test_pyproject_toml_optional_deps_non_string_items
FNDA:2,_RNCNvNtNtNtNtCs23MeGd5xNbL_10actual_cli8analysis15static_analyzer9manifests5testss_42test_go_mod_with_comments_in_require_block0Bb_
FNF:82
FNH:82
DA:18,35
DA:19,35
DA:20,35
DA:22,35
DA:23,35
DA:24,35
DA:25,35
DA:26,35
DA:27,35
DA:28,35
DA:29,35
DA:30,35
DA:31,35
DA:33,35
DA:34,35
DA:35,35
DA:36,35
DA:38,35
DA:39,35
DA:40,35
DA:41,35
DA:42,35
DA:46,35
DA:47,35
DA:48,35
DA:49,35
DA:50,35
DA:51,35
DA:52,35
DA:53,4
DA:54,31
DA:56,4
DA:57,3
DA:58,1
DA:61,3
DA:62,5
DA:63,5
DA:64,5
DA:65,1
DA:66,3
DA:67,2
DA:68,2
DA:69,2
DA:70,2
DA:71,35
DA:75,35
DA:76,35
DA:77,35
DA:78,35
DA:79,35
DA:80,35
DA:81,35
DA:82,3
DA:83,32
DA:85,3
DA:86,2
DA:87,1
DA:90,2
DA:91,3
DA:92,3
DA:93,3
DA:94,1
DA:95,2
DA:96,1
DA:97,1
DA:98,1
DA:99,1
DA:100,35
DA:104,35
DA:105,35
DA:106,35
DA:107,35
DA:108,35
DA:109,35
DA:110,35
DA:111,6
DA:112,29
DA:114,6
DA:115,5
DA:116,1
DA:120,5
DA:121,5
DA:122,5
DA:123,5
DA:125,7
DA:126,5
DA:127,4
DA:128,4
DA:129,4
DA:130,1
DA:132,3
DA:135,5
DA:136,5
DA:137,5
DA:138,5
DA:140,6
DA:141,3
DA:142,6
DA:143,4
DA:144,3
DA:145,3
DA:146,3
DA:147,1
DA:149,1
DA:151,2
DA:154,5
DA:155,5
DA:156,5
DA:157,5
DA:158,5
DA:160,3
DA:161,3
DA:162,2
DA:163,2
DA:165,4
DA:168,5
DA:169,5
DA:170,5
DA:171,5
DA:172,5
DA:174,1
DA:175,1
DA:176,1
DA:177,4
DA:178,35
DA:183,22
DA:184,22
DA:185,22
DA:186,1
DA:187,21
DA:190,21
DA:191,21
DA:192,21
DA:194,21
DA:195,21
DA:196,1
DA:197,20
DA:203,20
DA:204,22
DA:208,35
DA:209,35
DA:210,35
DA:211,2
DA:212,33
DA:215,13
DA:216,13
DA:218,13
DA:219,7
DA:220,6
DA:221,6
DA:222,6
DA:223,6
DA:225,35
DA:229,35
DA:230,35
DA:231,35
DA:232,3
DA:233,32
DA:235,3
DA:236,2
DA:237,1
DA:240,2
DA:241,2
DA:242,2
DA:243,2
DA:244,1
DA:245,2
DA:246,1
DA:247,1
DA:248,1
DA:249,1
DA:250,35
DA:254,35
DA:255,35
DA:256,35
DA:257,4
DA:258,31
DA:261,4
DA:263,37
DA:264,37
DA:266,37
DA:267,4
DA:268,4
DA:269,33
DA:271,33
DA:272,13
DA:273,4
DA:274,4
DA:275,9
DA:277,9
DA:278,7
DA:279,6
DA:280,6
DA:281,2
DA:282,9
DA:283,20
DA:286,20
DA:287,1
DA:288,1
DA:289,1
DA:290,1
DA:291,19
DA:293,35
DA:297,35
DA:298,35
DA:299,35
DA:300,1
DA:301,34
DA:305,1
DA:306,3
DA:308,3
DA:309,3
DA:310,3
DA:311,3
DA:312,3
DA:313,3
DA:314,3
DA:316,35
DA:319,1
DA:320,1
DA:321,1
DA:325,35
DA:326,35
DA:327,35
DA:328,3
DA:329,32
DA:333,3
DA:334,3
DA:335,3
DA:337,3
DA:338,3
DA:339,3
DA:340,3
DA:341,3
DA:342,3
DA:343,3
DA:344,3
DA:345,3
DA:346,3
DA:348,3
DA:349,2
DA:350,2
DA:351,3
DA:352,2
DA:353,2
DA:355,35
DA:357,3
DA:358,3
DA:359,3
DA:361,3
DA:362,3
DA:363,3
DA:365,3
DA:366,3
DA:367,3
DA:371,35
DA:372,105
DA:373,70
DA:374,70
DA:375,5
DA:376,65
DA:379,5
DA:380,8
DA:382,8
DA:383,8
DA:384,8
DA:385,8
DA:386,8
DA:387,8
DA:389,8
DA:390,8
DA:391,8
DA:392,8
DA:393,8
DA:394,8
DA:397,35
DA:399,5
DA:402,5
DA:403,5
DA:405,5
DA:406,5
DA:410,35
DA:411,35
DA:412,35
DA:413,3
DA:414,32
DA:418,3
DA:419,3
DA:420,1
DA:421,1
DA:422,1
DA:425,3
DA:426,3
DA:428,3
DA:429,3
DA:430,3
DA:431,3
DA:432,3
DA:433,3
DA:434,3
DA:435,3
DA:436,3
DA:437,3
DA:438,3
DA:440,35
DA:442,3
DA:443,3
DA:444,3
DA:446,3
DA:447,3
DA:448,3
DA:457,1
DA:458,1
DA:459,1
DA:460,1
DA:472,1
DA:474,1
DA:475,1
DA:476,1
DA:477,1
DA:478,1
DA:479,1
DA:482,1
DA:483,1
DA:484,1
DA:485,1
DA:500,1
DA:502,1
DA:503,1
DA:504,1
DA:505,1
DA:506,1
DA:507,1
DA:510,1
DA:511,1
DA:512,1
DA:513,1
DA:530,1
DA:532,1
DA:533,1
DA:534,1
DA:535,1
DA:536,1
DA:537,1
DA:538,1
DA:541,1
DA:542,1
DA:543,1
DA:544,1
DA:558,1
DA:560,1
DA:561,1
DA:562,1
DA:564,1
DA:565,1
DA:566,1
DA:569,1
DA:570,1
DA:571,1
DA:572,1
DA:585,1
DA:587,1
DA:588,1
DA:589,1
DA:590,1
DA:591,1
DA:592,1
DA:593,1
DA:596,1
DA:597,1
DA:598,1
DA:599,1
DA:613,1
DA:615,1
DA:616,1
DA:617,1
DA:618,1
DA:619,1
DA:620,1
DA:621,1
DA:622,1
DA:623,1
DA:624,1
DA:625,1
DA:628,1
DA:629,1
DA:630,1
DA:631,1
DA:640,1
DA:642,1
DA:643,1
DA:644,1
DA:645,1
DA:646,1
DA:649,1
DA:650,1
DA:651,1
DA:652,1
DA:664,1
DA:666,1
DA:667,1
DA:668,1
DA:669,1
DA:670,1
DA:671,1
DA:672,1
DA:673,1
DA:676,1
DA:677,1
DA:678,1
DA:679,1
DA:687,1
DA:689,1
DA:690,1
DA:691,1
DA:692,1
DA:695,1
DA:696,1
DA:697,1
DA:698,1
DA:699,1
DA:700,1
DA:703,1
DA:704,1
DA:705,1
DA:706,1
DA:715,1
DA:717,1
DA:718,1
DA:719,1
DA:722,1
DA:723,1
DA:724,1
DA:725,1
DA:738,1
DA:740,1
DA:741,1
DA:742,1
DA:743,1
DA:744,1
DA:745,1
DA:746,1
DA:747,1
DA:750,1
DA:751,1
DA:752,1
DA:753,1
DA:767,1
DA:769,1
DA:770,1
DA:771,1
DA:772,1
DA:775,1
DA:776,1
DA:777,1
DA:778,1
DA:788,1
DA:790,1
DA:791,1
DA:792,1
DA:793,1
DA:794,1
DA:797,1
DA:798,1
DA:799,1
DA:800,1
DA:802,1
DA:803,1
DA:806,1
DA:807,1
DA:808,1
DA:809,1
DA:812,1
DA:813,1
DA:814,1
DA:815,1
DA:816,1
DA:819,1
DA:820,1
DA:821,1
DA:822,1
DA:823,1
DA:824,1
DA:827,1
DA:828,1
DA:829,1
DA:830,1
DA:831,1
DA:832,1
DA:835,1
DA:836,1
DA:837,1
DA:838,1
DA:839,1
DA:840,1
DA:843,1
DA:844,1
DA:845,1
DA:846,1
DA:859,1
DA:861,1
DA:863,2
DA:864,1
DA:865,1
DA:866,1
DA:867,1
DA:868,1
DA:869,1
DA:870,1
DA:873,1
DA:874,1
DA:875,1
DA:876,1
DA:879,1
DA:881,1
DA:882,1
DA:883,1
DA:884,1
DA:885,1
DA:888,1
DA:889,1
DA:890,1
DA:891,1
DA:894,1
DA:896,1
DA:898,1
DA:899,1
DA:900,1
DA:903,1
DA:904,1
DA:905,1
DA:906,1
DA:915,1
DA:917,1
DA:918,1
DA:919,1
DA:920,1
DA:921,1
DA:924,1
DA:925,1
DA:926,1
DA:927,1
DA:936,1
DA:938,1
DA:939,1
DA:940,1
DA:941,1
DA:942,1
DA:945,1
DA:947,1
DA:948,1
DA:949,1
DA:952,1
DA:954,1
DA:955,1
DA:956,1
DA:957,1
DA:960,1
DA:961,1
DA:962,1
DA:963,1
DA:975,1
DA:977,1
DA:978,1
DA:979,1
DA:982,1
DA:983,1
DA:984,1
DA:985,1
DA:997,1
DA:999,1
DA:1000,1
DA:1001,1
DA:1004,1
DA:1005,1
DA:1006,1
DA:1007,1
DA:1010,1
DA:1011,1
DA:1012,1
DA:1013,1
DA:1014,1
DA:1017,1
DA:1018,1
DA:1019,1
DA:1020,1
DA:1023,1
DA:1024,1
DA:1025,1
DA:1026,1
DA:1027,1
DA:1030,1
DA:1032,1
DA:1033,1
DA:1034,1
DA:1037,1
DA:1038,1
DA:1039,1
DA:1041,1
DA:1044,1
DA:1046,1
DA:1047,1
DA:1048,1
DA:1051,1
DA:1052,1
DA:1053,1
DA:1054,1
DA:1057,1
DA:1059,1
DA:1060,1
DA:1061,1
DA:1064,1
DA:1065,1
DA:1066,1
DA:1067,1
DA:1070,1
DA:1072,1
DA:1073,1
DA:1076,1
DA:1077,1
DA:1078,1
DA:1079,1
DA:1082,1
DA:1084,1
DA:1085,1
DA:1086,1
DA:1087,1
DA:1088,1
DA:1091,1
DA:1093,1
DA:1094,1
DA:1095,1
DA:1098,1
DA:1099,1
DA:1101,1
DA:1102,1
DA:1105,1
DA:1107,1
DA:1108,1
DA:1109,1
DA:1112,1
DA:1113,1
DA:1114,1
DA:1115,1
DA:1118,1
DA:1119,1
DA:1120,1
DA:1121,1
DA:1123,1
DA:1124,1
DA:1125,1
DA:1127,1
DA:1128,1
DA:1129,1
DA:1131,1
DA:1132,1
DA:1133,1
DA:1135,1
DA:1136,1
DA:1137,1
DA:1139,1
DA:1140,1
DA:1141,1
DA:1143,1
DA:1144,1
DA:1145,1
DA:1146,1
DA:1148,1
BRF:0
BRH:0
LF:694
LH:694
end_of_record
SF:/Users/poile/repos/actualai/actual-cli/.worktrees/2u6.4/src/analysis/static_analyzer/registry.rs
FN:316,_RNvNtNtNtCs14eHuuW48ek_10actual_cli8analysis15static_analyzer8registry6lookup
FN:320,_RNCNvNtNtNtCs14eHuuW48ek_10actual_cli8analysis15static_analyzer8registry6lookup0B9_
FN:329,_RNCNvNtNtNtCs14eHuuW48ek_10actual_cli8analysis15static_analyzer8registry6lookups_0B9_
FN:344,_RNCNvNtNtNtNtCs23MeGd5xNbL_10actual_cli8analysis15static_analyzer8registry5testss_42all_registry_entries_have_valid_categories0Bb_
FN:316,_RNvNtNtNtCs23MeGd5xNbL_10actual_cli8analysis15static_analyzer8registry6lookup
FN:320,_RNCNvNtNtNtCs23MeGd5xNbL_10actual_cli8analysis15static_analyzer8registry6lookup0B9_
FN:329,_RNCNvNtNtNtCs23MeGd5xNbL_10actual_cli8analysis15static_analyzer8registry6lookups_0B9_
FN:356,_RNvNtNtNtNtCs23MeGd5xNbL_10actual_cli8analysis15static_analyzer8registry5testss_18lookup_exact_match
FN:363,_RNvNtNtNtNtCs23MeGd5xNbL_10actual_cli8analysis15static_analyzer8registry5testss_22lookup_go_module_exact
FN:369,_RNvNtNtNtNtCs23MeGd5xNbL_10actual_cli8analysis15static_analyzer8registry5testss_26lookup_go_module_versioned
FN:375,_RNvNtNtNtNtCs23MeGd5xNbL_10actual_cli8analysis15static_analyzer8registry5testss_27lookup_missing_returns_none
FN:380,_RNvNtNtNtNtCs23MeGd5xNbL_10actual_cli8analysis15static_analyzer8registry5testss_39registry_has_entries_for_all_ecosystems
FN:341,_RNvNtNtNtNtCs23MeGd5xNbL_10actual_cli8analysis15static_analyzer8registry5testss_42all_registry_entries_have_valid_categories
FNDA:0,_RNvNtNtNtCs14eHuuW48ek_10actual_cli8analysis15static_analyzer8registry6lookup
FNDA:0,_RNCNvNtNtNtCs14eHuuW48ek_10actual_cli8analysis15static_analyzer8registry6lookup0B9_
FNDA:0,_RNCNvNtNtNtCs14eHuuW48ek_10actual_cli8analysis15static_analyzer8registry6lookups_0B9_
FNDA:58,_RNCNvNtNtNtNtCs23MeGd5xNbL_10actual_cli8analysis15static_analyzer8registry5testss_42all_registry_entries_have_valid_categories0Bb_
FNDA:20,_RNvNtNtNtCs23MeGd5xNbL_10actual_cli8analysis15static_analyzer8registry6lookup
FNDA:508,_RNCNvNtNtNtCs23MeGd5xNbL_10actual_cli8analysis15static_analyzer8registry6lookup0B9_
FNDA:44,_RNCNvNtNtNtCs23MeGd5xNbL_10actual_cli8analysis15static_analyzer8registry6lookups_0B9_
FNDA:1,_RNvNtNtNtNtCs23MeGd5xNbL_10actual_cli8analysis15static_analyzer8registry5testss_18lookup_exact_match
FNDA:1,_RNvNtNtNtNtCs23MeGd5xNbL_10actual_cli8analysis15static_analyzer8registry5testss_22lookup_go_module_exact
FNDA:1,_RNvNtNtNtNtCs23MeGd5xNbL_10actual_cli8analysis15static_analyzer8registry5testss_26lookup_go_module_versioned
FNDA:1,_RNvNtNtNtNtCs23MeGd5xNbL_10actual_cli8analysis15static_analyzer8registry5testss_27lookup_missing_returns_none
FNDA:1,_RNvNtNtNtNtCs23MeGd5xNbL_10actual_cli8analysis15static_analyzer8registry5testss_39registry_has_entries_for_all_ecosystems
FNDA:1,_RNvNtNtNtNtCs23MeGd5xNbL_10actual_cli8analysis15static_analyzer8registry5testss_42all_registry_entries_have_valid_categories
FNF:10
FNH:10
DA:316,20
DA:318,20
DA:319,20
DA:320,508
DA:322,17
DA:323,3
DA:326,3
DA:327,1
DA:328,1
DA:329,44
DA:330,2
DA:332,2
DA:333,20
DA:341,1
DA:342,1
DA:343,1
DA:344,58
DA:345,58
DA:346,58
DA:349,58
DA:350,1
DA:351,1
DA:352,1
DA:353,1
DA:356,1
DA:357,1
DA:358,1
DA:359,1
DA:360,1
DA:363,1
DA:364,1
DA:365,1
DA:366,1
DA:369,1
DA:370,1
DA:371,1
DA:372,1
DA:375,1
DA:376,1
DA:377,1
DA:380,1
DA:382,1
DA:383,1
DA:384,1
DA:385,1
DA:386,1
DA:387,1
DA:388,1
DA:389,1
DA:390,7
DA:391,6
DA:393,1
BRF:0
BRH:0
LF:55
LH:55
end_of_record
SF:/Users/poile/repos/actualai/actual-cli/.worktrees/2u6.4/src/analysis/types.rs
FN:72,_RNvMNtNtCs14eHuuW48ek_10actual_cli8analysis5typesNtB2_8Language20from_str_insensitive
FN:50,_RNvMNtNtCs14eHuuW48ek_10actual_cli8analysis5typesNtB2_8Language6as_str
FN:164,_RNvMs2_NtNtCs14eHuuW48ek_10actual_cli8analysis5typesNtB5_17FrameworkCategory20from_str_insensitive
FN:145,_RNvMs2_NtNtCs14eHuuW48ek_10actual_cli8analysis5typesNtB5_17FrameworkCategory6as_str
FN:108,_RNvXs1_NtNtCs14eHuuW48ek_10actual_cli8analysis5typesNtB5_8LanguageNtNtCsd2KPTObkMr_4core3fmt7Display3fmt
FN:101,_RINvXs0_NtNtCs14eHuuW48ek_10actual_cli8analysis5typesNtB6_8LanguageNtNtCsjjJ2I7eriog_10serde_core2de11Deserialize11deserializeNtNtCsg9lTFOLt0QY_10serde_yaml5value5ValueEBa_
FN:101,_RINvXs0_NtNtCs14eHuuW48ek_10actual_cli8analysis5typesNtB6_8LanguageNtNtCsjjJ2I7eriog_10serde_core2de11Deserialize11deserializeQINtNtCshA07nRiVXfX_10serde_json2de12DeserializerNtNtB26_4read9SliceReadEEBa_
FN:189,_RINvXs3_NtNtCs14eHuuW48ek_10actual_cli8analysis5typesNtB6_17FrameworkCategoryNtNtCsjjJ2I7eriog_10serde_core3ser9Serialize9serializeNtNtNtCsg9lTFOLt0QY_10serde_yaml5value3ser10SerializerEBa_
FN:189,_RINvXs3_NtNtCs14eHuuW48ek_10actual_cli8analysis5typesNtB6_17FrameworkCategoryNtNtCsjjJ2I7eriog_10serde_core3ser9Serialize9serializeNtNtNtCshA07nRiVXfX_10serde_json5value3ser10SerializerEBa_
FN:189,_RINvXs3_NtNtCs14eHuuW48ek_10actual_cli8analysis5typesNtB6_17FrameworkCategoryNtNtCsjjJ2I7eriog_10serde_core3ser9Serialize9serializeQINtNtCshA07nRiVXfX_10serde_json3ser10SerializerQINtNtCs7fnLZwG9eJV_5alloc3vec3VechEEEBa_
FN:195,_RINvXs4_NtNtCs14eHuuW48ek_10actual_cli8analysis5typesNtB6_17FrameworkCategoryNtNtCsjjJ2I7eriog_10serde_core2de11Deserialize11deserializeINtNvNtNtCs8RM9aDo56Ar_5serde7private2de13missing_field24MissingFieldDeserializerNtNtCsg9lTFOLt0QY_10serde_yaml5error5ErrorEEBa_
FN:195,_RINvXs4_NtNtCs14eHuuW48ek_10actual_cli8analysis5typesNtB6_17FrameworkCategoryNtNtCsjjJ2I7eriog_10serde_core2de11Deserialize11deserializeINtNvNtNtCs8RM9aDo56Ar_5serde7private2de13missing_field24MissingFieldDeserializerNtNtCshA07nRiVXfX_10serde_json5error5ErrorEEBa_
FN:195,_RINvXs4_NtNtCs14eHuuW48ek_10actual_cli8analysis5typesNtB6_17FrameworkCategoryNtNtCsjjJ2I7eriog_10serde_core2de11Deserialize11deserializeNtNtCsg9lTFOLt0QY_10serde_yaml5value5ValueEBa_
FN:195,_RINvXs4_NtNtCs14eHuuW48ek_10actual_cli8analysis5typesNtB6_17FrameworkCategoryNtNtCsjjJ2I7eriog_10serde_core2de11Deserialize11deserializeQINtNtCshA07nRiVXfX_10serde_json2de12DeserializerNtNtB2g_4read9SliceReadEEBa_
FN:95,_RINvXs_NtNtCs14eHuuW48ek_10actual_cli8analysis5typesNtB5_8LanguageNtNtCsjjJ2I7eriog_10serde_core3ser9Serialize9serializeNtNtNtCsg9lTFOLt0QY_10serde_yaml5value3ser10SerializerEB9_
FN:95,_RINvXs_NtNtCs14eHuuW48ek_10actual_cli8analysis5typesNtB5_8LanguageNtNtCsjjJ2I7eriog_10serde_core3ser9Serialize9serializeNtNtNtCshA07nRiVXfX_10serde_json5value3ser10SerializerEB9_
FN:95,_RINvXs_NtNtCs14eHuuW48ek_10actual_cli8analysis5typesNtB5_8LanguageNtNtCsjjJ2I7eriog_10serde_core3ser9Serialize9serializeQINtNtCshA07nRiVXfX_10serde_json3ser10SerializerQINtNtCs7fnLZwG9eJV_5alloc3vec3VechEEEB9_
FN:168,_RNCNvMs2_NtNtCs14eHuuW48ek_10actual_cli8analysis5typesNtB7_17FrameworkCategory20from_str_insensitive0Bb_
FN:72,_RNvMNtNtCs23MeGd5xNbL_10actual_cli8analysis5typesNtB2_8Language20from_str_insensitive
FN:50,_RNvMNtNtCs23MeGd5xNbL_10actual_cli8analysis5typesNtB2_8Language6as_str
FN:164,_RNvMs2_NtNtCs23MeGd5xNbL_10actual_cli8analysis5typesNtB5_17FrameworkCategory20from_str_insensitive
FN:145,_RNvMs2_NtNtCs23MeGd5xNbL_10actual_cli8analysis5typesNtB5_17FrameworkCategory6as_str
FN:108,_RNvXs1_NtNtCs23MeGd5xNbL_10actual_cli8analysis5typesNtB5_8LanguageNtNtCsd2KPTObkMr_4core3fmt7Display3fmt
FN:469,_RNvNtNtNtCs23MeGd5xNbL_10actual_cli8analysis5types5testss_19language_round_trip
FN:206,_RNvNtNtNtCs23MeGd5xNbL_10actual_cli8analysis5types5testss_23deserialize_sample_json
FN:496,_RNvNtNtNtCs23MeGd5xNbL_10actual_cli8analysis5types5testss_29framework_category_round_trip
FN:317,_RNvNtNtNtCs23MeGd5xNbL_10actual_cli8analysis5types5testss_30language_display_matches_serde
FN:383,_RNvNtNtNtCs23MeGd5xNbL_10actual_cli8analysis5types5testss_30language_unknown_maps_to_other
FN:349,_RNvNtNtNtCs23MeGd5xNbL_10actual_cli8analysis5types5testss_32language_serializes_as_lowercase
FN:268,_RNvNtNtNtCs23MeGd5xNbL_10actual_cli8analysis5types5testss_32serialize_deserialize_round_trip
FN:236,_RNvNtNtNtCs23MeGd5xNbL_10actual_cli8analysis5types5testss_34deserialize_title_case_from_claude
FN:454,_RNvNtNtNtCs23MeGd5xNbL_10actual_cli8analysis5types5testss_35framework_category_other_round_trip
FN:355,_RNvNtNtNtCs23MeGd5xNbL_10actual_cli8analysis5types5testss_38language_deserializes_case_insensitive
FN:434,_RNvNtNtNtCs23MeGd5xNbL_10actual_cli8analysis5types5testss_40framework_category_unknown_maps_to_other
FN:392,_RNvNtNtNtCs23MeGd5xNbL_10actual_cli8analysis5types5testss_43framework_category_serializes_as_kebab_case
FN:447,_RNvNtNtNtCs23MeGd5xNbL_10actual_cli8analysis5types5testss_46framework_category_other_serializes_normalized
FN:401,_RNvNtNtNtCs23MeGd5xNbL_10actual_cli8analysis5types5testss_48framework_category_deserializes_case_insensitive
FN:101,_RINvXs0_NtNtCs23MeGd5xNbL_10actual_cli8analysis5typesNtB6_8LanguageNtNtCsjjJ2I7eriog_10serde_core2de11Deserialize11deserializeNtNtCsg9lTFOLt0QY_10serde_yaml5value5ValueEBa_
FN:101,_RINvXs0_NtNtCs23MeGd5xNbL_10actual_cli8analysis5typesNtB6_8LanguageNtNtCsjjJ2I7eriog_10serde_core2de11Deserialize11deserializeQINtNtCshA07nRiVXfX_10serde_json2de12DeserializerNtNtB26_4read7StrReadEEBa_
FN:101,_RINvXs0_NtNtCs23MeGd5xNbL_10actual_cli8analysis5typesNtB6_8LanguageNtNtCsjjJ2I7eriog_10serde_core2de11Deserialize11deserializeQINtNtCshA07nRiVXfX_10serde_json2de12DeserializerNtNtB26_4read9SliceReadEEBa_
FN:189,_RINvXs3_NtNtCs23MeGd5xNbL_10actual_cli8analysis5typesNtB6_17FrameworkCategoryNtNtCsjjJ2I7eriog_10serde_core3ser9Serialize9serializeNtNtNtCsg9lTFOLt0QY_10serde_yaml5value3ser10SerializerEBa_
FN:189,_RINvXs3_NtNtCs23MeGd5xNbL_10actual_cli8analysis5typesNtB6_17FrameworkCategoryNtNtCsjjJ2I7eriog_10serde_core3ser9Serialize9serializeNtNtNtCshA07nRiVXfX_10serde_json5value3ser10SerializerEBa_
FN:189,_RINvXs3_NtNtCs23MeGd5xNbL_10actual_cli8analysis5typesNtB6_17FrameworkCategoryNtNtCsjjJ2I7eriog_10serde_core3ser9Serialize9serializeQINtNtCshA07nRiVXfX_10serde_json3ser10SerializerQINtNtCs7fnLZwG9eJV_5alloc3vec3VechEEEBa_
FN:195,_RINvXs4_NtNtCs23MeGd5xNbL_10actual_cli8analysis5typesNtB6_17FrameworkCategoryNtNtCsjjJ2I7eriog_10serde_core2de11Deserialize11deserializeINtNvNtNtCs8RM9aDo56Ar_5serde7private2de13missing_field24MissingFieldDeserializerNtNtCsg9lTFOLt0QY_10serde_yaml5error5ErrorEEBa_
FN:195,_RINvXs4_NtNtCs23MeGd5xNbL_10actual_cli8analysis5typesNtB6_17FrameworkCategoryNtNtCsjjJ2I7eriog_10serde_core2de11Deserialize11deserializeINtNvNtNtCs8RM9aDo56Ar_5serde7private2de13missing_field24MissingFieldDeserializerNtNtCshA07nRiVXfX_10serde_json5error5ErrorEEBa_
FN:195,_RINvXs4_NtNtCs23MeGd5xNbL_10actual_cli8analysis5typesNtB6_17FrameworkCategoryNtNtCsjjJ2I7eriog_10serde_core2de11Deserialize11deserializeNtNtCsg9lTFOLt0QY_10serde_yaml5value5ValueEBa_
FN:195,_RINvXs4_NtNtCs23MeGd5xNbL_10actual_cli8analysis5typesNtB6_17FrameworkCategoryNtNtCsjjJ2I7eriog_10serde_core2de11Deserialize11deserializeQINtNtCshA07nRiVXfX_10serde_json2de12DeserializerNtNtB2g_4read7StrReadEEBa_
FN:195,_RINvXs4_NtNtCs23MeGd5xNbL_10actual_cli8analysis5typesNtB6_17FrameworkCategoryNtNtCsjjJ2I7eriog_10serde_core2de11Deserialize11deserializeQINtNtCshA07nRiVXfX_10serde_json2de12DeserializerNtNtB2g_4read9SliceReadEEBa_
FN:95,_RINvXs_NtNtCs23MeGd5xNbL_10actual_cli8analysis5typesNtB5_8LanguageNtNtCsjjJ2I7eriog_10serde_core3ser9Serialize9serializeNtNtNtCsg9lTFOLt0QY_10serde_yaml5value3ser10SerializerEB9_
FN:95,_RINvXs_NtNtCs23MeGd5xNbL_10actual_cli8analysis5typesNtB5_8LanguageNtNtCsjjJ2I7eriog_10serde_core3ser9Serialize9serializeNtNtNtCshA07nRiVXfX_10serde_json5value3ser10SerializerEB9_
FN:95,_RINvXs_NtNtCs23MeGd5xNbL_10actual_cli8analysis5typesNtB5_8LanguageNtNtCsjjJ2I7eriog_10serde_core3ser9Serialize9serializeQINtNtCshA07nRiVXfX_10serde_json3ser10SerializerQINtNtCs7fnLZwG9eJV_5alloc3vec3VechEEEB9_
FN:168,_RNCNvMs2_NtNtCs23MeGd5xNbL_10actual_cli8analysis5typesNtB7_17FrameworkCategory20from_str_insensitive0Bb_
FNDA:41,_RNvMNtNtCs14eHuuW48ek_10actual_cli8analysis5typesNtB2_8Language20from_str_insensitive
FNDA:49,_RNvMNtNtCs14eHuuW48ek_10actual_cli8analysis5typesNtB2_8Language6as_str
FNDA:5,_RNvMs2_NtNtCs14eHuuW48ek_10actual_cli8analysis5typesNtB5_17FrameworkCategory20from_str_insensitive
FNDA:6,_RNvMs2_NtNtCs14eHuuW48ek_10actual_cli8analysis5typesNtB5_17FrameworkCategory6as_str
FNDA:0,_RNvXs1_NtNtCs14eHuuW48ek_10actual_cli8analysis5typesNtB5_8LanguageNtNtCsd2KPTObkMr_4core3fmt7Display3fmt
FNDA:0,_RINvXs0_NtNtCs14eHuuW48ek_10actual_cli8analysis5typesNtB6_8LanguageNtNtCsjjJ2I7eriog_10serde_core2de11Deserialize11deserializeNtNtCsg9lTFOLt0QY_10serde_yaml5value5ValueEBa_
FNDA:41,_RINvXs0_NtNtCs14eHuuW48ek_10actual_cli8analysis5typesNtB6_8LanguageNtNtCsjjJ2I7eriog_10serde_core2de11Deserialize11deserializeQINtNtCshA07nRiVXfX_10serde_json2de12DeserializerNtNtB26_4read9SliceReadEEBa_
FNDA:0,_RINvXs3_NtNtCs14eHuuW48ek_10actual_cli8analysis5typesNtB6_17FrameworkCategoryNtNtCsjjJ2I7eriog_10serde_core3ser9Serialize9serializeNtNtNtCsg9lTFOLt0QY_10serde_yaml5value3ser10SerializerEBa_
FNDA:5,_RINvXs3_NtNtCs14eHuuW48ek_10actual_cli8analysis5typesNtB6_17FrameworkCategoryNtNtCsjjJ2I7eriog_10serde_core3ser9Serialize9serializeNtNtNtCshA07nRiVXfX_10serde_json5value3ser10SerializerEBa_
FNDA:1,_RINvXs3_NtNtCs14eHuuW48ek_10actual_cli8analysis5typesNtB6_17FrameworkCategoryNtNtCsjjJ2I7eriog_10serde_core3ser9Serialize9serializeQINtNtCshA07nRiVXfX_10serde_json3ser10SerializerQINtNtCs7fnLZwG9eJV_5alloc3vec3VechEEEBa_
FNDA:0,_RINvXs4_NtNtCs14eHuuW48ek_10actual_cli8analysis5typesNtB6_17FrameworkCategoryNtNtCsjjJ2I7eriog_10serde_core2de11Deserialize11deserializeINtNvNtNtCs8RM9aDo56Ar_5serde7private2de13missing_field24MissingFieldDeserializerNtNtCsg9lTFOLt0QY_10serde_yaml5error5ErrorEEBa_
FNDA:0,_RINvXs4_NtNtCs14eHuuW48ek_10actual_cli8analysis5typesNtB6_17FrameworkCategoryNtNtCsjjJ2I7eriog_10serde_core2de11Deserialize11deserializeINtNvNtNtCs8RM9aDo56Ar_5serde7private2de13missing_field24MissingFieldDeserializerNtNtCshA07nRiVXfX_10serde_json5error5ErrorEEBa_
FNDA:0,_RINvXs4_NtNtCs14eHuuW48ek_10actual_cli8analysis5typesNtB6_17FrameworkCategoryNtNtCsjjJ2I7eriog_10serde_core2de11Deserialize11deserializeNtNtCsg9lTFOLt0QY_10serde_yaml5value5ValueEBa_
FNDA:5,_RINvXs4_NtNtCs14eHuuW48ek_10actual_cli8analysis5typesNtB6_17FrameworkCategoryNtNtCsjjJ2I7eriog_10serde_core2de11Deserialize11deserializeQINtNtCshA07nRiVXfX_10serde_json2de12DeserializerNtNtB2g_4read9SliceReadEEBa_
FNDA:1,_RINvXs_NtNtCs14eHuuW48ek_10actual_cli8analysis5typesNtB5_8LanguageNtNtCsjjJ2I7eriog_10serde_core3ser9Serialize9serializeNtNtNtCsg9lTFOLt0QY_10serde_yaml5value3ser10SerializerEB9_
FNDA:37,_RINvXs_NtNtCs14eHuuW48ek_10actual_cli8analysis5typesNtB5_8LanguageNtNtCsjjJ2I7eriog_10serde_core3ser9Serialize9serializeNtNtNtCshA07nRiVXfX_10serde_json5value3ser10SerializerEB9_
FNDA:11,_RINvXs_NtNtCs14eHuuW48ek_10actual_cli8analysis5typesNtB5_8LanguageNtNtCsjjJ2I7eriog_10serde_core3ser9Serialize9serializeQINtNtCshA07nRiVXfX_10serde_json3ser10SerializerQINtNtCs7fnLZwG9eJV_5alloc3vec3VechEEEB9_
FNDA:60,_RNCNvMs2_NtNtCs14eHuuW48ek_10actual_cli8analysis5typesNtB7_17FrameworkCategory20from_str_insensitive0Bb_
FNDA:65,_RNvMNtNtCs23MeGd5xNbL_10actual_cli8analysis5typesNtB2_8Language20from_str_insensitive
FNDA:104,_RNvMNtNtCs23MeGd5xNbL_10actual_cli8analysis5typesNtB2_8Language6as_str
FNDA:138,_RNvMs2_NtNtCs23MeGd5xNbL_10actual_cli8analysis5typesNtB5_17FrameworkCategory20from_str_insensitive
FNDA:61,_RNvMs2_NtNtCs23MeGd5xNbL_10actual_cli8analysis5typesNtB5_17FrameworkCategory6as_str
FNDA:21,_RNvXs1_NtNtCs23MeGd5xNbL_10actual_cli8analysis5typesNtB5_8LanguageNtNtCsd2KPTObkMr_4core3fmt7Display3fmt
FNDA:1,_RNvNtNtNtCs23MeGd5xNbL_10actual_cli8analysis5types5testss_19language_round_trip
FNDA:1,_RNvNtNtNtCs23MeGd5xNbL_10actual_cli8analysis5types5testss_23deserialize_sample_json
FNDA:1,_RNvNtNtNtCs23MeGd5xNbL_10actual_cli8analysis5types5testss_29framework_category_round_trip
FNDA:1,_RNvNtNtNtCs23MeGd5xNbL_10actual_cli8analysis5types5testss_30language_display_matches_serde
FNDA:1,_RNvNtNtNtCs23MeGd5xNbL_10actual_cli8analysis5types5testss_30language_unknown_maps_to_other
FNDA:1,_RNvNtNtNtCs23MeGd5xNbL_10actual_cli8analysis5types5testss_32language_serializes_as_lowercase
FNDA:1,_RNvNtNtNtCs23MeGd5xNbL_10actual_cli8analysis5types5testss_32serialize_deserialize_round_trip
FNDA:1,_RNvNtNtNtCs23MeGd5xNbL_10actual_cli8analysis5types5testss_34deserialize_title_case_from_claude
FNDA:1,_RNvNtNtNtCs23MeGd5xNbL_10actual_cli8analysis5types5testss_35framework_category_other_round_trip
FNDA:1,_RNvNtNtNtCs23MeGd5xNbL_10actual_cli8analysis5types5testss_38language_deserializes_case_insensitive
FNDA:1,_RNvNtNtNtCs23MeGd5xNbL_10actual_cli8analysis5types5testss_40framework_category_unknown_maps_to_other
FNDA:1,_RNvNtNtNtCs23MeGd5xNbL_10actual_cli8analysis5types5testss_43framework_category_serializes_as_kebab_case
FNDA:1,_RNvNtNtNtCs23MeGd5xNbL_10actual_cli8analysis5types5testss_46framework_category_other_serializes_normalized
FNDA:1,_RNvNtNtNtCs23MeGd5xNbL_10actual_cli8analysis5types5testss_48framework_category_deserializes_case_insensitive
FNDA:1,_RINvXs0_NtNtCs23MeGd5xNbL_10actual_cli8analysis5typesNtB6_8LanguageNtNtCsjjJ2I7eriog_10serde_core2de11Deserialize11deserializeNtNtCsg9lTFOLt0QY_10serde_yaml5value5ValueEBa_
FNDA:64,_RINvXs0_NtNtCs23MeGd5xNbL_10actual_cli8analysis5typesNtB6_8LanguageNtNtCsjjJ2I7eriog_10serde_core2de11Deserialize11deserializeQINtNtCshA07nRiVXfX_10serde_json2de12DeserializerNtNtB26_4read7StrReadEEBa_
FNDA:0,_RINvXs0_NtNtCs23MeGd5xNbL_10actual_cli8analysis5typesNtB6_8LanguageNtNtCsjjJ2I7eriog_10serde_core2de11Deserialize11deserializeQINtNtCshA07nRiVXfX_10serde_json2de12DeserializerNtNtB26_4read9SliceReadEEBa_
FNDA:8,_RINvXs3_NtNtCs23MeGd5xNbL_10actual_cli8analysis5typesNtB6_17FrameworkCategoryNtNtCsjjJ2I7eriog_10serde_core3ser9Serialize9serializeNtNtNtCsg9lTFOLt0QY_10serde_yaml5value3ser10SerializerEBa_
FNDA:15,_RINvXs3_NtNtCs23MeGd5xNbL_10actual_cli8analysis5typesNtB6_17FrameworkCategoryNtNtCsjjJ2I7eriog_10serde_core3ser9Serialize9serializeNtNtNtCshA07nRiVXfX_10serde_json5value3ser10SerializerEBa_
FNDA:38,_RINvXs3_NtNtCs23MeGd5xNbL_10actual_cli8analysis5typesNtB6_17FrameworkCategoryNtNtCsjjJ2I7eriog_10serde_core3ser9Serialize9serializeQINtNtCshA07nRiVXfX_10serde_json3ser10SerializerQINtNtCs7fnLZwG9eJV_5alloc3vec3VechEEEBa_
FNDA:0,_RINvXs4_NtNtCs23MeGd5xNbL_10actual_cli8analysis5typesNtB6_17FrameworkCategoryNtNtCsjjJ2I7eriog_10serde_core2de11Deserialize11deserializeINtNvNtNtCs8RM9aDo56Ar_5serde7private2de13missing_field24MissingFieldDeserializerNtNtCsg9lTFOLt0QY_10serde_yaml5error5ErrorEEBa_
FNDA:0,_RINvXs4_NtNtCs23MeGd5xNbL_10actual_cli8analysis5typesNtB6_17FrameworkCategoryNtNtCsjjJ2I7eriog_10serde_core2de11Deserialize11deserializeINtNvNtNtCs8RM9aDo56Ar_5serde7private2de13missing_field24MissingFieldDeserializerNtNtCshA07nRiVXfX_10serde_json5error5ErrorEEBa_
FNDA:1,_RINvXs4_NtNtCs23MeGd5xNbL_10actual_cli8analysis5typesNtB6_17FrameworkCategoryNtNtCsjjJ2I7eriog_10serde_core2de11Deserialize11deserializeNtNtCsg9lTFOLt0QY_10serde_yaml5value5ValueEBa_
FNDA:59,_RINvXs4_NtNtCs23MeGd5xNbL_10actual_cli8analysis5typesNtB6_17FrameworkCategoryNtNtCsjjJ2I7eriog_10serde_core2de11Deserialize11deserializeQINtNtCshA07nRiVXfX_10serde_json2de12DeserializerNtNtB2g_4read7StrReadEEBa_
FNDA:0,_RINvXs4_NtNtCs23MeGd5xNbL_10actual_cli8analysis5typesNtB6_17FrameworkCategoryNtNtCsjjJ2I7eriog_10serde_core2de11Deserialize11deserializeQINtNtCshA07nRiVXfX_10serde_json2de12DeserializerNtNtB2g_4read9SliceReadEEBa_
FNDA:8,_RINvXs_NtNtCs23MeGd5xNbL_10actual_cli8analysis5typesNtB5_8LanguageNtNtCsjjJ2I7eriog_10serde_core3ser9Serialize9serializeNtNtNtCsg9lTFOLt0QY_10serde_yaml5value3ser10SerializerEB9_
FNDA:20,_RINvXs_NtNtCs23MeGd5xNbL_10actual_cli8analysis5typesNtB5_8LanguageNtNtCsjjJ2I7eriog_10serde_core3ser9Serialize9serializeNtNtNtCshA07nRiVXfX_10serde_json5value3ser10SerializerEB9_
FNDA:55,_RINvXs_NtNtCs23MeGd5xNbL_10actual_cli8analysis5typesNtB5_8LanguageNtNtCsjjJ2I7eriog_10serde_core3ser9Serialize9serializeQINtNtCshA07nRiVXfX_10serde_json3ser10SerializerQINtNtCs7fnLZwG9eJV_5alloc3vec3VechEEEB9_
FNDA:1344,_RNCNvMs2_NtNtCs23MeGd5xNbL_10actual_cli8analysis5typesNtB7_17FrameworkCategory20from_str_insensitive0Bb_
FNF:24
FNH:24
DA:50,153
DA:51,153
DA:52,22
DA:53,4
DA:54,4
DA:55,87
DA:56,3
DA:57,3
DA:58,3
DA:59,3
DA:60,3
DA:61,3
DA:62,3
DA:63,3
DA:64,3
DA:65,3
DA:66,3
DA:67,3
DA:69,153
DA:72,106
DA:73,106
DA:74,106
DA:75,86
DA:76,85
DA:77,83
DA:78,16
DA:79,15
DA:80,14
DA:81,13
DA:82,12
DA:83,11
DA:84,10
DA:85,9
DA:86,7
DA:87,5
DA:88,4
DA:89,3
DA:91,106
DA:95,132
DA:96,132
DA:97,132
DA:101,106
DA:102,106
DA:103,106
DA:104,106
DA:108,21
DA:109,21
DA:110,21
DA:145,67
DA:146,67
DA:147,11
DA:148,29
DA:149,1
DA:150,1
DA:151,2
DA:152,14
DA:153,1
DA:154,1
DA:155,1
DA:156,1
DA:157,2
DA:158,3
DA:160,67
DA:164,143
DA:165,143
DA:166,143
DA:167,143
DA:168,1404
DA:169,143
DA:171,143
DA:172,143
DA:173,110
DA:174,52
DA:175,51
DA:176,48
DA:177,44
DA:178,38
DA:179,33
DA:180,29
DA:181,23
DA:182,15
DA:183,6
DA:185,143
DA:189,67
DA:190,67
DA:191,67
DA:195,65
DA:196,65
DA:197,65
DA:198,65
DA:206,1
DA:207,1
DA:208,1
DA:209,1
DA:210,1
DA:211,1
DA:212,1
DA:213,1
DA:214,1
DA:215,1
DA:217,1
DA:218,1
DA:219,1
DA:221,1
DA:222,1
DA:223,1
DA:224,1
DA:225,1
DA:226,1
DA:227,1
DA:228,1
DA:231,1
DA:232,1
DA:233,1
DA:236,1
DA:238,1
DA:239,1
DA:240,1
DA:241,1
DA:242,1
DA:243,1
DA:244,1
DA:245,1
DA:246,1
DA:247,1
DA:248,1
DA:249,1
DA:251,1
DA:252,1
DA:253,1
DA:255,1
DA:257,1
DA:258,1
DA:261,1
DA:262,1
DA:265,1
DA:268,1
DA:269,1
DA:270,1
DA:271,1
DA:272,1
DA:273,1
DA:274,1
DA:275,1
DA:276,1
DA:277,1
DA:278,1
DA:279,1
DA:280,1
DA:281,1
DA:282,1
DA:283,1
DA:284,1
DA:285,1
DA:286,1
DA:287,1
DA:288,1
DA:290,1
DA:291,1
DA:293,1
DA:294,1
DA:296,1
DA:297,1
DA:298,1
DA:299,1
DA:300,1
DA:301,1
DA:302,1
DA:303,1
DA:304,1
DA:305,1
DA:307,1
DA:308,1
DA:309,1
DA:310,1
DA:312,1
DA:313,1
DA:314,1
DA:317,1
DA:319,1
DA:320,1
DA:321,1
DA:322,1
DA:323,1
DA:324,1
DA:325,1
DA:326,1
DA:327,1
DA:328,1
DA:329,1
DA:330,1
DA:331,1
DA:332,1
DA:333,1
DA:334,1
DA:335,1
DA:337,17
DA:338,16
DA:339,16
DA:340,16
DA:341,16
DA:343,0
DA:346,1
DA:349,1
DA:350,1
DA:351,1
DA:352,1
DA:355,1
DA:357,1
DA:358,1
DA:361,1
DA:362,1
DA:364,1
DA:365,1
DA:368,1
DA:369,1
DA:371,1
DA:372,1
DA:375,1
DA:376,1
DA:378,1
DA:379,1
DA:380,1
DA:383,1
DA:384,1
DA:385,1
DA:387,1
DA:388,1
DA:389,1
DA:392,1
DA:393,1
DA:394,1
DA:396,1
DA:397,1
DA:398,1
DA:401,1
DA:403,1
DA:404,1
DA:407,1
DA:408,1
DA:411,1
DA:412,1
DA:415,1
DA:416,1
DA:419,1
DA:420,1
DA:423,1
DA:424,1
DA:426,1
DA:427,1
DA:429,1
DA:430,1
DA:431,1
DA:434,1
DA:436,1
DA:437,1
DA:439,1
DA:440,1
DA:442,1
DA:443,1
DA:444,1
DA:447,1
DA:448,1
DA:449,1
DA:450,1
DA:451,1
DA:454,1
DA:456,1
DA:457,1
DA:458,1
DA:459,1
DA:462,1
DA:463,1
DA:464,1
DA:465,1
DA:466,1
DA:469,1
DA:470,1
DA:471,1
DA:472,1
DA:473,1
DA:474,1
DA:475,1
DA:476,1
DA:477,1
DA:478,1
DA:479,1
DA:480,1
DA:481,1
DA:482,1
DA:483,1
DA:484,1
DA:485,1
DA:486,1
DA:488,17
DA:489,16
DA:490,16
DA:491,16
DA:493,1
DA:496,1
DA:497,1
DA:498,1
DA:499,1
DA:500,1
DA:501,1
DA:502,1
DA:503,1
DA:504,1
DA:505,1
DA:506,1
DA:507,1
DA:508,1
DA:510,12
DA:511,11
DA:512,11
DA:513,11
DA:515,1
BRF:0
BRH:0
LF:318
LH:317
end_of_record
SF:/Users/poile/repos/actualai/actual-cli/.worktrees/2u6.4/src/api/client.rs
FN:81,_RNvMNtNtCs14eHuuW48ek_10actual_cli3api6clientNtB2_15ActualApiClient10get_health
FN:36,_RNvMNtNtCs14eHuuW48ek_10actual_cli3api6clientNtB2_15ActualApiClient10post_match
FN:48,_RNvMNtNtCs14eHuuW48ek_10actual_cli3api6clientNtB2_15ActualApiClient13get_languages
FN:70,_RNvMNtNtCs14eHuuW48ek_10actual_cli3api6clientNtB2_15ActualApiClient14get_categories
FN:59,_RNvMNtNtCs14eHuuW48ek_10actual_cli3api6clientNtB2_15ActualApiClient14get_frameworks
FN:92,_RNvMNtNtCs14eHuuW48ek_10actual_cli3api6clientNtB2_15ActualApiClient14post_telemetry
FN:21,_RNvMNtNtCs14eHuuW48ek_10actual_cli3api6clientNtB2_15ActualApiClient3new
FN:147,_RNvNtNtCs14eHuuW48ek_10actual_cli3api6client18serialize_language
FN:171,_RNvNtNtCs14eHuuW48ek_10actual_cli3api6client19build_match_request
FN:159,_RNvNtNtCs14eHuuW48ek_10actual_cli3api6client28serialize_framework_category
FN:88,_RNCNCNvMNtNtCs14eHuuW48ek_10actual_cli3api6clientNtB6_15ActualApiClient10get_health00Ba_
FN:55,_RNCNCNvMNtNtCs14eHuuW48ek_10actual_cli3api6clientNtB6_15ActualApiClient13get_languages00Ba_
FN:77,_RNCNCNvMNtNtCs14eHuuW48ek_10actual_cli3api6clientNtB6_15ActualApiClient14get_categories00Ba_
FN:66,_RNCNCNvMNtNtCs14eHuuW48ek_10actual_cli3api6clientNtB6_15ActualApiClient14get_frameworks00Ba_
FN:106,_RNCNCNvMNtNtCs14eHuuW48ek_10actual_cli3api6clientNtB6_15ActualApiClient14post_telemetry00Ba_
FN:81,_RNCNvMNtNtCs14eHuuW48ek_10actual_cli3api6clientNtB4_15ActualApiClient10get_health0B8_
FN:48,_RNCNvMNtNtCs14eHuuW48ek_10actual_cli3api6clientNtB4_15ActualApiClient13get_languages0B8_
FN:70,_RNCNvMNtNtCs14eHuuW48ek_10actual_cli3api6clientNtB4_15ActualApiClient14get_categories0B8_
FN:59,_RNCNvMNtNtCs14eHuuW48ek_10actual_cli3api6clientNtB4_15ActualApiClient14get_frameworks0B8_
FN:96,_RNCNvMNtNtCs14eHuuW48ek_10actual_cli3api6clientNtB4_15ActualApiClient14post_telemetry0B8_
FN:117,_RINvMNtNtCs14eHuuW48ek_10actual_cli3api6clientNtB3_15ActualApiClient15handle_responseNtNtB5_5types13MatchResponseEB7_
FN:119,_RNCINvMNtNtCs14eHuuW48ek_10actual_cli3api6clientNtB5_15ActualApiClient15handle_responseNtNtB7_5types13MatchResponseE0B9_
FN:125,_RNCNCINvMNtNtCs14eHuuW48ek_10actual_cli3api6clientNtB7_15ActualApiClient15handle_responseNtNtB9_5types13MatchResponseE00Bb_
FN:44,_RNCNCNvMNtNtCs14eHuuW48ek_10actual_cli3api6clientNtB6_15ActualApiClient10post_match00Ba_
FN:183,_RNCNCNvNtNtCs14eHuuW48ek_10actual_cli3api6client19build_match_request00B9_
FN:36,_RNCNvMNtNtCs14eHuuW48ek_10actual_cli3api6clientNtB4_15ActualApiClient10post_match0B8_
FN:176,_RNCNvNtNtCs14eHuuW48ek_10actual_cli3api6client19build_match_request0B7_
FN:792,_RNCNvNtNtNtCs23MeGd5xNbL_10actual_cli3api6client5testss_23test_get_health_success0B9_
FN:315,_RNCNvNtNtNtCs23MeGd5xNbL_10actual_cli3api6client5testss_23test_post_match_success0B9_
FN:814,_RNCNvNtNtNtCs23MeGd5xNbL_10actual_cli3api6client5testss_25test_get_health_api_error0B9_
FN:494,_RNCNvNtNtNtCs23MeGd5xNbL_10actual_cli3api6client5testss_26test_get_languages_success0B9_
FN:663,_RNCNvNtNtNtCs23MeGd5xNbL_10actual_cli3api6client5testss_27test_get_categories_success0B9_
FN:571,_RNCNvNtNtNtCs23MeGd5xNbL_10actual_cli3api6client5testss_27test_get_frameworks_success0B9_
FN:893,_RNCNvNtNtNtCs23MeGd5xNbL_10actual_cli3api6client5testss_27test_post_telemetry_success0B9_
FN:399,_RNCNvNtNtNtCs23MeGd5xNbL_10actual_cli3api6client5testss_27test_user_agent_header_sent0B9_
FN:837,_RNCNvNtNtNtCs23MeGd5xNbL_10actual_cli3api6client5testss_28test_get_health_server_error0B9_
FN:526,_RNCNvNtNtNtCs23MeGd5xNbL_10actual_cli3api6client5testss_28test_get_languages_api_error0B9_
FN:379,_RNCNvNtNtNtCs23MeGd5xNbL_10actual_cli3api6client5testss_28test_post_match_server_error0B9_
FN:747,_RNCNvNtNtNtCs23MeGd5xNbL_10actual_cli3api6client5testss_29test_get_categories_api_error0B9_
FN:618,_RNCNvNtNtNtCs23MeGd5xNbL_10actual_cli3api6client5testss_29test_get_frameworks_api_error0B9_
FN:883,_RNCNvNtNtNtCs23MeGd5xNbL_10actual_cli3api6client5testss_29test_get_health_network_error0B9_
FN:463,_RNCNvNtNtNtCs23MeGd5xNbL_10actual_cli3api6client5testss_29test_post_match_network_error0B9_
FN:549,_RNCNvNtNtNtCs23MeGd5xNbL_10actual_cli3api6client5testss_31test_get_languages_server_error0B9_
FN:770,_RNCNvNtNtNtCs23MeGd5xNbL_10actual_cli3api6client5testss_32test_get_categories_server_error0B9_
FN:641,_RNCNvNtNtNtCs23MeGd5xNbL_10actual_cli3api6client5testss_32test_get_frameworks_server_error0B9_
FN:859,_RNCNvNtNtNtCs23MeGd5xNbL_10actual_cli3api6client5testss_32test_get_languages_network_error0B9_
FN:911,_RNCNvNtNtNtCs23MeGd5xNbL_10actual_cli3api6client5testss_32test_post_telemetry_server_error0B9_
FN:875,_RNCNvNtNtNtCs23MeGd5xNbL_10actual_cli3api6client5testss_33test_get_categories_network_error0B9_
FN:867,_RNCNvNtNtNtCs23MeGd5xNbL_10actual_cli3api6client5testss_33test_get_frameworks_network_error0B9_
FN:931,_RNCNvNtNtNtCs23MeGd5xNbL_10actual_cli3api6client5testss_33test_post_telemetry_network_error0B9_
FN:357,_RNCNvNtNtNtCs23MeGd5xNbL_10actual_cli3api6client5testss_34test_post_match_api_error_response0B9_
FN:442,_RNCNvNtNtNtCs23MeGd5xNbL_10actual_cli3api6client5testss_44test_post_match_success_unparseable_response0B9_
FN:422,_RNCNvNtNtNtCs23MeGd5xNbL_10actual_cli3api6client5testss_45test_post_match_client_error_unparseable_body0B9_
FN:81,_RNvMNtNtCs23MeGd5xNbL_10actual_cli3api6clientNtB2_15ActualApiClient10get_health
FN:36,_RNvMNtNtCs23MeGd5xNbL_10actual_cli3api6clientNtB2_15ActualApiClient10post_match
FN:48,_RNvMNtNtCs23MeGd5xNbL_10actual_cli3api6clientNtB2_15ActualApiClient13get_languages
FN:70,_RNvMNtNtCs23MeGd5xNbL_10actual_cli3api6clientNtB2_15ActualApiClient14get_categories
FN:59,_RNvMNtNtCs23MeGd5xNbL_10actual_cli3api6clientNtB2_15ActualApiClient14get_frameworks
FN:92,_RNvMNtNtCs23MeGd5xNbL_10actual_cli3api6clientNtB2_15ActualApiClient14post_telemetry
FN:21,_RNvMNtNtCs23MeGd5xNbL_10actual_cli3api6clientNtB2_15ActualApiClient3new
FN:147,_RNvNtNtCs23MeGd5xNbL_10actual_cli3api6client18serialize_language
FN:171,_RNvNtNtCs23MeGd5xNbL_10actual_cli3api6client19build_match_request
FN:159,_RNvNtNtCs23MeGd5xNbL_10actual_cli3api6client28serialize_framework_category
FN:117,_RINvMNtNtCs23MeGd5xNbL_10actual_cli3api6clientNtB3_15ActualApiClient15handle_responseNtNtB5_5types13MatchResponseEB7_
FN:117,_RINvMNtNtCs23MeGd5xNbL_10actual_cli3api6clientNtB3_15ActualApiClient15handle_responseNtNtB5_5types14HealthResponseEB7_
FN:117,_RINvMNtNtCs23MeGd5xNbL_10actual_cli3api6clientNtB3_15ActualApiClient15handle_responseNtNtB5_5types17LanguagesResponseEB7_
FN:117,_RINvMNtNtCs23MeGd5xNbL_10actual_cli3api6clientNtB3_15ActualApiClient15handle_responseNtNtB5_5types18CategoriesResponseEB7_
FN:117,_RINvMNtNtCs23MeGd5xNbL_10actual_cli3api6clientNtB3_15ActualApiClient15handle_responseNtNtB5_5types18FrameworksResponseEB7_
FN:119,_RNCINvMNtNtCs23MeGd5xNbL_10actual_cli3api6clientNtB5_15ActualApiClient15handle_responseNtNtB7_5types13MatchResponseE0B9_
FN:119,_RNCINvMNtNtCs23MeGd5xNbL_10actual_cli3api6clientNtB5_15ActualApiClient15handle_responseNtNtB7_5types14HealthResponseE0B9_
FN:119,_RNCINvMNtNtCs23MeGd5xNbL_10actual_cli3api6clientNtB5_15ActualApiClient15handle_responseNtNtB7_5types17LanguagesResponseE0B9_
FN:119,_RNCINvMNtNtCs23MeGd5xNbL_10actual_cli3api6clientNtB5_15ActualApiClient15handle_responseNtNtB7_5types18CategoriesResponseE0B9_
FN:119,_RNCINvMNtNtCs23MeGd5xNbL_10actual_cli3api6clientNtB5_15ActualApiClient15handle_responseNtNtB7_5types18FrameworksResponseE0B9_
FN:125,_RNCNCINvMNtNtCs23MeGd5xNbL_10actual_cli3api6clientNtB7_15ActualApiClient15handle_responseNtNtB9_5types13MatchResponseE00Bb_
FN:125,_RNCNCINvMNtNtCs23MeGd5xNbL_10actual_cli3api6clientNtB7_15ActualApiClient15handle_responseNtNtB9_5types14HealthResponseE00Bb_
FN:125,_RNCNCINvMNtNtCs23MeGd5xNbL_10actual_cli3api6clientNtB7_15ActualApiClient15handle_responseNtNtB9_5types17LanguagesResponseE00Bb_
FN:125,_RNCNCINvMNtNtCs23MeGd5xNbL_10actual_cli3api6clientNtB7_15ActualApiClient15handle_responseNtNtB9_5types18CategoriesResponseE00Bb_
FN:125,_RNCNCINvMNtNtCs23MeGd5xNbL_10actual_cli3api6clientNtB7_15ActualApiClient15handle_responseNtNtB9_5types18FrameworksResponseE00Bb_
FN:88,_RNCNCNvMNtNtCs23MeGd5xNbL_10actual_cli3api6clientNtB6_15ActualApiClient10get_health00Ba_
FN:44,_RNCNCNvMNtNtCs23MeGd5xNbL_10actual_cli3api6clientNtB6_15ActualApiClient10post_match00Ba_
FN:55,_RNCNCNvMNtNtCs23MeGd5xNbL_10actual_cli3api6clientNtB6_15ActualApiClient13get_languages00Ba_
FN:77,_RNCNCNvMNtNtCs23MeGd5xNbL_10actual_cli3api6clientNtB6_15ActualApiClient14get_categories00Ba_
FN:66,_RNCNCNvMNtNtCs23MeGd5xNbL_10actual_cli3api6clientNtB6_15ActualApiClient14get_frameworks00Ba_
FN:106,_RNCNCNvMNtNtCs23MeGd5xNbL_10actual_cli3api6clientNtB6_15ActualApiClient14post_telemetry00Ba_
FN:183,_RNCNCNvNtNtCs23MeGd5xNbL_10actual_cli3api6client19build_match_request00B9_
FN:81,_RNCNvMNtNtCs23MeGd5xNbL_10actual_cli3api6clientNtB4_15ActualApiClient10get_health0B8_
FN:36,_RNCNvMNtNtCs23MeGd5xNbL_10actual_cli3api6clientNtB4_15ActualApiClient10post_match0B8_
FN:48,_RNCNvMNtNtCs23MeGd5xNbL_10actual_cli3api6clientNtB4_15ActualApiClient13get_languages0B8_
FN:70,_RNCNvMNtNtCs23MeGd5xNbL_10actual_cli3api6clientNtB4_15ActualApiClient14get_categories0B8_
FN:59,_RNCNvMNtNtCs23MeGd5xNbL_10actual_cli3api6clientNtB4_15ActualApiClient14get_frameworks0B8_
FN:96,_RNCNvMNtNtCs23MeGd5xNbL_10actual_cli3api6clientNtB4_15ActualApiClient14post_telemetry0B8_
FN:176,_RNCNvNtNtCs23MeGd5xNbL_10actual_cli3api6client19build_match_request0B7_
FN:213,_RNvNtNtNtCs23MeGd5xNbL_10actual_cli3api6client5tests12make_project
FN:299,_RNvNtNtNtCs23MeGd5xNbL_10actual_cli3api6client5tests20sample_match_request
FN:482,_RNvNtNtNtCs23MeGd5xNbL_10actual_cli3api6client5testss_20test_default_api_url
FN:487,_RNvNtNtNtCs23MeGd5xNbL_10actual_cli3api6client5testss_21test_user_agent_value
FN:792,_RNvNtNtNtCs23MeGd5xNbL_10actual_cli3api6client5testss_23test_get_health_success
FN:315,_RNvNtNtNtCs23MeGd5xNbL_10actual_cli3api6client5testss_23test_post_match_success
FN:814,_RNvNtNtNtCs23MeGd5xNbL_10actual_cli3api6client5testss_25test_get_health_api_error
FN:494,_RNvNtNtNtCs23MeGd5xNbL_10actual_cli3api6client5testss_26test_get_languages_success
FN:663,_RNvNtNtNtCs23MeGd5xNbL_10actual_cli3api6client5testss_27test_get_categories_success
FN:571,_RNvNtNtNtCs23MeGd5xNbL_10actual_cli3api6client5testss_27test_get_frameworks_success
FN:893,_RNvNtNtNtCs23MeGd5xNbL_10actual_cli3api6client5testss_27test_post_telemetry_success
FN:399,_RNvNtNtNtCs23MeGd5xNbL_10actual_cli3api6client5testss_27test_user_agent_header_sent
FN:837,_RNvNtNtNtCs23MeGd5xNbL_10actual_cli3api6client5testss_28test_get_health_server_error
FN:526,_RNvNtNtNtCs23MeGd5xNbL_10actual_cli3api6client5testss_28test_get_languages_api_error
FN:230,_RNvNtNtNtCs23MeGd5xNbL_10actual_cli3api6client5testss_28test_monorepo_three_projects
FN:379,_RNvNtNtNtCs23MeGd5xNbL_10actual_cli3api6client5testss_28test_post_match_server_error
FN:747,_RNvNtNtNtCs23MeGd5xNbL_10actual_cli3api6client5testss_29test_get_categories_api_error
FN:618,_RNvNtNtNtCs23MeGd5xNbL_10actual_cli3api6client5testss_29test_get_frameworks_api_error
FN:883,_RNvNtNtNtCs23MeGd5xNbL_10actual_cli3api6client5testss_29test_get_health_network_error
FN:477,_RNvNtNtNtCs23MeGd5xNbL_10actual_cli3api6client5testss_29test_new_returns_valid_client
FN:471,_RNvNtNtNtCs23MeGd5xNbL_10actual_cli3api6client5testss_29test_new_trims_trailing_slash
FN:463,_RNvNtNtNtCs23MeGd5xNbL_10actual_cli3api6client5testss_29test_post_match_network_error
FN:549,_RNvNtNtNtCs23MeGd5xNbL_10actual_cli3api6client5testss_31test_get_languages_server_error
FN:266,_RNvNtNtNtCs23MeGd5xNbL_10actual_cli3api6client5testss_32test_default_config_options_none
FN:770,_RNvNtNtNtCs23MeGd5xNbL_10actual_cli3api6client5testss_32test_get_categories_server_error
FN:641,_RNvNtNtNtCs23MeGd5xNbL_10actual_cli3api6client5testss_32test_get_frameworks_server_error
FN:859,_RNvNtNtNtCs23MeGd5xNbL_10actual_cli3api6client5testss_32test_get_languages_network_error
FN:911,_RNvNtNtNtCs23MeGd5xNbL_10actual_cli3api6client5testss_32test_post_telemetry_server_error
FN:875,_RNvNtNtNtCs23MeGd5xNbL_10actual_cli3api6client5testss_33test_get_categories_network_error
FN:867,_RNvNtNtNtCs23MeGd5xNbL_10actual_cli3api6client5testss_33test_get_frameworks_network_error
FN:931,_RNvNtNtNtCs23MeGd5xNbL_10actual_cli3api6client5testss_33test_post_telemetry_network_error
FN:357,_RNvNtNtNtCs23MeGd5xNbL_10actual_cli3api6client5testss_34test_post_match_api_error_response
FN:245,_RNvNtNtNtCs23MeGd5xNbL_10actual_cli3api6client5testss_35test_config_with_include_categories
FN:442,_RNvNtNtNtCs23MeGd5xNbL_10actual_cli3api6client5testss_44test_post_match_success_unparseable_response
FN:277,_RNvNtNtNtCs23MeGd5xNbL_10actual_cli3api6client5testss_45test_language_typescript_serializes_correctly
FN:422,_RNvNtNtNtCs23MeGd5xNbL_10actual_cli3api6client5testss_45test_post_match_client_error_unparseable_body
FNDA:0,_RNvMNtNtCs14eHuuW48ek_10actual_cli3api6clientNtB2_15ActualApiClient10get_health
FNDA:35,_RNvMNtNtCs14eHuuW48ek_10actual_cli3api6clientNtB2_15ActualApiClient10post_match
FNDA:0,_RNvMNtNtCs14eHuuW48ek_10actual_cli3api6clientNtB2_15ActualApiClient13get_languages
FNDA:0,_RNvMNtNtCs14eHuuW48ek_10actual_cli3api6clientNtB2_15ActualApiClient14get_categories
FNDA:0,_RNvMNtNtCs14eHuuW48ek_10actual_cli3api6clientNtB2_15ActualApiClient14get_frameworks
FNDA:0,_RNvMNtNtCs14eHuuW48ek_10actual_cli3api6clientNtB2_15ActualApiClient14post_telemetry
FNDA:31,_RNvMNtNtCs14eHuuW48ek_10actual_cli3api6clientNtB2_15ActualApiClient3new
FNDA:37,_RNvNtNtCs14eHuuW48ek_10actual_cli3api6client18serialize_language
FNDA:31,_RNvNtNtCs14eHuuW48ek_10actual_cli3api6client19build_match_request
FNDA:5,_RNvNtNtCs14eHuuW48ek_10actual_cli3api6client28serialize_framework_category
FNDA:0,_RNCNCNvMNtNtCs14eHuuW48ek_10actual_cli3api6clientNtB6_15ActualApiClient10get_health00Ba_
FNDA:0,_RNCNCNvMNtNtCs14eHuuW48ek_10actual_cli3api6clientNtB6_15ActualApiClient13get_languages00Ba_
FNDA:0,_RNCNCNvMNtNtCs14eHuuW48ek_10actual_cli3api6clientNtB6_15ActualApiClient14get_categories00Ba_
FNDA:0,_RNCNCNvMNtNtCs14eHuuW48ek_10actual_cli3api6clientNtB6_15ActualApiClient14get_frameworks00Ba_
FNDA:0,_RNCNCNvMNtNtCs14eHuuW48ek_10actual_cli3api6clientNtB6_15ActualApiClient14post_telemetry00Ba_
FNDA:0,_RNCNvMNtNtCs14eHuuW48ek_10actual_cli3api6clientNtB4_15ActualApiClient10get_health0B8_
FNDA:0,_RNCNvMNtNtCs14eHuuW48ek_10actual_cli3api6clientNtB4_15ActualApiClient13get_languages0B8_
FNDA:0,_RNCNvMNtNtCs14eHuuW48ek_10actual_cli3api6clientNtB4_15ActualApiClient14get_categories0B8_
FNDA:0,_RNCNvMNtNtCs14eHuuW48ek_10actual_cli3api6clientNtB4_15ActualApiClient14get_frameworks0B8_
FNDA:0,_RNCNvMNtNtCs14eHuuW48ek_10actual_cli3api6clientNtB4_15ActualApiClient14post_telemetry0B8_
FNDA:32,_RINvMNtNtCs14eHuuW48ek_10actual_cli3api6clientNtB3_15ActualApiClient15handle_responseNtNtB5_5types13MatchResponseEB7_
FNDA:32,_RNCINvMNtNtCs14eHuuW48ek_10actual_cli3api6clientNtB5_15ActualApiClient15handle_responseNtNtB7_5types13MatchResponseE0B9_
FNDA:0,_RNCNCINvMNtNtCs14eHuuW48ek_10actual_cli3api6clientNtB7_15ActualApiClient15handle_responseNtNtB9_5types13MatchResponseE00Bb_
FNDA:3,_RNCNCNvMNtNtCs14eHuuW48ek_10actual_cli3api6clientNtB6_15ActualApiClient10post_match00Ba_
FNDA:5,_RNCNCNvNtNtCs14eHuuW48ek_10actual_cli3api6client19build_match_request00B9_
FNDA:35,_RNCNvMNtNtCs14eHuuW48ek_10actual_cli3api6clientNtB4_15ActualApiClient10post_match0B8_
FNDA:37,_RNCNvNtNtCs14eHuuW48ek_10actual_cli3api6client19build_match_request0B7_
FNDA:1,_RNCNvNtNtNtCs23MeGd5xNbL_10actual_cli3api6client5testss_23test_get_health_success0B9_
FNDA:1,_RNCNvNtNtNtCs23MeGd5xNbL_10actual_cli3api6client5testss_23test_post_match_success0B9_
FNDA:1,_RNCNvNtNtNtCs23MeGd5xNbL_10actual_cli3api6client5testss_25test_get_health_api_error0B9_
FNDA:1,_RNCNvNtNtNtCs23MeGd5xNbL_10actual_cli3api6client5testss_26test_get_languages_success0B9_
FNDA:1,_RNCNvNtNtNtCs23MeGd5xNbL_10actual_cli3api6client5testss_27test_get_categories_success0B9_
FNDA:1,_RNCNvNtNtNtCs23MeGd5xNbL_10actual_cli3api6client5testss_27test_get_frameworks_success0B9_
FNDA:1,_RNCNvNtNtNtCs23MeGd5xNbL_10actual_cli3api6client5testss_27test_post_telemetry_success0B9_
FNDA:1,_RNCNvNtNtNtCs23MeGd5xNbL_10actual_cli3api6client5testss_27test_user_agent_header_sent0B9_
FNDA:1,_RNCNvNtNtNtCs23MeGd5xNbL_10actual_cli3api6client5testss_28test_get_health_server_error0B9_
FNDA:1,_RNCNvNtNtNtCs23MeGd5xNbL_10actual_cli3api6client5testss_28test_get_languages_api_error0B9_
FNDA:1,_RNCNvNtNtNtCs23MeGd5xNbL_10actual_cli3api6client5testss_28test_post_match_server_error0B9_
FNDA:1,_RNCNvNtNtNtCs23MeGd5xNbL_10actual_cli3api6client5testss_29test_get_categories_api_error0B9_
FNDA:1,_RNCNvNtNtNtCs23MeGd5xNbL_10actual_cli3api6client5testss_29test_get_frameworks_api_error0B9_
FNDA:1,_RNCNvNtNtNtCs23MeGd5xNbL_10actual_cli3api6client5testss_29test_get_health_network_error0B9_
FNDA:1,_RNCNvNtNtNtCs23MeGd5xNbL_10actual_cli3api6client5testss_29test_post_match_network_error0B9_
FNDA:1,_RNCNvNtNtNtCs23MeGd5xNbL_10actual_cli3api6client5testss_31test_get_languages_server_error0B9_
FNDA:1,_RNCNvNtNtNtCs23MeGd5xNbL_10actual_cli3api6client5testss_32test_get_categories_server_error0B9_
FNDA:1,_RNCNvNtNtNtCs23MeGd5xNbL_10actual_cli3api6client5testss_32test_get_frameworks_server_error0B9_
FNDA:1,_RNCNvNtNtNtCs23MeGd5xNbL_10actual_cli3api6client5testss_32test_get_languages_network_error0B9_
FNDA:1,_RNCNvNtNtNtCs23MeGd5xNbL_10actual_cli3api6client5testss_32test_post_telemetry_server_error0B9_
FNDA:1,_RNCNvNtNtNtCs23MeGd5xNbL_10actual_cli3api6client5testss_33test_get_categories_network_error0B9_
FNDA:1,_RNCNvNtNtNtCs23MeGd5xNbL_10actual_cli3api6client5testss_33test_get_frameworks_network_error0B9_
FNDA:1,_RNCNvNtNtNtCs23MeGd5xNbL_10actual_cli3api6client5testss_33test_post_telemetry_network_error0B9_
FNDA:1,_RNCNvNtNtNtCs23MeGd5xNbL_10actual_cli3api6client5testss_34test_post_match_api_error_response0B9_
FNDA:1,_RNCNvNtNtNtCs23MeGd5xNbL_10actual_cli3api6client5testss_44test_post_match_success_unparseable_response0B9_
FNDA:1,_RNCNvNtNtNtCs23MeGd5xNbL_10actual_cli3api6client5testss_45test_post_match_client_error_unparseable_body0B9_
FNDA:4,_RNvMNtNtCs23MeGd5xNbL_10actual_cli3api6clientNtB2_15ActualApiClient10get_health
FNDA:23,_RNvMNtNtCs23MeGd5xNbL_10actual_cli3api6clientNtB2_15ActualApiClient10post_match
FNDA:4,_RNvMNtNtCs23MeGd5xNbL_10actual_cli3api6clientNtB2_15ActualApiClient13get_languages
FNDA:4,_RNvMNtNtCs23MeGd5xNbL_10actual_cli3api6clientNtB2_15ActualApiClient14get_categories
FNDA:4,_RNvMNtNtCs23MeGd5xNbL_10actual_cli3api6clientNtB2_15ActualApiClient14get_frameworks
FNDA:5,_RNvMNtNtCs23MeGd5xNbL_10actual_cli3api6clientNtB2_15ActualApiClient14post_telemetry
FNDA:44,_RNvMNtNtCs23MeGd5xNbL_10actual_cli3api6clientNtB2_15ActualApiClient3new
FNDA:20,_RNvNtNtCs23MeGd5xNbL_10actual_cli3api6client18serialize_language
FNDA:18,_RNvNtNtCs23MeGd5xNbL_10actual_cli3api6client19build_match_request
FNDA:15,_RNvNtNtCs23MeGd5xNbL_10actual_cli3api6client28serialize_framework_category
FNDA:22,_RINvMNtNtCs23MeGd5xNbL_10actual_cli3api6clientNtB3_15ActualApiClient15handle_responseNtNtB5_5types13MatchResponseEB7_
FNDA:3,_RINvMNtNtCs23MeGd5xNbL_10actual_cli3api6clientNtB3_15ActualApiClient15handle_responseNtNtB5_5types14HealthResponseEB7_
FNDA:3,_RINvMNtNtCs23MeGd5xNbL_10actual_cli3api6clientNtB3_15ActualApiClient15handle_responseNtNtB5_5types17LanguagesResponseEB7_
FNDA:3,_RINvMNtNtCs23MeGd5xNbL_10actual_cli3api6clientNtB3_15ActualApiClient15handle_responseNtNtB5_5types18CategoriesResponseEB7_
FNDA:3,_RINvMNtNtCs23MeGd5xNbL_10actual_cli3api6clientNtB3_15ActualApiClient15handle_responseNtNtB5_5types18FrameworksResponseEB7_
FNDA:22,_RNCINvMNtNtCs23MeGd5xNbL_10actual_cli3api6clientNtB5_15ActualApiClient15handle_responseNtNtB7_5types13MatchResponseE0B9_
FNDA:3,_RNCINvMNtNtCs23MeGd5xNbL_10actual_cli3api6clientNtB5_15ActualApiClient15handle_responseNtNtB7_5types14HealthResponseE0B9_
FNDA:3,_RNCINvMNtNtCs23MeGd5xNbL_10actual_cli3api6clientNtB5_15ActualApiClient15handle_responseNtNtB7_5types17LanguagesResponseE0B9_
FNDA:3,_RNCINvMNtNtCs23MeGd5xNbL_10actual_cli3api6clientNtB5_15ActualApiClient15handle_responseNtNtB7_5types18CategoriesResponseE0B9_
FNDA:3,_RNCINvMNtNtCs23MeGd5xNbL_10actual_cli3api6clientNtB5_15ActualApiClient15handle_responseNtNtB7_5types18FrameworksResponseE0B9_
FNDA:1,_RNCNCINvMNtNtCs23MeGd5xNbL_10actual_cli3api6clientNtB7_15ActualApiClient15handle_responseNtNtB9_5types13MatchResponseE00Bb_
FNDA:0,_RNCNCINvMNtNtCs23MeGd5xNbL_10actual_cli3api6clientNtB7_15ActualApiClient15handle_responseNtNtB9_5types14HealthResponseE00Bb_
FNDA:0,_RNCNCINvMNtNtCs23MeGd5xNbL_10actual_cli3api6clientNtB7_15ActualApiClient15handle_responseNtNtB9_5types17LanguagesResponseE00Bb_
FNDA:0,_RNCNCINvMNtNtCs23MeGd5xNbL_10actual_cli3api6clientNtB7_15ActualApiClient15handle_responseNtNtB9_5types18CategoriesResponseE00Bb_
FNDA:0,_RNCNCINvMNtNtCs23MeGd5xNbL_10actual_cli3api6clientNtB7_15ActualApiClient15handle_responseNtNtB9_5types18FrameworksResponseE00Bb_
FNDA:1,_RNCNCNvMNtNtCs23MeGd5xNbL_10actual_cli3api6clientNtB6_15ActualApiClient10get_health00Ba_
FNDA:1,_RNCNCNvMNtNtCs23MeGd5xNbL_10actual_cli3api6clientNtB6_15ActualApiClient10post_match00Ba_
FNDA:1,_RNCNCNvMNtNtCs23MeGd5xNbL_10actual_cli3api6clientNtB6_15ActualApiClient13get_languages00Ba_
FNDA:1,_RNCNCNvMNtNtCs23MeGd5xNbL_10actual_cli3api6clientNtB6_15ActualApiClient14get_categories00Ba_
FNDA:1,_RNCNCNvMNtNtCs23MeGd5xNbL_10actual_cli3api6clientNtB6_15ActualApiClient14get_frameworks00Ba_
FNDA:2,_RNCNCNvMNtNtCs23MeGd5xNbL_10actual_cli3api6clientNtB6_15ActualApiClient14post_telemetry00Ba_
FNDA:15,_RNCNCNvNtNtCs23MeGd5xNbL_10actual_cli3api6client19build_match_request00B9_
FNDA:4,_RNCNvMNtNtCs23MeGd5xNbL_10actual_cli3api6clientNtB4_15ActualApiClient10get_health0B8_
FNDA:23,_RNCNvMNtNtCs23MeGd5xNbL_10actual_cli3api6clientNtB4_15ActualApiClient10post_match0B8_
FNDA:4,_RNCNvMNtNtCs23MeGd5xNbL_10actual_cli3api6clientNtB4_15ActualApiClient13get_languages0B8_
FNDA:4,_RNCNvMNtNtCs23MeGd5xNbL_10actual_cli3api6clientNtB4_15ActualApiClient14get_categories0B8_
FNDA:4,_RNCNvMNtNtCs23MeGd5xNbL_10actual_cli3api6clientNtB4_15ActualApiClient14get_frameworks0B8_
FNDA:5,_RNCNvMNtNtCs23MeGd5xNbL_10actual_cli3api6clientNtB4_15ActualApiClient14post_telemetry0B8_
FNDA:20,_RNCNvNtNtCs23MeGd5xNbL_10actual_cli3api6client19build_match_request0B7_
FNDA:6,_RNvNtNtNtCs23MeGd5xNbL_10actual_cli3api6client5tests12make_project
FNDA:7,_RNvNtNtNtCs23MeGd5xNbL_10actual_cli3api6client5tests20sample_match_request
FNDA:1,_RNvNtNtNtCs23MeGd5xNbL_10actual_cli3api6client5testss_20test_default_api_url
FNDA:1,_RNvNtNtNtCs23MeGd5xNbL_10actual_cli3api6client5testss_21test_user_agent_value
FNDA:1,_RNvNtNtNtCs23MeGd5xNbL_10actual_cli3api6client5testss_23test_get_health_success
FNDA:1,_RNvNtNtNtCs23MeGd5xNbL_10actual_cli3api6client5testss_23test_post_match_success
FNDA:1,_RNvNtNtNtCs23MeGd5xNbL_10actual_cli3api6client5testss_25test_get_health_api_error
FNDA:1,_RNvNtNtNtCs23MeGd5xNbL_10actual_cli3api6client5testss_26test_get_languages_success
FNDA:1,_RNvNtNtNtCs23MeGd5xNbL_10actual_cli3api6client5testss_27test_get_categories_success
FNDA:1,_RNvNtNtNtCs23MeGd5xNbL_10actual_cli3api6client5testss_27test_get_frameworks_success
FNDA:1,_RNvNtNtNtCs23MeGd5xNbL_10actual_cli3api6client5testss_27test_post_telemetry_success
FNDA:1,_RNvNtNtNtCs23MeGd5xNbL_10actual_cli3api6client5testss_27test_user_agent_header_sent
FNDA:1,_RNvNtNtNtCs23MeGd5xNbL_10actual_cli3api6client5testss_28test_get_health_server_error
FNDA:1,_RNvNtNtNtCs23MeGd5xNbL_10actual_cli3api6client5testss_28test_get_languages_api_error
FNDA:1,_RNvNtNtNtCs23MeGd5xNbL_10actual_cli3api6client5testss_28test_monorepo_three_projects
FNDA:1,_RNvNtNtNtCs23MeGd5xNbL_10actual_cli3api6client5testss_28test_post_match_server_error
FNDA:1,_RNvNtNtNtCs23MeGd5xNbL_10actual_cli3api6client5testss_29test_get_categories_api_error
FNDA:1,_RNvNtNtNtCs23MeGd5xNbL_10actual_cli3api6client5testss_29test_get_frameworks_api_error
FNDA:1,_RNvNtNtNtCs23MeGd5xNbL_10actual_cli3api6client5testss_29test_get_health_network_error
FNDA:1,_RNvNtNtNtCs23MeGd5xNbL_10actual_cli3api6client5testss_29test_new_returns_valid_client
FNDA:1,_RNvNtNtNtCs23MeGd5xNbL_10actual_cli3api6client5testss_29test_new_trims_trailing_slash
FNDA:1,_RNvNtNtNtCs23MeGd5xNbL_10actual_cli3api6client5testss_29test_post_match_network_error
FNDA:1,_RNvNtNtNtCs23MeGd5xNbL_10actual_cli3api6client5testss_31test_get_languages_server_error
FNDA:1,_RNvNtNtNtCs23MeGd5xNbL_10actual_cli3api6client5testss_32test_default_config_options_none
FNDA:1,_RNvNtNtNtCs23MeGd5xNbL_10actual_cli3api6client5testss_32test_get_categories_server_error
FNDA:1,_RNvNtNtNtCs23MeGd5xNbL_10actual_cli3api6client5testss_32test_get_frameworks_server_error
FNDA:1,_RNvNtNtNtCs23MeGd5xNbL_10actual_cli3api6client5testss_32test_get_languages_network_error
FNDA:1,_RNvNtNtNtCs23MeGd5xNbL_10actual_cli3api6client5testss_32test_post_telemetry_server_error
FNDA:1,_RNvNtNtNtCs23MeGd5xNbL_10actual_cli3api6client5testss_33test_get_categories_network_error
FNDA:1,_RNvNtNtNtCs23MeGd5xNbL_10actual_cli3api6client5testss_33test_get_frameworks_network_error
FNDA:1,_RNvNtNtNtCs23MeGd5xNbL_10actual_cli3api6client5testss_33test_post_telemetry_network_error
FNDA:1,_RNvNtNtNtCs23MeGd5xNbL_10actual_cli3api6client5testss_34test_post_match_api_error_response
FNDA:1,_RNvNtNtNtCs23MeGd5xNbL_10actual_cli3api6client5testss_35test_config_with_include_categories
FNDA:1,_RNvNtNtNtCs23MeGd5xNbL_10actual_cli3api6client5testss_44test_post_match_success_unparseable_response
FNDA:1,_RNvNtNtNtCs23MeGd5xNbL_10actual_cli3api6client5testss_45test_language_typescript_serializes_correctly
FNDA:1,_RNvNtNtNtCs23MeGd5xNbL_10actual_cli3api6client5testss_45test_post_match_client_error_unparseable_body
FNF:89
FNH:89
DA:21,75
DA:22,75
DA:23,75
DA:25,75
DA:26,75
DA:27,75
DA:28,75
DA:30,75
DA:31,75
DA:32,75
DA:33,75
DA:34,75
DA:36,58
DA:37,58
DA:38,58
DA:39,58
DA:40,58
DA:41,58
DA:42,58
DA:43,58
DA:44,58
DA:45,54
DA:46,58
DA:48,4
DA:49,4
DA:50,4
DA:51,4
DA:52,4
DA:53,4
DA:54,4
DA:55,4
DA:56,3
DA:57,4
DA:59,4
DA:60,4
DA:61,4
DA:62,4
DA:63,4
DA:64,4
DA:65,4
DA:66,4
DA:67,3
DA:68,4
DA:70,4
DA:71,4
DA:72,4
DA:73,4
DA:74,4
DA:75,4
DA:76,4
DA:77,4
DA:78,3
DA:79,4
DA:81,4
DA:82,4
DA:83,4
DA:84,4
DA:85,4
DA:86,4
DA:87,4
DA:88,4
DA:89,3
DA:90,4
DA:92,5
DA:93,5
DA:94,5
DA:95,5
DA:96,5
DA:97,5
DA:98,5
DA:99,5
DA:100,5
DA:101,5
DA:102,5
DA:103,5
DA:104,5
DA:105,5
DA:106,5
DA:108,3
DA:109,2
DA:111,1
DA:112,1
DA:113,1
DA:115,5
DA:117,66
DA:118,66
DA:119,66
DA:120,66
DA:121,66
DA:122,48
DA:123,48
DA:124,48
DA:125,48
DA:126,18
DA:127,7
DA:128,6
DA:129,6
DA:130,6
DA:131,6
DA:132,1
DA:133,1
DA:134,1
DA:137,11
DA:138,11
DA:140,66
DA:147,57
DA:148,57
DA:149,57
DA:150,57
DA:151,57
DA:152,57
DA:153,57
DA:159,20
DA:160,20
DA:161,20
DA:162,20
DA:163,20
DA:164,20
DA:165,20
DA:171,49
DA:172,49
DA:173,49
DA:174,49
DA:175,49
DA:176,57
DA:177,57
DA:178,57
DA:179,57
DA:180,57
DA:181,57
DA:182,57
DA:183,20
DA:184,20
DA:185,20
DA:186,57
DA:187,57
DA:188,49
DA:190,49
DA:191,48
DA:192,48
DA:194,1
DA:195,1
DA:196,1
DA:197,1
DA:198,1
DA:199,1
DA:201,48
DA:204,49
DA:205,49
DA:213,6
DA:214,6
DA:215,6
DA:216,6
DA:217,6
DA:218,6
DA:219,6
DA:220,6
DA:221,6
DA:222,6
DA:223,6
DA:224,6
DA:225,6
DA:226,6
DA:227,6
DA:230,1
DA:231,1
DA:232,1
DA:233,1
DA:234,1
DA:235,1
DA:236,1
DA:237,1
DA:238,1
DA:240,1
DA:241,1
DA:242,1
DA:245,1
DA:246,1
DA:247,1
DA:248,1
DA:249,1
DA:251,1
DA:252,1
DA:253,1
DA:254,1
DA:256,1
DA:257,1
DA:258,1
DA:259,1
DA:261,1
DA:263,1
DA:266,1
DA:267,1
DA:268,1
DA:269,1
DA:270,1
DA:272,1
DA:273,1
DA:274,1
DA:277,1
DA:278,1
DA:279,1
DA:280,1
DA:281,1
DA:282,1
DA:283,1
DA:284,1
DA:285,1
DA:286,1
DA:287,1
DA:288,1
DA:289,1
DA:291,1
DA:292,1
DA:293,1
DA:294,1
DA:295,1
DA:299,7
DA:300,7
DA:301,7
DA:302,7
DA:303,7
DA:304,7
DA:305,7
DA:306,7
DA:307,7
DA:308,7
DA:309,7
DA:310,7
DA:311,7
DA:312,7
DA:315,1
DA:316,1
DA:317,1
DA:318,1
DA:319,1
DA:320,1
DA:321,1
DA:322,1
DA:323,1
DA:324,1
DA:325,1
DA:326,1
DA:327,1
DA:328,1
DA:329,1
DA:331,1
DA:332,1
DA:333,1
DA:334,1
DA:335,1
DA:336,1
DA:337,1
DA:339,1
DA:340,1
DA:341,1
DA:342,1
DA:343,1
DA:344,1
DA:345,1
DA:348,1
DA:349,1
DA:352,1
DA:353,1
DA:354,1
DA:357,1
DA:358,1
DA:359,1
DA:361,1
DA:362,1
DA:363,1
DA:364,1
DA:365,1
DA:366,1
DA:367,1
DA:369,1
DA:370,1
DA:371,1
DA:372,1
DA:373,1
DA:375,1
DA:376,1
DA:379,1
DA:380,1
DA:382,1
DA:383,1
DA:384,1
DA:385,1
DA:386,1
DA:387,1
DA:389,1
DA:390,1
DA:391,1
DA:392,1
DA:393,1
DA:395,1
DA:396,1
DA:399,1
DA:400,1
DA:401,1
DA:402,1
DA:403,1
DA:404,1
DA:406,1
DA:407,1
DA:408,1
DA:409,1
DA:410,1
DA:411,1
DA:412,1
DA:413,1
DA:415,1
DA:416,1
DA:417,1
DA:418,1
DA:419,1
DA:422,1
DA:423,1
DA:425,1
DA:426,1
DA:427,1
DA:428,1
DA:429,1
DA:430,1
DA:432,1
DA:433,1
DA:434,1
DA:435,1
DA:436,1
DA:438,1
DA:439,1
DA:442,1
DA:443,1
DA:445,1
DA:446,1
DA:447,1
DA:448,1
DA:449,1
DA:450,1
DA:451,1
DA:453,1
DA:454,1
DA:455,1
DA:456,1
DA:457,1
DA:459,1
DA:460,1
DA:463,1
DA:464,1
DA:465,1
DA:466,1
DA:467,1
DA:468,1
DA:471,1
DA:472,1
DA:473,1
DA:474,1
DA:477,1
DA:478,1
DA:479,1
DA:482,1
DA:483,1
DA:484,1
DA:487,1
DA:488,1
DA:489,1
DA:494,1
DA:495,1
DA:496,1
DA:497,1
DA:498,1
DA:499,1
DA:500,1
DA:501,1
DA:503,1
DA:504,1
DA:505,1
DA:506,1
DA:507,1
DA:508,1
DA:509,1
DA:511,1
DA:512,1
DA:513,1
DA:514,1
DA:515,1
DA:516,1
DA:517,1
DA:518,1
DA:519,1
DA:520,1
DA:521,1
DA:522,1
DA:523,1
DA:526,1
DA:527,1
DA:528,1
DA:529,1
DA:531,1
DA:532,1
DA:533,1
DA:534,1
DA:535,1
DA:536,1
DA:537,1
DA:539,1
DA:540,1
DA:541,1
DA:542,1
DA:543,1
DA:545,1
DA:546,1
DA:549,1
DA:550,1
DA:552,1
DA:553,1
DA:554,1
DA:555,1
DA:556,1
DA:557,1
DA:559,1
DA:560,1
DA:561,1
DA:562,1
DA:563,1
DA:565,1
DA:566,1
DA:571,1
DA:572,1
DA:573,1
DA:574,1
DA:575,1
DA:576,1
DA:577,1
DA:578,1
DA:579,1
DA:580,1
DA:581,1
DA:582,1
DA:583,1
DA:584,1
DA:585,1
DA:586,1
DA:587,1
DA:588,1
DA:590,1
DA:591,1
DA:592,1
DA:593,1
DA:594,1
DA:595,1
DA:596,1
DA:598,1
DA:599,1
DA:600,1
DA:601,1
DA:602,1
DA:603,1
DA:604,1
DA:605,1
DA:606,1
DA:607,1
DA:608,1
DA:610,1
DA:611,1
DA:612,1
DA:613,1
DA:614,1
DA:615,1
DA:618,1
DA:619,1
DA:620,1
DA:621,1
DA:623,1
DA:624,1
DA:625,1
DA:626,1
DA:627,1
DA:628,1
DA:629,1
DA:631,1
DA:632,1
DA:633,1
DA:634,1
DA:635,1
DA:637,1
DA:638,1
DA:641,1
DA:642,1
DA:644,1
DA:645,1
DA:646,1
DA:647,1
DA:648,1
DA:649,1
DA:651,1
DA:652,1
DA:653,1
DA:654,1
DA:655,1
DA:657,1
DA:658,1
DA:663,1
DA:664,1
DA:665,1
DA:666,1
DA:667,1
DA:668,1
DA:669,1
DA:670,1
DA:671,1
DA:672,1
DA:673,1
DA:674,1
DA:675,1
DA:676,1
DA:677,1
DA:678,1
DA:679,1
DA:680,1
DA:681,1
DA:682,1
DA:683,1
DA:684,1
DA:685,1
DA:686,1
DA:687,1
DA:688,1
DA:689,1
DA:690,1
DA:691,1
DA:692,1
DA:693,1
DA:694,1
DA:695,1
DA:696,1
DA:697,1
DA:698,1
DA:700,1
DA:701,1
DA:702,1
DA:703,1
DA:704,1
DA:705,1
DA:706,1
DA:708,1
DA:709,1
DA:710,1
DA:711,1
DA:712,1
DA:714,1
DA:715,1
DA:716,1
DA:717,1
DA:718,1
DA:719,1
DA:721,1
DA:722,1
DA:723,1
DA:724,1
DA:725,1
DA:726,1
DA:728,1
DA:729,1
DA:730,1
DA:731,1
DA:735,1
DA:736,1
DA:738,1
DA:739,1
DA:740,1
DA:741,1
DA:743,1
DA:744,1
DA:747,1
DA:748,1
DA:749,1
DA:750,1
DA:752,1
DA:753,1
DA:754,1
DA:755,1
DA:756,1
DA:757,1
DA:758,1
DA:760,1
DA:761,1
DA:762,1
DA:763,1
DA:764,1
DA:766,1
DA:767,1
DA:770,1
DA:771,1
DA:773,1
DA:774,1
DA:775,1
DA:776,1
DA:777,1
DA:778,1
DA:780,1
DA:781,1
DA:782,1
DA:783,1
DA:784,1
DA:786,1
DA:787,1
DA:792,1
DA:793,1
DA:794,1
DA:796,1
DA:797,1
DA:798,1
DA:799,1
DA:800,1
DA:801,1
DA:802,1
DA:804,1
DA:805,1
DA:806,1
DA:807,1
DA:808,1
DA:809,1
DA:810,1
DA:811,1
DA:814,1
DA:815,1
DA:816,1
DA:817,1
DA:819,1
DA:820,1
DA:821,1
DA:822,1
DA:823,1
DA:824,1
DA:825,1
DA:827,1
DA:828,1
DA:829,1
DA:830,1
DA:831,1
DA:833,1
DA:834,1
DA:837,1
DA:838,1
DA:840,1
DA:841,1
DA:842,1
DA:843,1
DA:844,1
DA:845,1
DA:847,1
DA:848,1
DA:849,1
DA:850,1
DA:851,1
DA:853,1
DA:854,1
DA:859,1
DA:860,1
DA:861,1
DA:862,1
DA:863,1
DA:864,1
DA:867,1
DA:868,1
DA:869,1
DA:870,1
DA:871,1
DA:872,1
DA:875,1
DA:876,1
DA:877,1
DA:878,1
DA:879,1
DA:880,1
DA:883,1
DA:884,1
DA:885,1
DA:886,1
DA:887,1
DA:888,1
DA:893,1
DA:894,1
DA:895,1
DA:896,1
DA:897,1
DA:898,1
DA:899,1
DA:900,1
DA:901,1
DA:903,1
DA:904,1
DA:905,1
DA:906,1
DA:907,1
DA:908,1
DA:911,1
DA:912,1
DA:913,1
DA:914,1
DA:915,1
DA:916,1
DA:917,1
DA:918,1
DA:920,1
DA:921,1
DA:922,1
DA:923,1
DA:924,1
DA:925,1
DA:927,1
DA:928,1
DA:931,1
DA:932,1
DA:933,1
DA:934,1
DA:935,1
DA:936,1
DA:937,1
BRF:0
BRH:0
LF:786
LH:786
end_of_record
SF:/Users/poile/repos/actualai/actual-cli/.worktrees/2u6.4/src/api/retry.rs
FN:30,_RINvNtNtCs14eHuuW48ek_10actual_cli3api5retry10with_retryNCNCINvNtNtNtB6_3cli8commands4sync8run_syncNtNtNtB6_6claude10subprocess15CliClaudeRunnerE00NCNvMNtB4_6clientNtB2q_15ActualApiClient10post_match0NtNtB4_5types13MatchResponseEB6_
FN:34,_RNCINvNtNtCs14eHuuW48ek_10actual_cli3api5retry10with_retryNCNCINvNtNtNtB8_3cli8commands4sync8run_syncNtNtNtB8_6claude10subprocess15CliClaudeRunnerE00NCNvMNtB6_6clientNtB2s_15ActualApiClient10post_match0NtNtB6_5types13MatchResponseE0B8_
FN:16,_RNvXNtNtCs14eHuuW48ek_10actual_cli3api5retryNtB2_11RetryConfigNtNtCsd2KPTObkMr_4core7default7Default7default
FN:69,_RNvNtNtNtCs23MeGd5xNbL_10actual_cli3api5retry5tests9run_retry
FN:143,_RNvNtNtNtCs23MeGd5xNbL_10actual_cli3api5retry5testss_19test_backoff_delays
FN:97,_RNvNtNtNtCs23MeGd5xNbL_10actual_cli3api5retry5testss_19test_default_config
FN:130,_RNvNtNtNtCs23MeGd5xNbL_10actual_cli3api5retry5testss_20test_retry_exhausted
FN:117,_RNvNtNtNtCs23MeGd5xNbL_10actual_cli3api5retry5testss_29test_no_retry_on_client_error
FN:105,_RNvNtNtNtCs23MeGd5xNbL_10actual_cli3api5retry5testss_44test_retry_succeeds_after_transient_failures
FN:77,_RNCNCNCNvNtNtNtCs23MeGd5xNbL_10actual_cli3api5retry5tests9run_retry000Bd_
FN:153,_RNCNCNCNvNtNtNtCs23MeGd5xNbL_10actual_cli3api5retry5testss_19test_backoff_delays000Bd_
FN:74,_RNCNCNvNtNtNtCs23MeGd5xNbL_10actual_cli3api5retry5tests9run_retry00Bb_
FN:151,_RNCNCNvNtNtNtCs23MeGd5xNbL_10actual_cli3api5retry5testss_19test_backoff_delays00Bb_
FN:69,_RNCNvNtNtNtCs23MeGd5xNbL_10actual_cli3api5retry5tests9run_retry0B9_
FN:143,_RNCNvNtNtNtCs23MeGd5xNbL_10actual_cli3api5retry5testss_19test_backoff_delays0B9_
FN:130,_RNCNvNtNtNtCs23MeGd5xNbL_10actual_cli3api5retry5testss_20test_retry_exhausted0B9_
FN:117,_RNCNvNtNtNtCs23MeGd5xNbL_10actual_cli3api5retry5testss_29test_no_retry_on_client_error0B9_
FN:105,_RNCNvNtNtNtCs23MeGd5xNbL_10actual_cli3api5retry5testss_44test_retry_succeeds_after_transient_failures0B9_
FN:30,_RINvNtNtCs23MeGd5xNbL_10actual_cli3api5retry10with_retryNCNCINvNtNtNtB6_3cli8commands4sync8run_syncNtNtBZ_5tests10MockRunnerE00NCNvMNtB4_6clientNtB26_15ActualApiClient10post_match0NtNtB4_5types13MatchResponseEB6_
FN:30,_RINvNtNtCs23MeGd5xNbL_10actual_cli3api5retry10with_retryNCNCINvNtNtNtB6_3cli8commands4sync8run_syncNtNtNtB6_6claude10subprocess15CliClaudeRunnerE00NCNvMNtB4_6clientNtB2q_15ActualApiClient10post_match0NtNtB4_5types13MatchResponseEB6_
FN:30,_RINvNtNtCs23MeGd5xNbL_10actual_cli3api5retry10with_retryNCNCNvNtB2_5tests9run_retry00NCNCBU_00lEB6_
FN:30,_RINvNtNtCs23MeGd5xNbL_10actual_cli3api5retry10with_retryNCNCNvNtB2_5testss_19test_backoff_delays00NCNCBU_00lEB6_
FN:34,_RNCINvNtNtCs23MeGd5xNbL_10actual_cli3api5retry10with_retryNCNCINvNtNtNtB8_3cli8commands4sync8run_syncNtNtB11_5tests10MockRunnerE00NCNvMNtB6_6clientNtB29_15ActualApiClient10post_match0NtNtB6_5types13MatchResponseE0B8_
FN:34,_RNCINvNtNtCs23MeGd5xNbL_10actual_cli3api5retry10with_retryNCNCINvNtNtNtB8_3cli8commands4sync8run_syncNtNtNtB8_6claude10subprocess15CliClaudeRunnerE00NCNvMNtB6_6clientNtB2s_15ActualApiClient10post_match0NtNtB6_5types13MatchResponseE0B8_
FN:34,_RNCINvNtNtCs23MeGd5xNbL_10actual_cli3api5retry10with_retryNCNCNvNtB4_5tests9run_retry00NCNCBW_00lE0B8_
FN:34,_RNCINvNtNtCs23MeGd5xNbL_10actual_cli3api5retry10with_retryNCNCNvNtB4_5testss_19test_backoff_delays00NCNCBW_00lE0B8_
FN:16,_RNvXNtNtCs23MeGd5xNbL_10actual_cli3api5retryNtB2_11RetryConfigNtNtCsd2KPTObkMr_4core7default7Default7default
FNDA:31,_RINvNtNtCs14eHuuW48ek_10actual_cli3api5retry10with_retryNCNCINvNtNtNtB6_3cli8commands4sync8run_syncNtNtNtB6_6claude10subprocess15CliClaudeRunnerE00NCNvMNtB4_6clientNtB2q_15ActualApiClient10post_match0NtNtB4_5types13MatchResponseEB6_
FNDA:31,_RNCINvNtNtCs14eHuuW48ek_10actual_cli3api5retry10with_retryNCNCINvNtNtNtB8_3cli8commands4sync8run_syncNtNtNtB8_6claude10subprocess15CliClaudeRunnerE00NCNvMNtB6_6clientNtB2s_15ActualApiClient10post_match0NtNtB6_5types13MatchResponseE0B8_
FNDA:31,_RNvXNtNtCs14eHuuW48ek_10actual_cli3api5retryNtB2_11RetryConfigNtNtCsd2KPTObkMr_4core7default7Default7default
FNDA:3,_RNvNtNtNtCs23MeGd5xNbL_10actual_cli3api5retry5tests9run_retry
FNDA:1,_RNvNtNtNtCs23MeGd5xNbL_10actual_cli3api5retry5testss_19test_backoff_delays
FNDA:1,_RNvNtNtNtCs23MeGd5xNbL_10actual_cli3api5retry5testss_19test_default_config
FNDA:1,_RNvNtNtNtCs23MeGd5xNbL_10actual_cli3api5retry5testss_20test_retry_exhausted
FNDA:1,_RNvNtNtNtCs23MeGd5xNbL_10actual_cli3api5retry5testss_29test_no_retry_on_client_error
FNDA:1,_RNvNtNtNtCs23MeGd5xNbL_10actual_cli3api5retry5testss_44test_retry_succeeds_after_transient_failures
FNDA:7,_RNCNCNCNvNtNtNtCs23MeGd5xNbL_10actual_cli3api5retry5tests9run_retry000Bd_
FNDA:3,_RNCNCNCNvNtNtNtCs23MeGd5xNbL_10actual_cli3api5retry5testss_19test_backoff_delays000Bd_
FNDA:7,_RNCNCNvNtNtNtCs23MeGd5xNbL_10actual_cli3api5retry5tests9run_retry00Bb_
FNDA:3,_RNCNCNvNtNtNtCs23MeGd5xNbL_10actual_cli3api5retry5testss_19test_backoff_delays00Bb_
FNDA:3,_RNCNvNtNtNtCs23MeGd5xNbL_10actual_cli3api5retry5tests9run_retry0B9_
FNDA:1,_RNCNvNtNtNtCs23MeGd5xNbL_10actual_cli3api5retry5testss_19test_backoff_delays0B9_
FNDA:1,_RNCNvNtNtNtCs23MeGd5xNbL_10actual_cli3api5retry5testss_20test_retry_exhausted0B9_
FNDA:1,_RNCNvNtNtNtCs23MeGd5xNbL_10actual_cli3api5retry5testss_29test_no_retry_on_client_error0B9_
FNDA:1,_RNCNvNtNtNtCs23MeGd5xNbL_10actual_cli3api5retry5testss_44test_retry_succeeds_after_transient_failures0B9_
FNDA:14,_RINvNtNtCs23MeGd5xNbL_10actual_cli3api5retry10with_retryNCNCINvNtNtNtB6_3cli8commands4sync8run_syncNtNtBZ_5tests10MockRunnerE00NCNvMNtB4_6clientNtB26_15ActualApiClient10post_match0NtNtB4_5types13MatchResponseEB6_
FNDA:0,_RINvNtNtCs23MeGd5xNbL_10actual_cli3api5retry10with_retryNCNCINvNtNtNtB6_3cli8commands4sync8run_syncNtNtNtB6_6claude10subprocess15CliClaudeRunnerE00NCNvMNtB4_6clientNtB2q_15ActualApiClient10post_match0NtNtB4_5types13MatchResponseEB6_
FNDA:3,_RINvNtNtCs23MeGd5xNbL_10actual_cli3api5retry10with_retryNCNCNvNtB2_5tests9run_retry00NCNCBU_00lEB6_
FNDA:1,_RINvNtNtCs23MeGd5xNbL_10actual_cli3api5retry10with_retryNCNCNvNtB2_5testss_19test_backoff_delays00NCNCBU_00lEB6_
FNDA:14,_RNCINvNtNtCs23MeGd5xNbL_10actual_cli3api5retry10with_retryNCNCINvNtNtNtB8_3cli8commands4sync8run_syncNtNtB11_5tests10MockRunnerE00NCNvMNtB6_6clientNtB29_15ActualApiClient10post_match0NtNtB6_5types13MatchResponseE0B8_
FNDA:0,_RNCINvNtNtCs23MeGd5xNbL_10actual_cli3api5retry10with_retryNCNCINvNtNtNtB8_3cli8commands4sync8run_syncNtNtNtB8_6claude10subprocess15CliClaudeRunnerE00NCNvMNtB6_6clientNtB2s_15ActualApiClient10post_match0NtNtB6_5types13MatchResponseE0B8_
FNDA:3,_RNCINvNtNtCs23MeGd5xNbL_10actual_cli3api5retry10with_retryNCNCNvNtB4_5tests9run_retry00NCNCBW_00lE0B8_
FNDA:1,_RNCINvNtNtCs23MeGd5xNbL_10actual_cli3api5retry10with_retryNCNCNvNtB4_5testss_19test_backoff_delays00NCNCBW_00lE0B8_
FNDA:19,_RNvXNtNtCs23MeGd5xNbL_10actual_cli3api5retryNtB2_11RetryConfigNtNtCsd2KPTObkMr_4core7default7Default7default
FNF:18
FNH:18
DA:16,50
DA:17,50
DA:18,50
DA:19,50
DA:20,50
DA:21,50
DA:22,50
DA:30,49
DA:31,49
DA:32,49
DA:33,49
DA:34,49
DA:35,49
DA:37,61
DA:38,61
DA:39,12
DA:40,12
DA:41,12
DA:42,12
DA:43,49
DA:45,61
DA:46,42
DA:47,17
DA:48,17
DA:49,17
DA:50,2
DA:54,5
DA:55,49
DA:69,3
DA:70,3
DA:71,3
DA:72,3
DA:74,7
DA:75,7
DA:76,7
DA:77,7
DA:78,7
DA:79,7
DA:80,7
DA:81,5
DA:82,1
DA:83,1
DA:84,1
DA:85,1
DA:86,1
DA:88,7
DA:89,7
DA:90,3
DA:92,3
DA:93,3
DA:94,3
DA:97,1
DA:98,1
DA:99,1
DA:100,1
DA:101,1
DA:102,1
DA:105,1
DA:106,1
DA:108,1
DA:110,1
DA:112,1
DA:113,1
DA:114,1
DA:117,1
DA:118,1
DA:120,1
DA:122,1
DA:124,1
DA:125,1
DA:126,1
DA:127,1
DA:130,1
DA:131,1
DA:133,1
DA:135,1
DA:137,1
DA:138,1
DA:139,1
DA:140,1
DA:143,1
DA:144,1
DA:146,1
DA:147,1
DA:149,1
DA:151,3
DA:152,3
DA:153,3
DA:154,3
DA:155,3
DA:156,3
DA:157,3
DA:158,1
DA:160,1
DA:161,1
DA:163,1
DA:164,1
DA:168,1
DA:169,1
DA:170,1
DA:171,1
DA:172,1
DA:173,1
BRF:0
BRH:0
LF:114
LH:114
end_of_record
SF:/Users/poile/repos/actualai/actual-cli/.worktrees/2u6.4/src/api/types.rs
FN:230,_RNvNtNtNtCs23MeGd5xNbL_10actual_cli3api5types5testss_28test_serialize_match_request
FN:341,_RNvNtNtNtCs23MeGd5xNbL_10actual_cli3api5types5testss_29test_round_trip_match_request
FN:293,_RNvNtNtNtCs23MeGd5xNbL_10actual_cli3api5types5testss_31test_deserialize_error_response
FN:447,_RNvNtNtNtCs23MeGd5xNbL_10actual_cli3api5types5testss_32test_deserialize_health_response
FN:485,_RNvNtNtNtCs23MeGd5xNbL_10actual_cli3api5types5testss_32test_error_response_with_details
FN:456,_RNvNtNtNtCs23MeGd5xNbL_10actual_cli3api5types5testss_34test_deserialize_telemetry_request
FN:366,_RNvNtNtNtCs23MeGd5xNbL_10actual_cli3api5types5testss_35test_deserialize_languages_response
FN:415,_RNvNtNtNtCs23MeGd5xNbL_10actual_cli3api5types5testss_36test_deserialize_categories_response
FN:391,_RNvNtNtNtCs23MeGd5xNbL_10actual_cli3api5types5testss_36test_deserialize_frameworks_response
FN:155,_RNvNtNtNtCs23MeGd5xNbL_10actual_cli3api5types5testss_36test_deserialize_full_match_response
FN:282,_RNvNtNtNtCs23MeGd5xNbL_10actual_cli3api5types5testss_47test_serialize_match_request_omits_none_options
FN:303,_RNvNtNtNtCs23MeGd5xNbL_10actual_cli3api5types5testss_53test_deserialize_response_with_optional_fields_absent
FNDA:1,_RNvNtNtNtCs23MeGd5xNbL_10actual_cli3api5types5testss_28test_serialize_match_request
FNDA:1,_RNvNtNtNtCs23MeGd5xNbL_10actual_cli3api5types5testss_29test_round_trip_match_request
FNDA:1,_RNvNtNtNtCs23MeGd5xNbL_10actual_cli3api5types5testss_31test_deserialize_error_response
FNDA:1,_RNvNtNtNtCs23MeGd5xNbL_10actual_cli3api5types5testss_32test_deserialize_health_response
FNDA:1,_RNvNtNtNtCs23MeGd5xNbL_10actual_cli3api5types5testss_32test_error_response_with_details
FNDA:1,_RNvNtNtNtCs23MeGd5xNbL_10actual_cli3api5types5testss_34test_deserialize_telemetry_request
FNDA:1,_RNvNtNtNtCs23MeGd5xNbL_10actual_cli3api5types5testss_35test_deserialize_languages_response
FNDA:1,_RNvNtNtNtCs23MeGd5xNbL_10actual_cli3api5types5testss_36test_deserialize_categories_response
FNDA:1,_RNvNtNtNtCs23MeGd5xNbL_10actual_cli3api5types5testss_36test_deserialize_frameworks_response
FNDA:1,_RNvNtNtNtCs23MeGd5xNbL_10actual_cli3api5types5testss_36test_deserialize_full_match_response
FNDA:1,_RNvNtNtNtCs23MeGd5xNbL_10actual_cli3api5types5testss_47test_serialize_match_request_omits_none_options
FNDA:1,_RNvNtNtNtCs23MeGd5xNbL_10actual_cli3api5types5testss_53test_deserialize_response_with_optional_fields_absent
FNF:12
FNH:12
DA:155,1
DA:156,1
DA:157,1
DA:158,1
DA:159,1
DA:160,1
DA:161,1
DA:162,1
DA:163,1
DA:164,1
DA:165,1
DA:166,1
DA:167,1
DA:168,1
DA:169,1
DA:170,1
DA:171,1
DA:172,1
DA:173,1
DA:174,1
DA:175,1
DA:176,1
DA:177,1
DA:178,1
DA:179,1
DA:180,1
DA:181,1
DA:182,1
DA:183,1
DA:184,1
DA:185,1
DA:186,1
DA:187,1
DA:188,1
DA:189,1
DA:190,1
DA:191,1
DA:192,1
DA:193,1
DA:194,1
DA:196,1
DA:198,1
DA:200,1
DA:201,1
DA:202,1
DA:203,1
DA:204,1
DA:205,1
DA:206,1
DA:207,1
DA:208,1
DA:209,1
DA:210,1
DA:211,1
DA:212,1
DA:213,1
DA:214,1
DA:215,1
DA:216,1
DA:217,1
DA:219,1
DA:220,1
DA:221,1
DA:222,1
DA:223,1
DA:224,1
DA:225,1
DA:226,1
DA:227,1
DA:230,1
DA:231,1
DA:232,1
DA:233,1
DA:234,1
DA:235,1
DA:236,1
DA:237,1
DA:238,1
DA:239,1
DA:240,1
DA:241,1
DA:242,1
DA:243,1
DA:244,1
DA:245,1
DA:246,1
DA:247,1
DA:248,1
DA:249,1
DA:250,1
DA:251,1
DA:252,1
DA:253,1
DA:255,1
DA:258,1
DA:259,1
DA:260,1
DA:261,1
DA:263,1
DA:264,1
DA:265,1
DA:266,1
DA:268,1
DA:269,1
DA:270,1
DA:271,1
DA:272,1
DA:273,1
DA:276,1
DA:277,1
DA:278,1
DA:279,1
DA:282,1
DA:283,1
DA:284,1
DA:285,1
DA:286,1
DA:288,1
DA:289,1
DA:290,1
DA:293,1
DA:294,1
DA:296,1
DA:297,1
DA:298,1
DA:299,1
DA:300,1
DA:303,1
DA:304,1
DA:305,1
DA:306,1
DA:307,1
DA:308,1
DA:309,1
DA:310,1
DA:311,1
DA:312,1
DA:313,1
DA:314,1
DA:315,1
DA:316,1
DA:317,1
DA:318,1
DA:319,1
DA:320,1
DA:321,1
DA:322,1
DA:323,1
DA:324,1
DA:325,1
DA:326,1
DA:327,1
DA:328,1
DA:329,1
DA:331,1
DA:332,1
DA:333,1
DA:334,1
DA:335,1
DA:336,1
DA:337,1
DA:338,1
DA:341,1
DA:342,1
DA:343,1
DA:344,1
DA:345,1
DA:346,1
DA:347,1
DA:348,1
DA:349,1
DA:350,1
DA:351,1
DA:352,1
DA:353,1
DA:354,1
DA:355,1
DA:356,1
DA:357,1
DA:358,1
DA:360,1
DA:361,1
DA:362,1
DA:363,1
DA:366,1
DA:367,1
DA:368,1
DA:369,1
DA:370,1
DA:371,1
DA:372,1
DA:373,1
DA:374,1
DA:375,1
DA:376,1
DA:377,1
DA:378,1
DA:379,1
DA:380,1
DA:382,1
DA:383,1
DA:384,1
DA:385,1
DA:386,1
DA:387,1
DA:388,1
DA:391,1
DA:392,1
DA:393,1
DA:394,1
DA:395,1
DA:396,1
DA:397,1
DA:398,1
DA:399,1
DA:400,1
DA:401,1
DA:403,1
DA:404,1
DA:405,1
DA:406,1
DA:407,1
DA:408,1
DA:409,1
DA:410,1
DA:412,1
DA:415,1
DA:416,1
DA:417,1
DA:418,1
DA:419,1
DA:420,1
DA:421,1
DA:422,1
DA:423,1
DA:424,1
DA:425,1
DA:426,1
DA:427,1
DA:428,1
DA:429,1
DA:430,1
DA:431,1
DA:432,1
DA:433,1
DA:434,1
DA:436,1
DA:437,1
DA:438,1
DA:439,1
DA:440,1
DA:441,1
DA:442,1
DA:443,1
DA:444,1
DA:447,1
DA:448,1
DA:450,1
DA:451,1
DA:452,1
DA:453,1
DA:456,1
DA:457,1
DA:458,1
DA:459,1
DA:460,1
DA:461,1
DA:462,1
DA:463,1
DA:464,1
DA:465,1
DA:466,1
DA:467,1
DA:468,1
DA:470,1
DA:471,1
DA:472,1
DA:473,1
DA:474,1
DA:475,1
DA:476,1
DA:478,1
DA:479,1
DA:480,1
DA:482,1
DA:485,1
DA:486,1
DA:487,1
DA:488,1
DA:489,1
DA:490,1
DA:491,1
DA:492,1
DA:494,1
DA:495,1
DA:496,1
DA:497,1
DA:498,1
DA:499,1
DA:500,1
BRF:0
BRH:0
LF:300
LH:300
end_of_record
SF:/Users/poile/repos/actualai/actual-cli/.worktrees/2u6.4/src/branding/banner.rs
FN:34,_RNvNtNtCs14eHuuW48ek_10actual_cli8branding6banner10lerp_color
FN:41,_RNvNtNtCs14eHuuW48ek_10actual_cli8branding6banner12gradient_rgb
FN:59,_RNvNtNtCs14eHuuW48ek_10actual_cli8branding6banner12print_banner
FN:108,_RNvNtNtNtCs23MeGd5xNbL_10actual_cli8branding6banner5testss_20gradient_end_is_teal
FN:130,_RNvNtNtNtCs23MeGd5xNbL_10actual_cli8branding6banner5testss_21lerp_color_boundaries
FN:102,_RNvNtNtNtCs23MeGd5xNbL_10actual_cli8branding6banner5testss_23gradient_start_is_green
FN:137,_RNvNtNtNtCs23MeGd5xNbL_10actual_cli8branding6banner5testss_30banner_has_expected_line_count
FN:124,_RNvNtNtNtCs23MeGd5xNbL_10actual_cli8branding6banner5testss_34gradient_single_line_returns_start
FN:89,_RNvNtNtNtCs23MeGd5xNbL_10actual_cli8branding6banner5testss_37print_banner_quiet_produces_no_output
FN:79,_RNvNtNtNtCs23MeGd5xNbL_10actual_cli8branding6banner5testss_39banner_is_non_empty_and_contains_actual
FN:95,_RNvNtNtNtCs23MeGd5xNbL_10actual_cli8branding6banner5testss_40print_banner_non_quiet_produces_no_panic
FN:114,_RNvNtNtNtCs23MeGd5xNbL_10actual_cli8branding6banner5testss_42gradient_midpoint_is_between_start_and_end
FN:34,_RNvNtNtCs23MeGd5xNbL_10actual_cli8branding6banner10lerp_color
FN:41,_RNvNtNtCs23MeGd5xNbL_10actual_cli8branding6banner12gradient_rgb
FN:59,_RNvNtNtCs23MeGd5xNbL_10actual_cli8branding6banner12print_banner
FNDA:2079,_RNvNtNtCs14eHuuW48ek_10actual_cli8branding6banner10lerp_color
FNDA:693,_RNvNtNtCs14eHuuW48ek_10actual_cli8branding6banner12gradient_rgb
FNDA:33,_RNvNtNtCs14eHuuW48ek_10actual_cli8branding6banner12print_banner
FNDA:1,_RNvNtNtNtCs23MeGd5xNbL_10actual_cli8branding6banner5testss_20gradient_end_is_teal
FNDA:1,_RNvNtNtNtCs23MeGd5xNbL_10actual_cli8branding6banner5testss_21lerp_color_boundaries
FNDA:1,_RNvNtNtNtCs23MeGd5xNbL_10actual_cli8branding6banner5testss_23gradient_start_is_green
FNDA:1,_RNvNtNtNtCs23MeGd5xNbL_10actual_cli8branding6banner5testss_30banner_has_expected_line_count
FNDA:1,_RNvNtNtNtCs23MeGd5xNbL_10actual_cli8branding6banner5testss_34gradient_single_line_returns_start
FNDA:1,_RNvNtNtNtCs23MeGd5xNbL_10actual_cli8branding6banner5testss_37print_banner_quiet_produces_no_output
FNDA:1,_RNvNtNtNtCs23MeGd5xNbL_10actual_cli8branding6banner5testss_39banner_is_non_empty_and_contains_actual
FNDA:1,_RNvNtNtNtCs23MeGd5xNbL_10actual_cli8branding6banner5testss_40print_banner_non_quiet_produces_no_panic
FNDA:1,_RNvNtNtNtCs23MeGd5xNbL_10actual_cli8branding6banner5testss_42gradient_midpoint_is_between_start_and_end
FNDA:1149,_RNvNtNtCs23MeGd5xNbL_10actual_cli8branding6banner10lerp_color
FNDA:382,_RNvNtNtCs23MeGd5xNbL_10actual_cli8branding6banner12gradient_rgb
FNDA:19,_RNvNtNtCs23MeGd5xNbL_10actual_cli8branding6banner12print_banner
FNF:12
FNH:12
DA:34,3228
DA:35,3228
DA:36,3228
DA:37,3228
DA:38,3228
DA:41,1075
DA:42,1075
DA:43,1
DA:45,1074
DA:47,1075
DA:48,1075
DA:49,1075
DA:50,1075
DA:51,1075
DA:52,1075
DA:59,52
DA:60,52
DA:61,1
DA:62,51
DA:64,51
DA:65,51
DA:67,1071
DA:68,1071
DA:69,1071
DA:70,1071
DA:71,1071
DA:72,52
DA:79,1
DA:80,1
DA:82,1
DA:83,1
DA:84,0
DA:86,1
DA:89,1
DA:91,1
DA:92,1
DA:95,1
DA:98,1
DA:99,1
DA:102,1
DA:103,1
DA:104,1
DA:105,1
DA:108,1
DA:109,1
DA:110,1
DA:111,1
DA:114,1
DA:115,1
DA:117,1
DA:118,1
DA:120,1
DA:121,1
DA:124,1
DA:125,1
DA:126,1
DA:127,1
DA:130,1
DA:131,1
DA:132,1
DA:133,1
DA:134,1
DA:137,1
DA:138,1
DA:140,1
DA:141,1
BRF:0
BRH:0
LF:66
LH:65
end_of_record
SF:/Users/poile/repos/actualai/actual-cli/.worktrees/2u6.4/src/claude/auth.rs
FN:31,_RNvMNtNtCs14eHuuW48ek_10actual_cli6claude4authNtB2_16ClaudeAuthStatus14display_method
FN:26,_RNvMNtNtCs14eHuuW48ek_10actual_cli6claude4authNtB2_16ClaudeAuthStatus9is_usable
FN:74,_RNvNtNtNtCs23MeGd5xNbL_10actual_cli6claude4auth5testss_25test_display_method_oauth
FN:45,_RNvNtNtNtCs23MeGd5xNbL_10actual_cli6claude4auth5testss_27test_deserialize_oauth_auth
FN:81,_RNvNtNtNtCs23MeGd5xNbL_10actual_cli6claude4auth5testss_27test_display_method_api_key
FN:88,_RNvNtNtNtCs23MeGd5xNbL_10actual_cli6claude4auth5testss_27test_display_method_unknown
FN:55,_RNvNtNtNtCs23MeGd5xNbL_10actual_cli6claude4auth5testss_29test_deserialize_api_key_auth
FN:95,_RNvNtNtNtCs23MeGd5xNbL_10actual_cli6claude4auth5testss_29test_is_usable_when_logged_in
FN:64,_RNvNtNtNtCs23MeGd5xNbL_10actual_cli6claude4auth5testss_32test_deserialize_unauthenticated
FN:102,_RNvNtNtNtCs23MeGd5xNbL_10actual_cli6claude4auth5testss_33test_is_usable_when_not_logged_in
FN:31,_RNvMNtNtCs23MeGd5xNbL_10actual_cli6claude4authNtB2_16ClaudeAuthStatus14display_method
FN:26,_RNvMNtNtCs23MeGd5xNbL_10actual_cli6claude4authNtB2_16ClaudeAuthStatus9is_usable
FNDA:1,_RNvMNtNtCs14eHuuW48ek_10actual_cli6claude4authNtB2_16ClaudeAuthStatus14display_method
FNDA:39,_RNvMNtNtCs14eHuuW48ek_10actual_cli6claude4authNtB2_16ClaudeAuthStatus9is_usable
FNDA:1,_RNvNtNtNtCs23MeGd5xNbL_10actual_cli6claude4auth5testss_25test_display_method_oauth
FNDA:1,_RNvNtNtNtCs23MeGd5xNbL_10actual_cli6claude4auth5testss_27test_deserialize_oauth_auth
FNDA:1,_RNvNtNtNtCs23MeGd5xNbL_10actual_cli6claude4auth5testss_27test_display_method_api_key
FNDA:1,_RNvNtNtNtCs23MeGd5xNbL_10actual_cli6claude4auth5testss_27test_display_method_unknown
FNDA:1,_RNvNtNtNtCs23MeGd5xNbL_10actual_cli6claude4auth5testss_29test_deserialize_api_key_auth
FNDA:1,_RNvNtNtNtCs23MeGd5xNbL_10actual_cli6claude4auth5testss_29test_is_usable_when_logged_in
FNDA:1,_RNvNtNtNtCs23MeGd5xNbL_10actual_cli6claude4auth5testss_32test_deserialize_unauthenticated
FNDA:1,_RNvNtNtNtCs23MeGd5xNbL_10actual_cli6claude4auth5testss_33test_is_usable_when_not_logged_in
FNDA:9,_RNvMNtNtCs23MeGd5xNbL_10actual_cli6claude4authNtB2_16ClaudeAuthStatus14display_method
FNDA:18,_RNvMNtNtCs23MeGd5xNbL_10actual_cli6claude4authNtB2_16ClaudeAuthStatus9is_usable
FNF:10
FNH:10
DA:26,57
DA:27,57
DA:28,57
DA:31,10
DA:32,10
DA:33,7
DA:34,3
DA:35,1
DA:37,10
DA:45,1
DA:46,1
DA:47,1
DA:48,1
DA:49,1
DA:50,1
DA:51,1
DA:52,1
DA:55,1
DA:56,1
DA:57,1
DA:58,1
DA:59,1
DA:60,1
DA:61,1
DA:64,1
DA:65,1
DA:66,1
DA:67,1
DA:68,1
DA:69,1
DA:70,1
DA:71,1
DA:74,1
DA:75,1
DA:76,1
DA:77,1
DA:78,1
DA:81,1
DA:82,1
DA:83,1
DA:84,1
DA:85,1
DA:88,1
DA:89,1
DA:90,1
DA:91,1
DA:92,1
DA:95,1
DA:96,1
DA:97,1
DA:98,1
DA:99,1
DA:102,1
DA:103,1
DA:104,1
DA:105,1
DA:106,1
BRF:0
BRH:0
LF:57
LH:57
end_of_record
SF:/Users/poile/repos/actualai/actual-cli/.worktrees/2u6.4/src/claude/binary.rs
FN:20,_RNvNtNtCs14eHuuW48ek_10actual_cli6claude6binary18find_claude_binary
FN:20,_RNvNtNtCs23MeGd5xNbL_10actual_cli6claude6binary18find_claude_binary
FN:77,_RNvNtNtNtCs23MeGd5xNbL_10actual_cli6claude6binary5testss_34test_not_found_when_binary_missing
FN:51,_RNvNtNtNtCs23MeGd5xNbL_10actual_cli6claude6binary5testss_37test_env_var_override_with_valid_path
FN:66,_RNvNtNtNtCs23MeGd5xNbL_10actual_cli6claude6binary5testss_43test_env_var_override_with_nonexistent_path
FN:41,_RNvNtNtNtCs23MeGd5xNbL_10actual_cli6claude6binary5testss_48test_error_message_contains_install_instructions
FNDA:47,_RNvNtNtCs14eHuuW48ek_10actual_cli6claude6binary18find_claude_binary
FNDA:13,_RNvNtNtCs23MeGd5xNbL_10actual_cli6claude6binary18find_claude_binary
FNDA:1,_RNvNtNtNtCs23MeGd5xNbL_10actual_cli6claude6binary5testss_34test_not_found_when_binary_missing
FNDA:1,_RNvNtNtNtCs23MeGd5xNbL_10actual_cli6claude6binary5testss_37test_env_var_override_with_valid_path
FNDA:1,_RNvNtNtNtCs23MeGd5xNbL_10actual_cli6claude6binary5testss_43test_env_var_override_with_nonexistent_path
FNDA:1,_RNvNtNtNtCs23MeGd5xNbL_10actual_cli6claude6binary5testss_48test_error_message_contains_install_instructions
FNF:5
FNH:5
DA:20,60
DA:22,60
DA:23,59
DA:24,59
DA:25,46
DA:26,13
DA:27,13
DA:28,1
DA:31,1
DA:32,60
DA:41,1
DA:42,1
DA:43,1
DA:44,1
DA:45,1
DA:46,0
DA:48,1
DA:51,1
DA:52,1
DA:53,1
DA:54,1
DA:55,1
DA:57,1
DA:58,1
DA:59,1
DA:61,1
DA:62,1
DA:63,1
DA:66,1
DA:67,1
DA:68,1
DA:69,1
DA:70,1
DA:72,1
DA:73,1
DA:74,1
DA:77,1
DA:78,1
DA:79,1
DA:80,1
DA:81,1
DA:82,1
DA:83,1
DA:85,1
DA:86,1
DA:87,1
BRF:0
BRH:0
LF:46
LH:45
end_of_record
SF:/Users/poile/repos/actualai/actual-cli/.worktrees/2u6.4/src/claude/options.rs
FN:30,_RNvMNtNtCs14eHuuW48ek_10actual_cli6claude7optionsNtB2_17InvocationOptions12for_analysis
FN:50,_RNvMNtNtCs14eHuuW48ek_10actual_cli6claude7optionsNtB2_17InvocationOptions13for_tailoring
FN:69,_RNvMNtNtCs14eHuuW48ek_10actual_cli6claude7optionsNtB2_17InvocationOptions7to_args
FN:229,_RNvNtNtNtCs23MeGd5xNbL_10actual_cli6claude7options5tests16assert_arg_value
FN:223,_RNvNtNtNtCs23MeGd5xNbL_10actual_cli6claude7options5tests16has_allowed_tool
FN:215,_RNvNtNtNtCs23MeGd5xNbL_10actual_cli6claude7options5testss_17test_debug_output
FN:126,_RNvNtNtNtCs23MeGd5xNbL_10actual_cli6claude7options5testss_26test_for_tailoring_no_bash
FN:107,_RNvNtNtNtCs23MeGd5xNbL_10actual_cli6claude7options5testss_30test_for_analysis_default_args
FN:138,_RNvNtNtNtCs23MeGd5xNbL_10actual_cli6claude7options5testss_30test_to_args_omits_none_fields
FN:147,_RNvNtNtNtCs23MeGd5xNbL_10actual_cli6claude7options5testss_32test_for_analysis_model_override
FN:155,_RNvNtNtNtCs23MeGd5xNbL_10actual_cli6claude7options5testss_33test_for_tailoring_model_override
FN:191,_RNvNtNtNtCs23MeGd5xNbL_10actual_cli6claude7options5testss_35test_to_args_does_not_include_print
FN:200,_RNvNtNtNtCs23MeGd5xNbL_10actual_cli6claude7options5testss_36test_clone_produces_independent_copy
FN:181,_RNvNtNtNtCs23MeGd5xNbL_10actual_cli6claude7options5testss_41test_to_args_always_includes_common_flags
FN:172,_RNvNtNtNtCs23MeGd5xNbL_10actual_cli6claude7options5testss_41test_to_args_includes_max_budget_when_set
FN:163,_RNvNtNtNtCs23MeGd5xNbL_10actual_cli6claude7options5testss_42test_to_args_includes_json_schema_when_set
FN:230,_RNCNvNtNtNtCs23MeGd5xNbL_10actual_cli6claude7options5tests16assert_arg_value0B9_
FN:225,_RNCNvNtNtNtCs23MeGd5xNbL_10actual_cli6claude7options5tests16has_allowed_tool0B9_
FN:134,_RNCNvNtNtNtCs23MeGd5xNbL_10actual_cli6claude7options5testss_26test_for_tailoring_no_bash0B9_
FN:30,_RNvMNtNtCs23MeGd5xNbL_10actual_cli6claude7optionsNtB2_17InvocationOptions12for_analysis
FN:50,_RNvMNtNtCs23MeGd5xNbL_10actual_cli6claude7optionsNtB2_17InvocationOptions13for_tailoring
FN:69,_RNvMNtNtCs23MeGd5xNbL_10actual_cli6claude7optionsNtB2_17InvocationOptions7to_args
FNDA:33,_RNvMNtNtCs14eHuuW48ek_10actual_cli6claude7optionsNtB2_17InvocationOptions12for_analysis
FNDA:10,_RNvMNtNtCs14eHuuW48ek_10actual_cli6claude7optionsNtB2_17InvocationOptions13for_tailoring
FNDA:43,_RNvMNtNtCs14eHuuW48ek_10actual_cli6claude7optionsNtB2_17InvocationOptions7to_args
FNDA:9,_RNvNtNtNtCs23MeGd5xNbL_10actual_cli6claude7options5tests16assert_arg_value
FNDA:2,_RNvNtNtNtCs23MeGd5xNbL_10actual_cli6claude7options5tests16has_allowed_tool
FNDA:1,_RNvNtNtNtCs23MeGd5xNbL_10actual_cli6claude7options5testss_17test_debug_output
FNDA:1,_RNvNtNtNtCs23MeGd5xNbL_10actual_cli6claude7options5testss_26test_for_tailoring_no_bash
FNDA:1,_RNvNtNtNtCs23MeGd5xNbL_10actual_cli6claude7options5testss_30test_for_analysis_default_args
FNDA:1,_RNvNtNtNtCs23MeGd5xNbL_10actual_cli6claude7options5testss_30test_to_args_omits_none_fields
FNDA:1,_RNvNtNtNtCs23MeGd5xNbL_10actual_cli6claude7options5testss_32test_for_analysis_model_override
FNDA:1,_RNvNtNtNtCs23MeGd5xNbL_10actual_cli6claude7options5testss_33test_for_tailoring_model_override
FNDA:1,_RNvNtNtNtCs23MeGd5xNbL_10actual_cli6claude7options5testss_35test_to_args_does_not_include_print
FNDA:1,_RNvNtNtNtCs23MeGd5xNbL_10actual_cli6claude7options5testss_36test_clone_produces_independent_copy
FNDA:1,_RNvNtNtNtCs23MeGd5xNbL_10actual_cli6claude7options5testss_41test_to_args_always_includes_common_flags
FNDA:1,_RNvNtNtNtCs23MeGd5xNbL_10actual_cli6claude7options5testss_41test_to_args_includes_max_budget_when_set
FNDA:1,_RNvNtNtNtCs23MeGd5xNbL_10actual_cli6claude7options5testss_42test_to_args_includes_json_schema_when_set
FNDA:65,_RNCNvNtNtNtCs23MeGd5xNbL_10actual_cli6claude7options5tests16assert_arg_value0B9_
FNDA:36,_RNCNvNtNtNtCs23MeGd5xNbL_10actual_cli6claude7options5tests16has_allowed_tool0B9_
FNDA:16,_RNCNvNtNtNtCs23MeGd5xNbL_10actual_cli6claude7options5testss_26test_for_tailoring_no_bash0B9_
FNDA:42,_RNvMNtNtCs23MeGd5xNbL_10actual_cli6claude7optionsNtB2_17InvocationOptions12for_analysis
FNDA:25,_RNvMNtNtCs23MeGd5xNbL_10actual_cli6claude7optionsNtB2_17InvocationOptions13for_tailoring
FNDA:65,_RNvMNtNtCs23MeGd5xNbL_10actual_cli6claude7optionsNtB2_17InvocationOptions7to_args
FNF:19
FNH:19
DA:30,75
DA:31,75
DA:32,75
DA:33,75
DA:34,75
DA:35,75
DA:36,75
DA:37,75
DA:38,75
DA:39,75
DA:40,75
DA:41,75
DA:42,75
DA:43,75
DA:44,75
DA:45,75
DA:50,35
DA:51,35
DA:52,35
DA:53,35
DA:54,35
DA:55,35
DA:56,35
DA:57,35
DA:58,35
DA:59,35
DA:60,35
DA:61,35
DA:62,35
DA:63,35
DA:69,108
DA:70,108
DA:71,108
DA:72,108
DA:73,108
DA:74,108
DA:75,108
DA:76,108
DA:77,108
DA:78,108
DA:79,108
DA:80,108
DA:83,578
DA:84,470
DA:85,470
DA:86,470
DA:88,108
DA:89,99
DA:90,99
DA:91,99
DA:93,108
DA:94,2
DA:95,2
DA:96,106
DA:98,108
DA:99,108
DA:107,1
DA:108,1
DA:109,1
DA:112,1
DA:115,1
DA:118,1
DA:121,1
DA:122,1
DA:123,1
DA:126,1
DA:127,1
DA:128,1
DA:131,1
DA:134,16
DA:135,1
DA:138,1
DA:139,1
DA:140,1
DA:142,1
DA:143,1
DA:144,1
DA:147,1
DA:148,1
DA:149,1
DA:151,1
DA:152,1
DA:155,1
DA:156,1
DA:157,1
DA:159,1
DA:160,1
DA:163,1
DA:164,1
DA:165,1
DA:166,1
DA:168,1
DA:169,1
DA:172,1
DA:173,1
DA:174,1
DA:175,1
DA:177,1
DA:178,1
DA:181,1
DA:182,1
DA:183,1
DA:185,1
DA:186,1
DA:187,1
DA:188,1
DA:191,1
DA:192,1
DA:193,1
DA:195,1
DA:196,1
DA:197,1
DA:200,1
DA:201,1
DA:202,1
DA:203,1
DA:204,1
DA:206,1
DA:207,1
DA:208,1
DA:209,1
DA:210,1
DA:211,1
DA:212,1
DA:215,1
DA:216,1
DA:217,1
DA:218,1
DA:219,1
DA:220,1
DA:223,2
DA:224,2
DA:225,36
DA:226,2
DA:229,9
DA:230,65
DA:231,9
DA:232,9
BRF:0
BRH:0
LF:141
LH:141
end_of_record
SF:/Users/poile/repos/actualai/actual-cli/.worktrees/2u6.4/src/claude/prompts.rs
FN:3,_RNvNtNtCs14eHuuW48ek_10actual_cli6claude7prompts15analysis_prompt
FN:27,_RNvNtNtCs14eHuuW48ek_10actual_cli6claude7prompts16tailoring_prompt
FN:98,_RNvNtNtNtCs23MeGd5xNbL_10actual_cli6claude7prompts5testss_36analysis_prompt_contains_json_schema
FN:89,_RNvNtNtNtCs23MeGd5xNbL_10actual_cli6claude7prompts5testss_40analysis_prompt_contains_workspace_files
FN:129,_RNvNtNtNtCs23MeGd5xNbL_10actual_cli6claude7prompts5testss_41tailoring_prompt_contains_tailor_each_adr
FN:107,_RNvNtNtNtCs23MeGd5xNbL_10actual_cli6claude7prompts5testss_42tailoring_prompt_interpolates_all_sections
FN:138,_RNvNtNtNtCs23MeGd5xNbL_10actual_cli6claude7prompts5testss_43tailoring_prompt_contains_skip_inapplicable
FN:80,_RNvNtNtNtCs23MeGd5xNbL_10actual_cli6claude7prompts5testss_44analysis_prompt_contains_monorepo_indicators
FN:147,_RNvNtNtNtCs23MeGd5xNbL_10actual_cli6claude7prompts5testss_44tailoring_prompt_contains_decide_file_layout
FN:156,_RNvNtNtNtCs23MeGd5xNbL_10actual_cli6claude7prompts5testss_44tailoring_prompt_contains_format_as_markdown
FN:165,_RNvNtNtNtCs23MeGd5xNbL_10actual_cli6claude7prompts5testss_47tailoring_prompt_does_not_panic_on_empty_inputs
FN:3,_RNvNtNtCs23MeGd5xNbL_10actual_cli6claude7prompts15analysis_prompt
FN:27,_RNvNtNtCs23MeGd5xNbL_10actual_cli6claude7prompts16tailoring_prompt
FNDA:33,_RNvNtNtCs14eHuuW48ek_10actual_cli6claude7prompts15analysis_prompt
FNDA:10,_RNvNtNtCs14eHuuW48ek_10actual_cli6claude7prompts16tailoring_prompt
FNDA:1,_RNvNtNtNtCs23MeGd5xNbL_10actual_cli6claude7prompts5testss_36analysis_prompt_contains_json_schema
FNDA:1,_RNvNtNtNtCs23MeGd5xNbL_10actual_cli6claude7prompts5testss_40analysis_prompt_contains_workspace_files
FNDA:1,_RNvNtNtNtCs23MeGd5xNbL_10actual_cli6claude7prompts5testss_41tailoring_prompt_contains_tailor_each_adr
FNDA:1,_RNvNtNtNtCs23MeGd5xNbL_10actual_cli6claude7prompts5testss_42tailoring_prompt_interpolates_all_sections
FNDA:1,_RNvNtNtNtCs23MeGd5xNbL_10actual_cli6claude7prompts5testss_43tailoring_prompt_contains_skip_inapplicable
FNDA:1,_RNvNtNtNtCs23MeGd5xNbL_10actual_cli6claude7prompts5testss_44analysis_prompt_contains_monorepo_indicators
FNDA:1,_RNvNtNtNtCs23MeGd5xNbL_10actual_cli6claude7prompts5testss_44tailoring_prompt_contains_decide_file_layout
FNDA:1,_RNvNtNtNtCs23MeGd5xNbL_10actual_cli6claude7prompts5testss_44tailoring_prompt_contains_format_as_markdown
FNDA:1,_RNvNtNtNtCs23MeGd5xNbL_10actual_cli6claude7prompts5testss_47tailoring_prompt_does_not_panic_on_empty_inputs
FNDA:36,_RNvNtNtCs23MeGd5xNbL_10actual_cli6claude7prompts15analysis_prompt
FNDA:28,_RNvNtNtCs23MeGd5xNbL_10actual_cli6claude7prompts16tailoring_prompt
FNF:11
FNH:11
DA:3,69
DA:4,69
DA:5,69
DA:6,69
DA:7,69
DA:8,69
DA:9,69
DA:10,69
DA:11,69
DA:12,69
DA:13,69
DA:14,69
DA:15,69
DA:16,69
DA:17,69
DA:18,69
DA:19,69
DA:20,69
DA:21,69
DA:22,69
DA:23,69
DA:27,38
DA:28,38
DA:29,38
DA:30,38
DA:31,38
DA:32,38
DA:33,38
DA:34,38
DA:35,38
DA:36,38
DA:37,38
DA:38,38
DA:39,38
DA:40,38
DA:41,38
DA:42,38
DA:43,38
DA:44,38
DA:45,38
DA:46,38
DA:47,38
DA:48,38
DA:49,38
DA:50,38
DA:51,38
DA:52,38
DA:53,38
DA:54,38
DA:55,38
DA:56,38
DA:57,38
DA:58,38
DA:59,38
DA:60,38
DA:61,38
DA:62,38
DA:63,38
DA:64,38
DA:65,38
DA:66,38
DA:67,38
DA:68,38
DA:69,38
DA:70,38
DA:71,38
DA:73,38
DA:80,1
DA:81,1
DA:82,1
DA:83,1
DA:84,0
DA:86,1
DA:89,1
DA:90,1
DA:91,1
DA:92,1
DA:93,0
DA:95,1
DA:98,1
DA:99,1
DA:100,1
DA:101,1
DA:102,0
DA:104,1
DA:107,1
DA:108,1
DA:109,1
DA:110,1
DA:112,1
DA:114,1
DA:115,1
DA:116,0
DA:118,1
DA:119,1
DA:120,0
DA:122,1
DA:123,1
DA:124,0
DA:126,1
DA:129,1
DA:130,1
DA:131,1
DA:132,1
DA:133,0
DA:135,1
DA:138,1
DA:139,1
DA:140,1
DA:141,1
DA:142,0
DA:144,1
DA:147,1
DA:148,1
DA:149,1
DA:150,1
DA:151,0
DA:153,1
DA:156,1
DA:157,1
DA:158,1
DA:159,1
DA:160,0
DA:162,1
DA:165,1
DA:166,1
DA:167,1
DA:168,1
DA:169,0
DA:171,1
BRF:0
BRH:0
LF:130
LH:119
end_of_record
SF:/Users/poile/repos/actualai/actual-cli/.worktrees/2u6.4/src/claude/schemas.rs
FN:151,_RNCNvNtNtNtCs23MeGd5xNbL_10actual_cli6claude7schemas5testss_40repo_analysis_schema_has_required_fields0B9_
FN:168,_RNCNvNtNtNtCs23MeGd5xNbL_10actual_cli6claude7schemas5testss_43tailoring_output_schema_has_required_fields0B9_
FN:132,_RNvNtNtNtCs23MeGd5xNbL_10actual_cli6claude7schemas5testss_34repo_analysis_schema_is_valid_json
FN:139,_RNvNtNtNtCs23MeGd5xNbL_10actual_cli6claude7schemas5testss_37tailoring_output_schema_is_valid_json
FN:146,_RNvNtNtNtCs23MeGd5xNbL_10actual_cli6claude7schemas5testss_40repo_analysis_schema_has_required_fields
FN:163,_RNvNtNtNtCs23MeGd5xNbL_10actual_cli6claude7schemas5testss_43tailoring_output_schema_has_required_fields
FNDA:2,_RNCNvNtNtNtCs23MeGd5xNbL_10actual_cli6claude7schemas5testss_40repo_analysis_schema_has_required_fields0B9_
FNDA:3,_RNCNvNtNtNtCs23MeGd5xNbL_10actual_cli6claude7schemas5testss_43tailoring_output_schema_has_required_fields0B9_
FNDA:1,_RNvNtNtNtCs23MeGd5xNbL_10actual_cli6claude7schemas5testss_34repo_analysis_schema_is_valid_json
FNDA:1,_RNvNtNtNtCs23MeGd5xNbL_10actual_cli6claude7schemas5testss_37tailoring_output_schema_is_valid_json
FNDA:1,_RNvNtNtNtCs23MeGd5xNbL_10actual_cli6claude7schemas5testss_40repo_analysis_schema_has_required_fields
FNDA:1,_RNvNtNtNtCs23MeGd5xNbL_10actual_cli6claude7schemas5testss_43tailoring_output_schema_has_required_fields
FNF:6
FNH:6
DA:132,1
DA:133,1
DA:134,1
DA:135,1
DA:136,1
DA:139,1
DA:140,1
DA:141,1
DA:142,1
DA:143,1
DA:146,1
DA:147,1
DA:148,1
DA:149,1
DA:150,1
DA:151,2
DA:152,1
DA:153,1
DA:154,0
DA:156,1
DA:157,1
DA:158,0
DA:160,1
DA:163,1
DA:164,1
DA:165,1
DA:166,1
DA:167,1
DA:168,3
DA:169,1
DA:170,1
DA:171,0
DA:173,1
DA:174,1
DA:175,0
DA:177,1
DA:178,1
DA:179,0
DA:181,1
BRF:0
BRH:0
LF:41
LH:36
end_of_record
SF:/Users/poile/repos/actualai/actual-cli/.worktrees/2u6.4/src/claude/subprocess.rs
FN:71,_RINvNtNtCs14eHuuW48ek_10actual_cli6claude10subprocess12parse_outputNtNtNtB6_8analysis5types12RepoAnalysisEB6_
FN:71,_RINvNtNtCs14eHuuW48ek_10actual_cli6claude10subprocess12parse_outputNtNtNtB6_9tailoring5types15TailoringOutputEB6_
FN:138,_RINvNtNtCs14eHuuW48ek_10actual_cli6claude10subprocess14run_subprocessNtNtNtB6_8analysis5types12RepoAnalysisEB6_
FN:138,_RINvNtNtCs14eHuuW48ek_10actual_cli6claude10subprocess14run_subprocessNtNtNtB6_9tailoring5types15TailoringOutputEB6_
FN:164,_RINvXs_NtNtCs14eHuuW48ek_10actual_cli6claude10subprocessNtB5_15CliClaudeRunnerNtB5_12ClaudeRunner3runNtNtNtB9_8analysis5types12RepoAnalysisEB9_
FN:164,_RINvXs_NtNtCs14eHuuW48ek_10actual_cli6claude10subprocessNtB5_15CliClaudeRunnerNtB5_12ClaudeRunner3runNtNtNtB9_9tailoring5types15TailoringOutputEB9_
FN:77,_RNCINvNtNtCs14eHuuW48ek_10actual_cli6claude10subprocess12parse_outputNtNtNtB8_8analysis5types12RepoAnalysisE0B8_
FN:92,_RNCINvNtNtCs14eHuuW48ek_10actual_cli6claude10subprocess12parse_outputNtNtNtB8_8analysis5types12RepoAnalysisEs0_0B8_
FN:104,_RNCINvNtNtCs14eHuuW48ek_10actual_cli6claude10subprocess12parse_outputNtNtNtB8_8analysis5types12RepoAnalysisEs1_0B8_
FN:78,_RNCINvNtNtCs14eHuuW48ek_10actual_cli6claude10subprocess12parse_outputNtNtNtB8_8analysis5types12RepoAnalysisEs_0B8_
FN:77,_RNCINvNtNtCs14eHuuW48ek_10actual_cli6claude10subprocess12parse_outputNtNtNtB8_9tailoring5types15TailoringOutputE0B8_
FN:92,_RNCINvNtNtCs14eHuuW48ek_10actual_cli6claude10subprocess12parse_outputNtNtNtB8_9tailoring5types15TailoringOutputEs0_0B8_
FN:104,_RNCINvNtNtCs14eHuuW48ek_10actual_cli6claude10subprocess12parse_outputNtNtNtB8_9tailoring5types15TailoringOutputEs1_0B8_
FN:78,_RNCINvNtNtCs14eHuuW48ek_10actual_cli6claude10subprocess12parse_outputNtNtNtB8_9tailoring5types15TailoringOutputEs_0B8_
FN:142,_RNCINvNtNtCs14eHuuW48ek_10actual_cli6claude10subprocess14run_subprocessNtNtNtB8_8analysis5types12RepoAnalysisE0B8_
FN:142,_RNCINvNtNtCs14eHuuW48ek_10actual_cli6claude10subprocess14run_subprocessNtNtNtB8_9tailoring5types15TailoringOutputE0B8_
FN:164,_RNCINvXs_NtNtCs14eHuuW48ek_10actual_cli6claude10subprocessNtB7_15CliClaudeRunnerNtB7_12ClaudeRunner3runNtNtNtBb_8analysis5types12RepoAnalysisE0Bb_
FN:164,_RNCINvXs_NtNtCs14eHuuW48ek_10actual_cli6claude10subprocessNtB7_15CliClaudeRunnerNtB7_12ClaudeRunner3runNtNtNtBb_9tailoring5types15TailoringOutputE0Bb_
FN:155,_RNCNCINvNtNtCs14eHuuW48ek_10actual_cli6claude10subprocess14run_subprocessNtNtNtBa_8analysis5types12RepoAnalysisE00Ba_
FN:155,_RNCNCINvNtNtCs14eHuuW48ek_10actual_cli6claude10subprocess14run_subprocessNtNtNtBa_9tailoring5types15TailoringOutputE00Ba_
FN:47,_RNvMNtNtCs14eHuuW48ek_10actual_cli6claude10subprocessNtB2_15CliClaudeRunner3new
FN:121,_RNvNtNtCs14eHuuW48ek_10actual_cli6claude10subprocess14resolve_output
FN:56,_RNvNtNtCs14eHuuW48ek_10actual_cli6claude10subprocess6io_err
FN:408,_RNvNtNtNtCs23MeGd5xNbL_10actual_cli6claude10subprocess5tests14success_output
FN:183,_RNvNtNtNtCs23MeGd5xNbL_10actual_cli6claude10subprocess5tests15timeout_seconds
FN:176,_RNvNtNtNtCs23MeGd5xNbL_10actual_cli6claude10subprocess5tests17subprocess_failed
FN:267,_RNvNtNtNtCs23MeGd5xNbL_10actual_cli6claude10subprocess5testss_23test_cli_runner_success
FN:287,_RNvNtNtNtCs23MeGd5xNbL_10actual_cli6claude10subprocess5testss_23test_cli_runner_timeout
FN:213,_RNvNtNtNtCs23MeGd5xNbL_10actual_cli6claude10subprocess5testss_23test_mock_claude_runner
FN:334,_RNvNtNtNtCs23MeGd5xNbL_10actual_cli6claude10subprocess5testss_27test_cli_runner_passes_args
FN:370,_RNvNtNtNtCs23MeGd5xNbL_10actual_cli6claude10subprocess5testss_27test_resolve_output_success
FN:392,_RNvNtNtNtCs23MeGd5xNbL_10actual_cli6claude10subprocess5testss_27test_resolve_output_timeout
FN:246,_RNvNtNtNtCs23MeGd5xNbL_10actual_cli6claude10subprocess5testss_28test_cli_runner_invalid_json
FN:382,_RNvNtNtNtCs23MeGd5xNbL_10actual_cli6claude10subprocess5testss_28test_resolve_output_io_error
FN:301,_RNvNtNtNtCs23MeGd5xNbL_10actual_cli6claude10subprocess5testss_29test_cli_runner_spawn_failure
FN:495,_RNvNtNtNtCs23MeGd5xNbL_10actual_cli6claude10subprocess5testss_31test_parse_fallback_direct_json
FN:315,_RNvNtNtNtCs23MeGd5xNbL_10actual_cli6claude10subprocess5testss_32test_cli_runner_killed_by_signal
FN:448,_RNvNtNtNtCs23MeGd5xNbL_10actual_cli6claude10subprocess5testss_33test_parse_envelope_is_error_true
FN:225,_RNvNtNtNtCs23MeGd5xNbL_10actual_cli6claude10subprocess5testss_34test_cli_runner_subprocess_failure
FN:464,_RNvNtNtNtCs23MeGd5xNbL_10actual_cli6claude10subprocess5testss_35test_parse_envelope_error_max_turns
FN:204,_RNvNtNtNtCs23MeGd5xNbL_10actual_cli6claude10subprocess5testss_36test_mock_claude_runner_invalid_json
FN:361,_RNvNtNtNtCs23MeGd5xNbL_10actual_cli6claude10subprocess5testss_38test_io_err_produces_subprocess_failed
FN:480,_RNvNtNtNtCs23MeGd5xNbL_10actual_cli6claude10subprocess5testss_45test_parse_envelope_missing_structured_output
FN:427,_RNvNtNtNtCs23MeGd5xNbL_10actual_cli6claude10subprocess5testss_46test_parse_envelope_extracts_structured_output
FN:194,_RINvXNtNtNtCs23MeGd5xNbL_10actual_cli6claude10subprocess5testsNtB3_16MockClaudeRunnerNtB5_12ClaudeRunner3runNtNtCshA07nRiVXfX_10serde_json5value5ValueEB9_
FN:197,_RNCINvXNtNtNtCs23MeGd5xNbL_10actual_cli6claude10subprocess5testsNtB5_16MockClaudeRunnerNtB7_12ClaudeRunner3runNtNtCshA07nRiVXfX_10serde_json5value5ValueE0Bb_
FN:267,_RNCNvNtNtNtCs23MeGd5xNbL_10actual_cli6claude10subprocess5testss_23test_cli_runner_success0B9_
FN:287,_RNCNvNtNtNtCs23MeGd5xNbL_10actual_cli6claude10subprocess5testss_23test_cli_runner_timeout0B9_
FN:213,_RNCNvNtNtNtCs23MeGd5xNbL_10actual_cli6claude10subprocess5testss_23test_mock_claude_runner0B9_
FN:334,_RNCNvNtNtNtCs23MeGd5xNbL_10actual_cli6claude10subprocess5testss_27test_cli_runner_passes_args0B9_
FN:392,_RNCNvNtNtNtCs23MeGd5xNbL_10actual_cli6claude10subprocess5testss_27test_resolve_output_timeout0B9_
FN:246,_RNCNvNtNtNtCs23MeGd5xNbL_10actual_cli6claude10subprocess5testss_28test_cli_runner_invalid_json0B9_
FN:301,_RNCNvNtNtNtCs23MeGd5xNbL_10actual_cli6claude10subprocess5testss_29test_cli_runner_spawn_failure0B9_
FN:315,_RNCNvNtNtNtCs23MeGd5xNbL_10actual_cli6claude10subprocess5testss_32test_cli_runner_killed_by_signal0B9_
FN:225,_RNCNvNtNtNtCs23MeGd5xNbL_10actual_cli6claude10subprocess5testss_34test_cli_runner_subprocess_failure0B9_
FN:204,_RNCNvNtNtNtCs23MeGd5xNbL_10actual_cli6claude10subprocess5testss_36test_mock_claude_runner_invalid_json0B9_
FN:47,_RNvMNtNtCs23MeGd5xNbL_10actual_cli6claude10subprocessNtB2_15CliClaudeRunner3new
FN:121,_RNvNtNtCs23MeGd5xNbL_10actual_cli6claude10subprocess14resolve_output
FN:56,_RNvNtNtCs23MeGd5xNbL_10actual_cli6claude10subprocess6io_err
FN:71,_RINvNtNtCs23MeGd5xNbL_10actual_cli6claude10subprocess12parse_outputNtNtB2_5tests10TestOutputEB6_
FN:71,_RINvNtNtCs23MeGd5xNbL_10actual_cli6claude10subprocess12parse_outputNtNtCshA07nRiVXfX_10serde_json5value5ValueEB6_
FN:71,_RINvNtNtCs23MeGd5xNbL_10actual_cli6claude10subprocess12parse_outputNtNtNtB6_8analysis5types12RepoAnalysisEB6_
FN:71,_RINvNtNtCs23MeGd5xNbL_10actual_cli6claude10subprocess12parse_outputNtNtNtB6_9tailoring5types15TailoringOutputEB6_
FN:138,_RINvNtNtCs23MeGd5xNbL_10actual_cli6claude10subprocess14run_subprocessNtNtB2_5tests10TestOutputEB6_
FN:138,_RINvNtNtCs23MeGd5xNbL_10actual_cli6claude10subprocess14run_subprocessNtNtCshA07nRiVXfX_10serde_json5value5ValueEB6_
FN:138,_RINvNtNtCs23MeGd5xNbL_10actual_cli6claude10subprocess14run_subprocessNtNtNtB6_8analysis5types12RepoAnalysisEB6_
FN:138,_RINvNtNtCs23MeGd5xNbL_10actual_cli6claude10subprocess14run_subprocessNtNtNtB6_9tailoring5types15TailoringOutputEB6_
FN:164,_RINvXs_NtNtCs23MeGd5xNbL_10actual_cli6claude10subprocessNtB5_15CliClaudeRunnerNtB5_12ClaudeRunner3runNtNtB5_5tests10TestOutputEB9_
FN:164,_RINvXs_NtNtCs23MeGd5xNbL_10actual_cli6claude10subprocessNtB5_15CliClaudeRunnerNtB5_12ClaudeRunner3runNtNtCshA07nRiVXfX_10serde_json5value5ValueEB9_
FN:164,_RINvXs_NtNtCs23MeGd5xNbL_10actual_cli6claude10subprocessNtB5_15CliClaudeRunnerNtB5_12ClaudeRunner3runNtNtNtB9_8analysis5types12RepoAnalysisEB9_
FN:164,_RINvXs_NtNtCs23MeGd5xNbL_10actual_cli6claude10subprocessNtB5_15CliClaudeRunnerNtB5_12ClaudeRunner3runNtNtNtB9_9tailoring5types15TailoringOutputEB9_
FN:77,_RNCINvNtNtCs23MeGd5xNbL_10actual_cli6claude10subprocess12parse_outputNtNtB4_5tests10TestOutputE0B8_
FN:92,_RNCINvNtNtCs23MeGd5xNbL_10actual_cli6claude10subprocess12parse_outputNtNtB4_5tests10TestOutputEs0_0B8_
FN:104,_RNCINvNtNtCs23MeGd5xNbL_10actual_cli6claude10subprocess12parse_outputNtNtB4_5tests10TestOutputEs1_0B8_
FN:78,_RNCINvNtNtCs23MeGd5xNbL_10actual_cli6claude10subprocess12parse_outputNtNtB4_5tests10TestOutputEs_0B8_
FN:77,_RNCINvNtNtCs23MeGd5xNbL_10actual_cli6claude10subprocess12parse_outputNtNtCshA07nRiVXfX_10serde_json5value5ValueE0B8_
FN:92,_RNCINvNtNtCs23MeGd5xNbL_10actual_cli6claude10subprocess12parse_outputNtNtCshA07nRiVXfX_10serde_json5value5ValueEs0_0B8_
FN:104,_RNCINvNtNtCs23MeGd5xNbL_10actual_cli6claude10subprocess12parse_outputNtNtCshA07nRiVXfX_10serde_json5value5ValueEs1_0B8_
FN:78,_RNCINvNtNtCs23MeGd5xNbL_10actual_cli6claude10subprocess12parse_outputNtNtCshA07nRiVXfX_10serde_json5value5ValueEs_0B8_
FN:77,_RNCINvNtNtCs23MeGd5xNbL_10actual_cli6claude10subprocess12parse_outputNtNtNtB8_8analysis5types12RepoAnalysisE0B8_
FN:92,_RNCINvNtNtCs23MeGd5xNbL_10actual_cli6claude10subprocess12parse_outputNtNtNtB8_8analysis5types12RepoAnalysisEs0_0B8_
FN:104,_RNCINvNtNtCs23MeGd5xNbL_10actual_cli6claude10subprocess12parse_outputNtNtNtB8_8analysis5types12RepoAnalysisEs1_0B8_
FN:78,_RNCINvNtNtCs23MeGd5xNbL_10actual_cli6claude10subprocess12parse_outputNtNtNtB8_8analysis5types12RepoAnalysisEs_0B8_
FN:77,_RNCINvNtNtCs23MeGd5xNbL_10actual_cli6claude10subprocess12parse_outputNtNtNtB8_9tailoring5types15TailoringOutputE0B8_
FN:92,_RNCINvNtNtCs23MeGd5xNbL_10actual_cli6claude10subprocess12parse_outputNtNtNtB8_9tailoring5types15TailoringOutputEs0_0B8_
FN:104,_RNCINvNtNtCs23MeGd5xNbL_10actual_cli6claude10subprocess12parse_outputNtNtNtB8_9tailoring5types15TailoringOutputEs1_0B8_
FN:78,_RNCINvNtNtCs23MeGd5xNbL_10actual_cli6claude10subprocess12parse_outputNtNtNtB8_9tailoring5types15TailoringOutputEs_0B8_
FN:142,_RNCINvNtNtCs23MeGd5xNbL_10actual_cli6claude10subprocess14run_subprocessNtNtB4_5tests10TestOutputE0B8_
FN:142,_RNCINvNtNtCs23MeGd5xNbL_10actual_cli6claude10subprocess14run_subprocessNtNtCshA07nRiVXfX_10serde_json5value5ValueE0B8_
FN:142,_RNCINvNtNtCs23MeGd5xNbL_10actual_cli6claude10subprocess14run_subprocessNtNtNtB8_8analysis5types12RepoAnalysisE0B8_
FN:142,_RNCINvNtNtCs23MeGd5xNbL_10actual_cli6claude10subprocess14run_subprocessNtNtNtB8_9tailoring5types15TailoringOutputE0B8_
FN:164,_RNCINvXs_NtNtCs23MeGd5xNbL_10actual_cli6claude10subprocessNtB7_15CliClaudeRunnerNtB7_12ClaudeRunner3runNtNtB7_5tests10TestOutputE0Bb_
FN:164,_RNCINvXs_NtNtCs23MeGd5xNbL_10actual_cli6claude10subprocessNtB7_15CliClaudeRunnerNtB7_12ClaudeRunner3runNtNtCshA07nRiVXfX_10serde_json5value5ValueE0Bb_
FN:164,_RNCINvXs_NtNtCs23MeGd5xNbL_10actual_cli6claude10subprocessNtB7_15CliClaudeRunnerNtB7_12ClaudeRunner3runNtNtNtBb_8analysis5types12RepoAnalysisE0Bb_
FN:164,_RNCINvXs_NtNtCs23MeGd5xNbL_10actual_cli6claude10subprocessNtB7_15CliClaudeRunnerNtB7_12ClaudeRunner3runNtNtNtBb_9tailoring5types15TailoringOutputE0Bb_
FN:155,_RNCNCINvNtNtCs23MeGd5xNbL_10actual_cli6claude10subprocess14run_subprocessNtNtB6_5tests10TestOutputE00Ba_
FN:155,_RNCNCINvNtNtCs23MeGd5xNbL_10actual_cli6claude10subprocess14run_subprocessNtNtCshA07nRiVXfX_10serde_json5value5ValueE00Ba_
FN:155,_RNCNCINvNtNtCs23MeGd5xNbL_10actual_cli6claude10subprocess14run_subprocessNtNtNtBa_8analysis5types12RepoAnalysisE00Ba_
FN:155,_RNCNCINvNtNtCs23MeGd5xNbL_10actual_cli6claude10subprocess14run_subprocessNtNtNtBa_9tailoring5types15TailoringOutputE00Ba_
FNDA:34,_RINvNtNtCs14eHuuW48ek_10actual_cli6claude10subprocess12parse_outputNtNtNtB6_8analysis5types12RepoAnalysisEB6_
FNDA:11,_RINvNtNtCs14eHuuW48ek_10actual_cli6claude10subprocess12parse_outputNtNtNtB6_9tailoring5types15TailoringOutputEB6_
FNDA:34,_RINvNtNtCs14eHuuW48ek_10actual_cli6claude10subprocess14run_subprocessNtNtNtB6_8analysis5types12RepoAnalysisEB6_
FNDA:11,_RINvNtNtCs14eHuuW48ek_10actual_cli6claude10subprocess14run_subprocessNtNtNtB6_9tailoring5types15TailoringOutputEB6_
FNDA:34,_RINvXs_NtNtCs14eHuuW48ek_10actual_cli6claude10subprocessNtB5_15CliClaudeRunnerNtB5_12ClaudeRunner3runNtNtNtB9_8analysis5types12RepoAnalysisEB9_
FNDA:11,_RINvXs_NtNtCs14eHuuW48ek_10actual_cli6claude10subprocessNtB5_15CliClaudeRunnerNtB5_12ClaudeRunner3runNtNtNtB9_9tailoring5types15TailoringOutputEB9_
FNDA:0,_RNCINvNtNtCs14eHuuW48ek_10actual_cli6claude10subprocess12parse_outputNtNtNtB8_8analysis5types12RepoAnalysisE0B8_
FNDA:0,_RNCINvNtNtCs14eHuuW48ek_10actual_cli6claude10subprocess12parse_outputNtNtNtB8_8analysis5types12RepoAnalysisEs0_0B8_
FNDA:0,_RNCINvNtNtCs14eHuuW48ek_10actual_cli6claude10subprocess12parse_outputNtNtNtB8_8analysis5types12RepoAnalysisEs1_0B8_
FNDA:0,_RNCINvNtNtCs14eHuuW48ek_10actual_cli6claude10subprocess12parse_outputNtNtNtB8_8analysis5types12RepoAnalysisEs_0B8_
FNDA:1,_RNCINvNtNtCs14eHuuW48ek_10actual_cli6claude10subprocess12parse_outputNtNtNtB8_9tailoring5types15TailoringOutputE0B8_
FNDA:0,_RNCINvNtNtCs14eHuuW48ek_10actual_cli6claude10subprocess12parse_outputNtNtNtB8_9tailoring5types15TailoringOutputEs0_0B8_
FNDA:0,_RNCINvNtNtCs14eHuuW48ek_10actual_cli6claude10subprocess12parse_outputNtNtNtB8_9tailoring5types15TailoringOutputEs1_0B8_
FNDA:0,_RNCINvNtNtCs14eHuuW48ek_10actual_cli6claude10subprocess12parse_outputNtNtNtB8_9tailoring5types15TailoringOutputEs_0B8_
FNDA:34,_RNCINvNtNtCs14eHuuW48ek_10actual_cli6claude10subprocess14run_subprocessNtNtNtB8_8analysis5types12RepoAnalysisE0B8_
FNDA:11,_RNCINvNtNtCs14eHuuW48ek_10actual_cli6claude10subprocess14run_subprocessNtNtNtB8_9tailoring5types15TailoringOutputE0B8_
FNDA:34,_RNCINvXs_NtNtCs14eHuuW48ek_10actual_cli6claude10subprocessNtB7_15CliClaudeRunnerNtB7_12ClaudeRunner3runNtNtNtBb_8analysis5types12RepoAnalysisE0Bb_
FNDA:11,_RNCINvXs_NtNtCs14eHuuW48ek_10actual_cli6claude10subprocessNtB7_15CliClaudeRunnerNtB7_12ClaudeRunner3runNtNtNtBb_9tailoring5types15TailoringOutputE0Bb_
FNDA:0,_RNCNCINvNtNtCs14eHuuW48ek_10actual_cli6claude10subprocess14run_subprocessNtNtNtBa_8analysis5types12RepoAnalysisE00Ba_
FNDA:0,_RNCNCINvNtNtCs14eHuuW48ek_10actual_cli6claude10subprocess14run_subprocessNtNtNtBa_9tailoring5types15TailoringOutputE00Ba_
FNDA:33,_RNvMNtNtCs14eHuuW48ek_10actual_cli6claude10subprocessNtB2_15CliClaudeRunner3new
FNDA:45,_RNvNtNtCs14eHuuW48ek_10actual_cli6claude10subprocess14resolve_output
FNDA:0,_RNvNtNtCs14eHuuW48ek_10actual_cli6claude10subprocess6io_err
FNDA:5,_RNvNtNtNtCs23MeGd5xNbL_10actual_cli6claude10subprocess5tests14success_output
FNDA:2,_RNvNtNtNtCs23MeGd5xNbL_10actual_cli6claude10subprocess5tests15timeout_seconds
FNDA:8,_RNvNtNtNtCs23MeGd5xNbL_10actual_cli6claude10subprocess5tests17subprocess_failed
FNDA:1,_RNvNtNtNtCs23MeGd5xNbL_10actual_cli6claude10subprocess5testss_23test_cli_runner_success
FNDA:1,_RNvNtNtNtCs23MeGd5xNbL_10actual_cli6claude10subprocess5testss_23test_cli_runner_timeout
FNDA:1,_RNvNtNtNtCs23MeGd5xNbL_10actual_cli6claude10subprocess5testss_23test_mock_claude_runner
FNDA:1,_RNvNtNtNtCs23MeGd5xNbL_10actual_cli6claude10subprocess5testss_27test_cli_runner_passes_args
FNDA:1,_RNvNtNtNtCs23MeGd5xNbL_10actual_cli6claude10subprocess5testss_27test_resolve_output_success
FNDA:1,_RNvNtNtNtCs23MeGd5xNbL_10actual_cli6claude10subprocess5testss_27test_resolve_output_timeout
FNDA:1,_RNvNtNtNtCs23MeGd5xNbL_10actual_cli6claude10subprocess5testss_28test_cli_runner_invalid_json
FNDA:1,_RNvNtNtNtCs23MeGd5xNbL_10actual_cli6claude10subprocess5testss_28test_resolve_output_io_error
FNDA:1,_RNvNtNtNtCs23MeGd5xNbL_10actual_cli6claude10subprocess5testss_29test_cli_runner_spawn_failure
FNDA:1,_RNvNtNtNtCs23MeGd5xNbL_10actual_cli6claude10subprocess5testss_31test_parse_fallback_direct_json
FNDA:1,_RNvNtNtNtCs23MeGd5xNbL_10actual_cli6claude10subprocess5testss_32test_cli_runner_killed_by_signal
FNDA:1,_RNvNtNtNtCs23MeGd5xNbL_10actual_cli6claude10subprocess5testss_33test_parse_envelope_is_error_true
FNDA:1,_RNvNtNtNtCs23MeGd5xNbL_10actual_cli6claude10subprocess5testss_34test_cli_runner_subprocess_failure
FNDA:1,_RNvNtNtNtCs23MeGd5xNbL_10actual_cli6claude10subprocess5testss_35test_parse_envelope_error_max_turns
FNDA:1,_RNvNtNtNtCs23MeGd5xNbL_10actual_cli6claude10subprocess5testss_36test_mock_claude_runner_invalid_json
FNDA:1,_RNvNtNtNtCs23MeGd5xNbL_10actual_cli6claude10subprocess5testss_38test_io_err_produces_subprocess_failed
FNDA:1,_RNvNtNtNtCs23MeGd5xNbL_10actual_cli6claude10subprocess5testss_45test_parse_envelope_missing_structured_output
FNDA:1,_RNvNtNtNtCs23MeGd5xNbL_10actual_cli6claude10subprocess5testss_46test_parse_envelope_extracts_structured_output
FNDA:2,_RINvXNtNtNtCs23MeGd5xNbL_10actual_cli6claude10subprocess5testsNtB3_16MockClaudeRunnerNtB5_12ClaudeRunner3runNtNtCshA07nRiVXfX_10serde_json5value5ValueEB9_
FNDA:2,_RNCINvXNtNtNtCs23MeGd5xNbL_10actual_cli6claude10subprocess5testsNtB5_16MockClaudeRunnerNtB7_12ClaudeRunner3runNtNtCshA07nRiVXfX_10serde_json5value5ValueE0Bb_
FNDA:1,_RNCNvNtNtNtCs23MeGd5xNbL_10actual_cli6claude10subprocess5testss_23test_cli_runner_success0B9_
FNDA:1,_RNCNvNtNtNtCs23MeGd5xNbL_10actual_cli6claude10subprocess5testss_23test_cli_runner_timeout0B9_
FNDA:1,_RNCNvNtNtNtCs23MeGd5xNbL_10actual_cli6claude10subprocess5testss_23test_mock_claude_runner0B9_
FNDA:1,_RNCNvNtNtNtCs23MeGd5xNbL_10actual_cli6claude10subprocess5testss_27test_cli_runner_passes_args0B9_
FNDA:1,_RNCNvNtNtNtCs23MeGd5xNbL_10actual_cli6claude10subprocess5testss_27test_resolve_output_timeout0B9_
FNDA:1,_RNCNvNtNtNtCs23MeGd5xNbL_10actual_cli6claude10subprocess5testss_28test_cli_runner_invalid_json0B9_
FNDA:1,_RNCNvNtNtNtCs23MeGd5xNbL_10actual_cli6claude10subprocess5testss_29test_cli_runner_spawn_failure0B9_
FNDA:1,_RNCNvNtNtNtCs23MeGd5xNbL_10actual_cli6claude10subprocess5testss_32test_cli_runner_killed_by_signal0B9_
FNDA:1,_RNCNvNtNtNtCs23MeGd5xNbL_10actual_cli6claude10subprocess5testss_34test_cli_runner_subprocess_failure0B9_
FNDA:1,_RNCNvNtNtNtCs23MeGd5xNbL_10actual_cli6claude10subprocess5testss_36test_mock_claude_runner_invalid_json0B9_
FNDA:7,_RNvMNtNtCs23MeGd5xNbL_10actual_cli6claude10subprocessNtB2_15CliClaudeRunner3new
FNDA:9,_RNvNtNtCs23MeGd5xNbL_10actual_cli6claude10subprocess14resolve_output
FNDA:3,_RNvNtNtCs23MeGd5xNbL_10actual_cli6claude10subprocess6io_err
FNDA:6,_RINvNtNtCs23MeGd5xNbL_10actual_cli6claude10subprocess12parse_outputNtNtB2_5tests10TestOutputEB6_
FNDA:4,_RINvNtNtCs23MeGd5xNbL_10actual_cli6claude10subprocess12parse_outputNtNtCshA07nRiVXfX_10serde_json5value5ValueEB6_
FNDA:0,_RINvNtNtCs23MeGd5xNbL_10actual_cli6claude10subprocess12parse_outputNtNtNtB6_8analysis5types12RepoAnalysisEB6_
FNDA:0,_RINvNtNtCs23MeGd5xNbL_10actual_cli6claude10subprocess12parse_outputNtNtNtB6_9tailoring5types15TailoringOutputEB6_
FNDA:1,_RINvNtNtCs23MeGd5xNbL_10actual_cli6claude10subprocess14run_subprocessNtNtB2_5tests10TestOutputEB6_
FNDA:6,_RINvNtNtCs23MeGd5xNbL_10actual_cli6claude10subprocess14run_subprocessNtNtCshA07nRiVXfX_10serde_json5value5ValueEB6_
FNDA:0,_RINvNtNtCs23MeGd5xNbL_10actual_cli6claude10subprocess14run_subprocessNtNtNtB6_8analysis5types12RepoAnalysisEB6_
FNDA:0,_RINvNtNtCs23MeGd5xNbL_10actual_cli6claude10subprocess14run_subprocessNtNtNtB6_9tailoring5types15TailoringOutputEB6_
FNDA:1,_RINvXs_NtNtCs23MeGd5xNbL_10actual_cli6claude10subprocessNtB5_15CliClaudeRunnerNtB5_12ClaudeRunner3runNtNtB5_5tests10TestOutputEB9_
FNDA:6,_RINvXs_NtNtCs23MeGd5xNbL_10actual_cli6claude10subprocessNtB5_15CliClaudeRunnerNtB5_12ClaudeRunner3runNtNtCshA07nRiVXfX_10serde_json5value5ValueEB9_
FNDA:0,_RINvXs_NtNtCs23MeGd5xNbL_10actual_cli6claude10subprocessNtB5_15CliClaudeRunnerNtB5_12ClaudeRunner3runNtNtNtB9_8analysis5types12RepoAnalysisEB9_
FNDA:0,_RINvXs_NtNtCs23MeGd5xNbL_10actual_cli6claude10subprocessNtB5_15CliClaudeRunnerNtB5_12ClaudeRunner3runNtNtNtB9_9tailoring5types15TailoringOutputEB9_
FNDA:0,_RNCINvNtNtCs23MeGd5xNbL_10actual_cli6claude10subprocess12parse_outputNtNtB4_5tests10TestOutputE0B8_
FNDA:0,_RNCINvNtNtCs23MeGd5xNbL_10actual_cli6claude10subprocess12parse_outputNtNtB4_5tests10TestOutputEs0_0B8_
FNDA:1,_RNCINvNtNtCs23MeGd5xNbL_10actual_cli6claude10subprocess12parse_outputNtNtB4_5tests10TestOutputEs1_0B8_
FNDA:0,_RNCINvNtNtCs23MeGd5xNbL_10actual_cli6claude10subprocess12parse_outputNtNtB4_5tests10TestOutputEs_0B8_
FNDA:1,_RNCINvNtNtCs23MeGd5xNbL_10actual_cli6claude10subprocess12parse_outputNtNtCshA07nRiVXfX_10serde_json5value5ValueE0B8_
FNDA:0,_RNCINvNtNtCs23MeGd5xNbL_10actual_cli6claude10subprocess12parse_outputNtNtCshA07nRiVXfX_10serde_json5value5ValueEs0_0B8_
FNDA:0,_RNCINvNtNtCs23MeGd5xNbL_10actual_cli6claude10subprocess12parse_outputNtNtCshA07nRiVXfX_10serde_json5value5ValueEs1_0B8_
FNDA:1,_RNCINvNtNtCs23MeGd5xNbL_10actual_cli6claude10subprocess12parse_outputNtNtCshA07nRiVXfX_10serde_json5value5ValueEs_0B8_
FNDA:0,_RNCINvNtNtCs23MeGd5xNbL_10actual_cli6claude10subprocess12parse_outputNtNtNtB8_8analysis5types12RepoAnalysisE0B8_
FNDA:0,_RNCINvNtNtCs23MeGd5xNbL_10actual_cli6claude10subprocess12parse_outputNtNtNtB8_8analysis5types12RepoAnalysisEs0_0B8_
FNDA:0,_RNCINvNtNtCs23MeGd5xNbL_10actual_cli6claude10subprocess12parse_outputNtNtNtB8_8analysis5types12RepoAnalysisEs1_0B8_
FNDA:0,_RNCINvNtNtCs23MeGd5xNbL_10actual_cli6claude10subprocess12parse_outputNtNtNtB8_8analysis5types12RepoAnalysisEs_0B8_
FNDA:0,_RNCINvNtNtCs23MeGd5xNbL_10actual_cli6claude10subprocess12parse_outputNtNtNtB8_9tailoring5types15TailoringOutputE0B8_
FNDA:0,_RNCINvNtNtCs23MeGd5xNbL_10actual_cli6claude10subprocess12parse_outputNtNtNtB8_9tailoring5types15TailoringOutputEs0_0B8_
FNDA:0,_RNCINvNtNtCs23MeGd5xNbL_10actual_cli6claude10subprocess12parse_outputNtNtNtB8_9tailoring5types15TailoringOutputEs1_0B8_
FNDA:0,_RNCINvNtNtCs23MeGd5xNbL_10actual_cli6claude10subprocess12parse_outputNtNtNtB8_9tailoring5types15TailoringOutputEs_0B8_
FNDA:1,_RNCINvNtNtCs23MeGd5xNbL_10actual_cli6claude10subprocess14run_subprocessNtNtB4_5tests10TestOutputE0B8_
FNDA:6,_RNCINvNtNtCs23MeGd5xNbL_10actual_cli6claude10subprocess14run_subprocessNtNtCshA07nRiVXfX_10serde_json5value5ValueE0B8_
FNDA:0,_RNCINvNtNtCs23MeGd5xNbL_10actual_cli6claude10subprocess14run_subprocessNtNtNtB8_8analysis5types12RepoAnalysisE0B8_
FNDA:0,_RNCINvNtNtCs23MeGd5xNbL_10actual_cli6claude10subprocess14run_subprocessNtNtNtB8_9tailoring5types15TailoringOutputE0B8_
FNDA:1,_RNCINvXs_NtNtCs23MeGd5xNbL_10actual_cli6claude10subprocessNtB7_15CliClaudeRunnerNtB7_12ClaudeRunner3runNtNtB7_5tests10TestOutputE0Bb_
FNDA:6,_RNCINvXs_NtNtCs23MeGd5xNbL_10actual_cli6claude10subprocessNtB7_15CliClaudeRunnerNtB7_12ClaudeRunner3runNtNtCshA07nRiVXfX_10serde_json5value5ValueE0Bb_
FNDA:0,_RNCINvXs_NtNtCs23MeGd5xNbL_10actual_cli6claude10subprocessNtB7_15CliClaudeRunnerNtB7_12ClaudeRunner3runNtNtNtBb_8analysis5types12RepoAnalysisE0Bb_
FNDA:0,_RNCINvXs_NtNtCs23MeGd5xNbL_10actual_cli6claude10subprocessNtB7_15CliClaudeRunnerNtB7_12ClaudeRunner3runNtNtNtBb_9tailoring5types15TailoringOutputE0Bb_
FNDA:0,_RNCNCINvNtNtCs23MeGd5xNbL_10actual_cli6claude10subprocess14run_subprocessNtNtB6_5tests10TestOutputE00Ba_
FNDA:1,_RNCNCINvNtNtCs23MeGd5xNbL_10actual_cli6claude10subprocess14run_subprocessNtNtCshA07nRiVXfX_10serde_json5value5ValueE00Ba_
FNDA:0,_RNCNCINvNtNtCs23MeGd5xNbL_10actual_cli6claude10subprocess14run_subprocessNtNtNtBa_8analysis5types12RepoAnalysisE00Ba_
FNDA:0,_RNCNCINvNtNtCs23MeGd5xNbL_10actual_cli6claude10subprocess14run_subprocessNtNtNtBa_9tailoring5types15TailoringOutputE00Ba_
FNF:46
FNH:45
DA:47,40
DA:48,40
DA:49,40
DA:50,40
DA:51,40
DA:52,40
DA:56,3
DA:57,3
DA:58,3
DA:59,3
DA:60,3
DA:61,3
DA:71,55
DA:72,55
DA:73,3
DA:74,3
DA:75,3
DA:76,3
DA:77,3
DA:78,3
DA:79,3
DA:80,3
DA:81,3
DA:82,3
DA:83,52
DA:86,52
DA:88,47
DA:90,2
DA:91,2
DA:92,2
DA:93,2
DA:94,2
DA:95,2
DA:96,2
DA:97,45
DA:100,45
DA:101,2
DA:102,2
DA:103,2
DA:104,1
DA:105,1
DA:106,1
DA:107,43
DA:108,5
DA:111,48
DA:112,43
DA:113,55
DA:121,54
DA:122,54
DA:123,54
DA:124,54
DA:125,52
DA:126,51
DA:127,1
DA:128,2
DA:129,2
DA:130,2
DA:132,54
DA:138,52
DA:139,52
DA:140,52
DA:141,52
DA:142,52
DA:143,52
DA:144,52
DA:145,52
DA:149,52
DA:151,52
DA:152,52
DA:153,52
DA:154,52
DA:155,52
DA:157,51
DA:158,51
DA:160,50
DA:161,52
DA:164,52
DA:165,52
DA:166,52
DA:176,8
DA:177,8
DA:178,8
DA:179,8
DA:183,2
DA:184,2
DA:185,2
DA:186,2
DA:194,2
DA:195,2
DA:196,2
DA:197,2
DA:198,2
DA:199,1
DA:200,2
DA:204,1
DA:205,1
DA:206,1
DA:207,1
DA:208,1
DA:209,1
DA:210,1
DA:213,1
DA:214,1
DA:215,1
DA:216,1
DA:218,1
DA:219,1
DA:220,1
DA:221,1
DA:225,1
DA:227,1
DA:228,1
DA:229,1
DA:230,1
DA:233,1
DA:234,1
DA:236,1
DA:237,1
DA:239,1
DA:240,1
DA:241,1
DA:242,1
DA:246,1
DA:248,1
DA:249,1
DA:250,1
DA:251,1
DA:253,1
DA:254,1
DA:256,1
DA:257,1
DA:267,1
DA:269,1
DA:270,1
DA:271,1
DA:272,1
DA:275,1
DA:276,1
DA:278,1
DA:279,1
DA:281,1
DA:282,1
DA:283,1
DA:287,1
DA:289,1
DA:290,1
DA:291,1
DA:292,1
DA:294,1
DA:295,1
DA:297,1
DA:298,1
DA:301,1
DA:302,1
DA:303,1
DA:304,1
DA:306,1
DA:308,1
DA:309,1
DA:310,1
DA:311,1
DA:315,1
DA:316,1
DA:317,1
DA:319,1
DA:322,1
DA:325,1
DA:326,1
DA:328,1
DA:329,1
DA:330,1
DA:334,1
DA:336,1
DA:337,1
DA:339,1
DA:340,1
DA:341,1
DA:342,1
DA:344,1
DA:345,1
DA:347,1
DA:348,1
DA:349,1
DA:350,1
DA:353,1
DA:354,1
DA:355,1
DA:356,1
DA:357,1
DA:358,1
DA:361,1
DA:362,1
DA:363,1
DA:364,1
DA:365,1
DA:366,1
DA:367,1
DA:370,1
DA:372,1
DA:373,1
DA:374,1
DA:375,1
DA:376,1
DA:377,1
DA:378,1
DA:379,1
DA:382,1
DA:383,1
DA:384,1
DA:385,1
DA:386,1
DA:387,1
DA:388,1
DA:389,1
DA:392,1
DA:394,1
DA:395,1
DA:396,1
DA:397,1
DA:398,1
DA:399,1
DA:400,1
DA:401,1
DA:402,1
DA:408,5
DA:410,5
DA:417,5
DA:418,5
DA:419,5
DA:420,5
DA:421,5
DA:422,5
DA:427,1
DA:428,1
DA:429,1
DA:430,1
DA:431,1
DA:432,1
DA:433,1
DA:434,1
DA:435,1
DA:436,1
DA:437,1
DA:438,1
DA:441,1
DA:442,1
DA:443,1
DA:444,1
DA:445,1
DA:448,1
DA:449,1
DA:450,1
DA:451,1
DA:452,1
DA:453,1
DA:454,1
DA:456,1
DA:457,1
DA:458,1
DA:459,1
DA:460,1
DA:461,1
DA:464,1
DA:465,1
DA:466,1
DA:467,1
DA:468,1
DA:469,1
DA:470,1
DA:472,1
DA:473,1
DA:474,1
DA:475,1
DA:476,1
DA:477,1
DA:480,1
DA:481,1
DA:482,1
DA:483,1
DA:484,1
DA:485,1
DA:486,1
DA:488,1
DA:489,1
DA:490,1
DA:491,1
DA:492,1
DA:495,1
DA:497,1
DA:498,1
DA:499,1
DA:500,1
DA:501,1
DA:502,1
BRF:0
BRH:0
LF:321
LH:310
end_of_record
SF:/Users/poile/repos/actualai/actual-cli/.worktrees/2u6.4/src/cli/commands/auth.rs
FN:34,_RNCNvNtNtNtCs14eHuuW48ek_10actual_cli3cli8commands4auth10check_auth0B9_
FN:29,_RNvNtNtNtCs14eHuuW48ek_10actual_cli3cli8commands4auth10check_auth
FN:65,_RNvNtNtNtCs14eHuuW48ek_10actual_cli3cli8commands4auth17print_auth_status
FN:53,_RNvNtNtNtCs14eHuuW48ek_10actual_cli3cli8commands4auth20run_auth_with_binary
FN:10,_RNvNtNtNtCs14eHuuW48ek_10actual_cli3cli8commands4auth4exec
FN:20,_RNvNtNtNtCs14eHuuW48ek_10actual_cli3cli8commands4auth8run_auth
FN:100,_RNvNtNtNtNtCs23MeGd5xNbL_10actual_cli3cli8commands4auth5tests18create_fake_binary
FN:249,_RNvNtNtNtNtCs23MeGd5xNbL_10actual_cli3cli8commands4auth5testss_17test_exec_success
FN:188,_RNvNtNtNtNtCs23MeGd5xNbL_10actual_cli3cli8commands4auth5testss_21test_run_auth_success
FN:239,_RNvNtNtNtNtCs23MeGd5xNbL_10actual_cli3cli8commands4auth5testss_26test_exec_binary_not_found
FN:227,_RNvNtNtNtNtCs23MeGd5xNbL_10actual_cli3cli8commands4auth5testss_26test_run_auth_invalid_json
FN:265,_RNvNtNtNtNtCs23MeGd5xNbL_10actual_cli3cli8commands4auth5testss_27test_exec_not_authenticated
FN:308,_RNvNtNtNtNtCs23MeGd5xNbL_10actual_cli3cli8commands4auth5testss_27test_exec_subprocess_failed
FN:277,_RNvNtNtNtNtCs23MeGd5xNbL_10actual_cli3cli8commands4auth5testss_29test_run_auth_via_env_success
FN:144,_RNvNtNtNtNtCs23MeGd5xNbL_10actual_cli3cli8commands4auth5testss_30test_print_auth_status_api_key
FN:174,_RNvNtNtNtNtCs23MeGd5xNbL_10actual_cli3cli8commands4auth5testss_30test_run_auth_binary_not_found
FN:201,_RNvNtNtNtNtCs23MeGd5xNbL_10actual_cli3cli8commands4auth5testss_31test_run_auth_not_authenticated
FN:214,_RNvNtNtNtNtCs23MeGd5xNbL_10actual_cli3cli8commands4auth5testss_32test_run_auth_subprocess_failure
FN:159,_RNvNtNtNtNtCs23MeGd5xNbL_10actual_cli3cli8commands4auth5testss_33test_print_auth_status_all_fields
FN:338,_RNvNtNtNtNtCs23MeGd5xNbL_10actual_cli3cli8commands4auth5testss_34test_run_auth_invalid_json_via_env
FN:114,_RNvNtNtNtNtCs23MeGd5xNbL_10actual_cli3cli8commands4auth5testss_36test_print_auth_status_authenticated
FN:322,_RNvNtNtNtNtCs23MeGd5xNbL_10actual_cli3cli8commands4auth5testss_37test_run_auth_subprocess_exit_nonzero
FN:354,_RNvNtNtNtNtCs23MeGd5xNbL_10actual_cli3cli8commands4auth5testss_39test_run_auth_not_authenticated_via_env
FN:129,_RNvNtNtNtNtCs23MeGd5xNbL_10actual_cli3cli8commands4auth5testss_40test_print_auth_status_not_authenticated
FN:293,_RNvNtNtNtNtCs23MeGd5xNbL_10actual_cli3cli8commands4auth5testss_40test_run_auth_with_binary_not_executable
FN:34,_RNCNvNtNtNtCs23MeGd5xNbL_10actual_cli3cli8commands4auth10check_auth0B9_
FN:29,_RNvNtNtNtCs23MeGd5xNbL_10actual_cli3cli8commands4auth10check_auth
FN:65,_RNvNtNtNtCs23MeGd5xNbL_10actual_cli3cli8commands4auth17print_auth_status
FN:53,_RNvNtNtNtCs23MeGd5xNbL_10actual_cli3cli8commands4auth20run_auth_with_binary
FN:10,_RNvNtNtNtCs23MeGd5xNbL_10actual_cli3cli8commands4auth4exec
FN:20,_RNvNtNtNtCs23MeGd5xNbL_10actual_cli3cli8commands4auth8run_auth
FNDA:0,_RNCNvNtNtNtCs14eHuuW48ek_10actual_cli3cli8commands4auth10check_auth0B9_
FNDA:38,_RNvNtNtNtCs14eHuuW48ek_10actual_cli3cli8commands4auth10check_auth
FNDA:2,_RNvNtNtNtCs14eHuuW48ek_10actual_cli3cli8commands4auth17print_auth_status
FNDA:2,_RNvNtNtNtCs14eHuuW48ek_10actual_cli3cli8commands4auth20run_auth_with_binary
FNDA:4,_RNvNtNtNtCs14eHuuW48ek_10actual_cli3cli8commands4auth4exec
FNDA:4,_RNvNtNtNtCs14eHuuW48ek_10actual_cli3cli8commands4auth8run_auth
FNDA:10,_RNvNtNtNtNtCs23MeGd5xNbL_10actual_cli3cli8commands4auth5tests18create_fake_binary
FNDA:1,_RNvNtNtNtNtCs23MeGd5xNbL_10actual_cli3cli8commands4auth5testss_17test_exec_success
FNDA:1,_RNvNtNtNtNtCs23MeGd5xNbL_10actual_cli3cli8commands4auth5testss_21test_run_auth_success
FNDA:1,_RNvNtNtNtNtCs23MeGd5xNbL_10actual_cli3cli8commands4auth5testss_26test_exec_binary_not_found
FNDA:1,_RNvNtNtNtNtCs23MeGd5xNbL_10actual_cli3cli8commands4auth5testss_26test_run_auth_invalid_json
FNDA:1,_RNvNtNtNtNtCs23MeGd5xNbL_10actual_cli3cli8commands4auth5testss_27test_exec_not_authenticated
FNDA:1,_RNvNtNtNtNtCs23MeGd5xNbL_10actual_cli3cli8commands4auth5testss_27test_exec_subprocess_failed
FNDA:1,_RNvNtNtNtNtCs23MeGd5xNbL_10actual_cli3cli8commands4auth5testss_29test_run_auth_via_env_success
FNDA:1,_RNvNtNtNtNtCs23MeGd5xNbL_10actual_cli3cli8commands4auth5testss_30test_print_auth_status_api_key
FNDA:1,_RNvNtNtNtNtCs23MeGd5xNbL_10actual_cli3cli8commands4auth5testss_30test_run_auth_binary_not_found
FNDA:1,_RNvNtNtNtNtCs23MeGd5xNbL_10actual_cli3cli8commands4auth5testss_31test_run_auth_not_authenticated
FNDA:1,_RNvNtNtNtNtCs23MeGd5xNbL_10actual_cli3cli8commands4auth5testss_32test_run_auth_subprocess_failure
FNDA:1,_RNvNtNtNtNtCs23MeGd5xNbL_10actual_cli3cli8commands4auth5testss_33test_print_auth_status_all_fields
FNDA:1,_RNvNtNtNtNtCs23MeGd5xNbL_10actual_cli3cli8commands4auth5testss_34test_run_auth_invalid_json_via_env
FNDA:1,_RNvNtNtNtNtCs23MeGd5xNbL_10actual_cli3cli8commands4auth5testss_36test_print_auth_status_authenticated
FNDA:1,_RNvNtNtNtNtCs23MeGd5xNbL_10actual_cli3cli8commands4auth5testss_37test_run_auth_subprocess_exit_nonzero
FNDA:1,_RNvNtNtNtNtCs23MeGd5xNbL_10actual_cli3cli8commands4auth5testss_39test_run_auth_not_authenticated_via_env
FNDA:1,_RNvNtNtNtNtCs23MeGd5xNbL_10actual_cli3cli8commands4auth5testss_40test_print_auth_status_not_authenticated
FNDA:1,_RNvNtNtNtNtCs23MeGd5xNbL_10actual_cli3cli8commands4auth5testss_40test_run_auth_with_binary_not_executable
FNDA:2,_RNCNvNtNtNtCs23MeGd5xNbL_10actual_cli3cli8commands4auth10check_auth0B9_
FNDA:12,_RNvNtNtNtCs23MeGd5xNbL_10actual_cli3cli8commands4auth10check_auth
FNDA:10,_RNvNtNtNtCs23MeGd5xNbL_10actual_cli3cli8commands4auth17print_auth_status
FNDA:12,_RNvNtNtNtCs23MeGd5xNbL_10actual_cli3cli8commands4auth20run_auth_with_binary
FNDA:4,_RNvNtNtNtCs23MeGd5xNbL_10actual_cli3cli8commands4auth4exec
FNDA:9,_RNvNtNtNtCs23MeGd5xNbL_10actual_cli3cli8commands4auth8run_auth
FNF:25
FNH:25
DA:10,8
DA:11,8
DA:12,2
DA:13,6
DA:14,6
DA:15,6
DA:18,8
DA:20,13
DA:21,13
DA:22,9
DA:23,13
DA:29,50
DA:30,50
DA:31,50
DA:32,50
DA:33,50
DA:34,2
DA:35,2
DA:36,2
DA:38,48
DA:39,3
DA:40,3
DA:41,3
DA:42,3
DA:43,3
DA:44,3
DA:45,3
DA:46,3
DA:47,45
DA:49,45
DA:50,43
DA:51,50
DA:53,14
DA:54,14
DA:56,8
DA:58,8
DA:59,4
DA:60,4
DA:62,4
DA:63,14
DA:65,12
DA:66,12
DA:67,7
DA:68,7
DA:69,7
DA:70,7
DA:72,7
DA:73,7
DA:74,6
DA:75,6
DA:76,7
DA:77,1
DA:78,6
DA:79,5
DA:80,5
DA:81,5
DA:82,5
DA:83,5
DA:84,5
DA:85,5
DA:86,5
DA:87,5
DA:88,5
DA:89,5
DA:90,12
DA:100,10
DA:101,10
DA:102,10
DA:103,10
DA:104,10
DA:107,10
DA:109,10
DA:110,10
DA:111,10
DA:114,1
DA:115,1
DA:116,1
DA:117,1
DA:118,1
DA:119,1
DA:120,1
DA:121,1
DA:122,1
DA:123,1
DA:124,1
DA:125,1
DA:126,1
DA:129,1
DA:130,1
DA:131,1
DA:132,1
DA:133,1
DA:134,1
DA:135,1
DA:136,1
DA:137,1
DA:138,1
DA:139,1
DA:140,1
DA:141,1
DA:144,1
DA:145,1
DA:146,1
DA:147,1
DA:148,1
DA:149,1
DA:150,1
DA:151,1
DA:152,1
DA:153,1
DA:154,1
DA:155,1
DA:156,1
DA:159,1
DA:160,1
DA:161,1
DA:162,1
DA:163,1
DA:164,1
DA:165,1
DA:166,1
DA:167,1
DA:168,1
DA:169,1
DA:170,1
DA:171,1
DA:174,1
DA:175,1
DA:176,1
DA:177,1
DA:178,1
DA:179,1
DA:180,1
DA:181,1
DA:188,1
DA:189,1
DA:190,1
DA:191,1
DA:192,1
DA:195,1
DA:196,1
DA:197,1
DA:201,1
DA:202,1
DA:203,1
DA:204,1
DA:205,1
DA:206,1
DA:207,1
DA:210,1
DA:214,1
DA:215,1
DA:216,1
DA:217,1
DA:218,1
DA:219,1
DA:220,1
DA:223,1
DA:227,1
DA:228,1
DA:229,1
DA:230,1
DA:231,1
DA:232,1
DA:233,1
DA:236,1
DA:239,1
DA:240,1
DA:241,1
DA:242,1
DA:243,1
DA:244,1
DA:245,1
DA:249,1
DA:250,1
DA:251,1
DA:252,1
DA:253,1
DA:254,1
DA:257,1
DA:258,1
DA:259,1
DA:260,1
DA:261,1
DA:265,1
DA:266,1
DA:267,1
DA:268,1
DA:269,1
DA:270,1
DA:271,1
DA:272,1
DA:273,1
DA:277,1
DA:278,1
DA:279,1
DA:280,1
DA:281,1
DA:282,1
DA:285,1
DA:286,1
DA:287,1
DA:288,1
DA:289,1
DA:293,1
DA:294,1
DA:295,1
DA:296,1
DA:298,1
DA:299,1
DA:300,1
DA:301,1
DA:304,1
DA:308,1
DA:309,1
DA:310,1
DA:311,1
DA:312,1
DA:314,1
DA:315,1
DA:316,1
DA:317,1
DA:318,1
DA:322,1
DA:323,1
DA:324,1
DA:325,1
DA:326,1
DA:327,1
DA:328,1
DA:329,1
DA:330,1
DA:331,1
DA:334,1
DA:338,1
DA:339,1
DA:340,1
DA:341,1
DA:342,1
DA:343,1
DA:344,1
DA:345,1
DA:346,1
DA:347,1
DA:350,1
DA:354,1
DA:355,1
DA:356,1
DA:357,1
DA:358,1
DA:359,1
DA:360,1
DA:361,1
DA:362,1
DA:363,1
DA:366,1
BRF:0
BRH:0
LF:257
LH:257
end_of_record
SF:/Users/poile/repos/actualai/actual-cli/.worktrees/2u6.4/src/cli/commands/config.rs
FN:31,_RNvNtNtNtCs14eHuuW48ek_10actual_cli3cli8commands6config13run_with_path
FN:19,_RNvNtNtNtCs14eHuuW48ek_10actual_cli3cli8commands6config3run
FN:9,_RNvNtNtNtCs14eHuuW48ek_10actual_cli3cli8commands6config4exec
FN:23,_RINvNtNtNtCs14eHuuW48ek_10actual_cli3cli8commands6config17run_with_resolverNvNtNtB8_6config5paths11config_pathEB8_
FN:69,_RINvNtNtNtNtCs23MeGd5xNbL_10actual_cli3cli8commands6config5tests16with_temp_configNCNvB2_s_12test_run_set0EBa_
FN:69,_RINvNtNtNtNtCs23MeGd5xNbL_10actual_cli3cli8commands6config5tests16with_temp_configNCNvB2_s_13test_run_path0EBa_
FN:69,_RINvNtNtNtNtCs23MeGd5xNbL_10actual_cli3cli8commands6config5tests16with_temp_configNCNvB2_s_13test_run_show0EBa_
FN:69,_RINvNtNtNtNtCs23MeGd5xNbL_10actual_cli3cli8commands6config5tests16with_temp_configNCNvB2_s_26test_exec_set_returns_zero0EBa_
FN:69,_RINvNtNtNtNtCs23MeGd5xNbL_10actual_cli3cli8commands6config5tests16with_temp_configNCNvB2_s_26test_run_set_invalid_value0EBa_
FN:69,_RINvNtNtNtNtCs23MeGd5xNbL_10actual_cli3cli8commands6config5tests16with_temp_configNCNvB2_s_27test_exec_path_returns_zero0EBa_
FN:69,_RINvNtNtNtNtCs23MeGd5xNbL_10actual_cli3cli8commands6config5tests16with_temp_configNCNvB2_s_27test_exec_show_returns_zero0EBa_
FN:69,_RINvNtNtNtNtCs23MeGd5xNbL_10actual_cli3cli8commands6config5tests16with_temp_configNCNvB2_s_39test_exec_set_invalid_key_returns_error0EBa_
FN:79,_RINvNtNtNtNtCs23MeGd5xNbL_10actual_cli3cli8commands6config5tests19with_invalid_configNCNvB2_s_18test_run_set_error0EBa_
FN:79,_RINvNtNtNtNtCs23MeGd5xNbL_10actual_cli3cli8commands6config5tests19with_invalid_configNCNvB2_s_19test_exec_error_set0EBa_
FN:79,_RINvNtNtNtNtCs23MeGd5xNbL_10actual_cli3cli8commands6config5tests19with_invalid_configNCNvB2_s_19test_run_path_error0EBa_
FN:79,_RINvNtNtNtNtCs23MeGd5xNbL_10actual_cli3cli8commands6config5tests19with_invalid_configNCNvB2_s_19test_run_show_error0EBa_
FN:79,_RINvNtNtNtNtCs23MeGd5xNbL_10actual_cli3cli8commands6config5tests19with_invalid_configNCNvB2_s_20test_exec_error_show0EBa_
FN:181,_RNCNvNtNtNtNtCs23MeGd5xNbL_10actual_cli3cli8commands6config5testss_12test_run_set0Bb_
FN:161,_RNCNvNtNtNtNtCs23MeGd5xNbL_10actual_cli3cli8commands6config5testss_13test_run_path0Bb_
FN:171,_RNCNvNtNtNtNtCs23MeGd5xNbL_10actual_cli3cli8commands6config5testss_13test_run_show0Bb_
FN:221,_RNCNvNtNtNtNtCs23MeGd5xNbL_10actual_cli3cli8commands6config5testss_18test_run_set_error0Bb_
FN:134,_RNCNvNtNtNtNtCs23MeGd5xNbL_10actual_cli3cli8commands6config5testss_19test_exec_error_set0Bb_
FN:234,_RNCNvNtNtNtNtCs23MeGd5xNbL_10actual_cli3cli8commands6config5testss_19test_run_path_error0Bb_
FN:211,_RNCNvNtNtNtNtCs23MeGd5xNbL_10actual_cli3cli8commands6config5testss_19test_run_show_error0Bb_
FN:123,_RNCNvNtNtNtNtCs23MeGd5xNbL_10actual_cli3cli8commands6config5testss_20test_exec_error_show0Bb_
FN:110,_RNCNvNtNtNtNtCs23MeGd5xNbL_10actual_cli3cli8commands6config5testss_26test_exec_set_returns_zero0Bb_
FN:198,_RNCNvNtNtNtNtCs23MeGd5xNbL_10actual_cli3cli8commands6config5testss_26test_run_set_invalid_value0Bb_
FN:90,_RNCNvNtNtNtNtCs23MeGd5xNbL_10actual_cli3cli8commands6config5testss_27test_exec_path_returns_zero0Bb_
FN:100,_RNCNvNtNtNtNtCs23MeGd5xNbL_10actual_cli3cli8commands6config5testss_27test_exec_show_returns_zero0Bb_
FN:253,_RNCNvNtNtNtNtCs23MeGd5xNbL_10actual_cli3cli8commands6config5testss_28test_run_with_resolver_error0Bb_
FN:148,_RNCNvNtNtNtNtCs23MeGd5xNbL_10actual_cli3cli8commands6config5testss_39test_exec_set_invalid_key_returns_error0Bb_
FN:31,_RNvNtNtNtCs23MeGd5xNbL_10actual_cli3cli8commands6config13run_with_path
FN:19,_RNvNtNtNtCs23MeGd5xNbL_10actual_cli3cli8commands6config3run
FN:9,_RNvNtNtNtCs23MeGd5xNbL_10actual_cli3cli8commands6config4exec
FN:23,_RINvNtNtNtCs23MeGd5xNbL_10actual_cli3cli8commands6config17run_with_resolverNCNvNtB2_5testss_28test_run_with_resolver_error0EB8_
FN:23,_RINvNtNtNtCs23MeGd5xNbL_10actual_cli3cli8commands6config17run_with_resolverNvNtNtB8_6config5paths11config_pathEB8_
FN:62,_RNvNtNtNtNtCs23MeGd5xNbL_10actual_cli3cli8commands6config5tests11restore_env
FN:180,_RNvNtNtNtNtCs23MeGd5xNbL_10actual_cli3cli8commands6config5testss_12test_run_set
FN:160,_RNvNtNtNtNtCs23MeGd5xNbL_10actual_cli3cli8commands6config5testss_13test_run_path
FN:170,_RNvNtNtNtNtCs23MeGd5xNbL_10actual_cli3cli8commands6config5testss_13test_run_show
FN:220,_RNvNtNtNtNtCs23MeGd5xNbL_10actual_cli3cli8commands6config5testss_18test_run_set_error
FN:133,_RNvNtNtNtNtCs23MeGd5xNbL_10actual_cli3cli8commands6config5testss_19test_exec_error_set
FN:233,_RNvNtNtNtNtCs23MeGd5xNbL_10actual_cli3cli8commands6config5testss_19test_run_path_error
FN:210,_RNvNtNtNtNtCs23MeGd5xNbL_10actual_cli3cli8commands6config5testss_19test_run_show_error
FN:122,_RNvNtNtNtNtCs23MeGd5xNbL_10actual_cli3cli8commands6config5testss_20test_exec_error_show
FN:109,_RNvNtNtNtNtCs23MeGd5xNbL_10actual_cli3cli8commands6config5testss_26test_exec_set_returns_zero
FN:197,_RNvNtNtNtNtCs23MeGd5xNbL_10actual_cli3cli8commands6config5testss_26test_run_set_invalid_value
FN:89,_RNvNtNtNtNtCs23MeGd5xNbL_10actual_cli3cli8commands6config5testss_27test_exec_path_returns_zero
FN:99,_RNvNtNtNtNtCs23MeGd5xNbL_10actual_cli3cli8commands6config5testss_27test_exec_show_returns_zero
FN:249,_RNvNtNtNtNtCs23MeGd5xNbL_10actual_cli3cli8commands6config5testss_28test_run_with_resolver_error
FN:279,_RNvNtNtNtNtCs23MeGd5xNbL_10actual_cli3cli8commands6config5testss_29test_run_with_path_show_error
FN:262,_RNvNtNtNtNtCs23MeGd5xNbL_10actual_cli3cli8commands6config5testss_30test_restore_env_both_branches
FN:288,_RNvNtNtNtNtCs23MeGd5xNbL_10actual_cli3cli8commands6config5testss_33test_run_with_path_set_load_error
FN:305,_RNvNtNtNtNtCs23MeGd5xNbL_10actual_cli3cli8commands6config5testss_33test_run_with_path_set_save_error
FN:147,_RNvNtNtNtNtCs23MeGd5xNbL_10actual_cli3cli8commands6config5testss_39test_exec_set_invalid_key_returns_error
FNDA:7,_RNvNtNtNtCs14eHuuW48ek_10actual_cli3cli8commands6config13run_with_path
FNDA:7,_RNvNtNtNtCs14eHuuW48ek_10actual_cli3cli8commands6config3run
FNDA:7,_RNvNtNtNtCs14eHuuW48ek_10actual_cli3cli8commands6config4exec
FNDA:7,_RINvNtNtNtCs14eHuuW48ek_10actual_cli3cli8commands6config17run_with_resolverNvNtNtB8_6config5paths11config_pathEB8_
FNDA:1,_RINvNtNtNtNtCs23MeGd5xNbL_10actual_cli3cli8commands6config5tests16with_temp_configNCNvB2_s_12test_run_set0EBa_
FNDA:1,_RINvNtNtNtNtCs23MeGd5xNbL_10actual_cli3cli8commands6config5tests16with_temp_configNCNvB2_s_13test_run_path0EBa_
FNDA:1,_RINvNtNtNtNtCs23MeGd5xNbL_10actual_cli3cli8commands6config5tests16with_temp_configNCNvB2_s_13test_run_show0EBa_
FNDA:1,_RINvNtNtNtNtCs23MeGd5xNbL_10actual_cli3cli8commands6config5tests16with_temp_configNCNvB2_s_26test_exec_set_returns_zero0EBa_
FNDA:1,_RINvNtNtNtNtCs23MeGd5xNbL_10actual_cli3cli8commands6config5tests16with_temp_configNCNvB2_s_26test_run_set_invalid_value0EBa_
FNDA:1,_RINvNtNtNtNtCs23MeGd5xNbL_10actual_cli3cli8commands6config5tests16with_temp_configNCNvB2_s_27test_exec_path_returns_zero0EBa_
FNDA:1,_RINvNtNtNtNtCs23MeGd5xNbL_10actual_cli3cli8commands6config5tests16with_temp_configNCNvB2_s_27test_exec_show_returns_zero0EBa_
FNDA:1,_RINvNtNtNtNtCs23MeGd5xNbL_10actual_cli3cli8commands6config5tests16with_temp_configNCNvB2_s_39test_exec_set_invalid_key_returns_error0EBa_
FNDA:1,_RINvNtNtNtNtCs23MeGd5xNbL_10actual_cli3cli8commands6config5tests19with_invalid_configNCNvB2_s_18test_run_set_error0EBa_
FNDA:1,_RINvNtNtNtNtCs23MeGd5xNbL_10actual_cli3cli8commands6config5tests19with_invalid_configNCNvB2_s_19test_exec_error_set0EBa_
FNDA:1,_RINvNtNtNtNtCs23MeGd5xNbL_10actual_cli3cli8commands6config5tests19with_invalid_configNCNvB2_s_19test_run_path_error0EBa_
FNDA:1,_RINvNtNtNtNtCs23MeGd5xNbL_10actual_cli3cli8commands6config5tests19with_invalid_configNCNvB2_s_19test_run_show_error0EBa_
FNDA:1,_RINvNtNtNtNtCs23MeGd5xNbL_10actual_cli3cli8commands6config5tests19with_invalid_configNCNvB2_s_20test_exec_error_show0EBa_
FNDA:1,_RNCNvNtNtNtNtCs23MeGd5xNbL_10actual_cli3cli8commands6config5testss_12test_run_set0Bb_
FNDA:1,_RNCNvNtNtNtNtCs23MeGd5xNbL_10actual_cli3cli8commands6config5testss_13test_run_path0Bb_
FNDA:1,_RNCNvNtNtNtNtCs23MeGd5xNbL_10actual_cli3cli8commands6config5testss_13test_run_show0Bb_
FNDA:1,_RNCNvNtNtNtNtCs23MeGd5xNbL_10actual_cli3cli8commands6config5testss_18test_run_set_error0Bb_
FNDA:1,_RNCNvNtNtNtNtCs23MeGd5xNbL_10actual_cli3cli8commands6config5testss_19test_exec_error_set0Bb_
FNDA:1,_RNCNvNtNtNtNtCs23MeGd5xNbL_10actual_cli3cli8commands6config5testss_19test_run_path_error0Bb_
FNDA:1,_RNCNvNtNtNtNtCs23MeGd5xNbL_10actual_cli3cli8commands6config5testss_19test_run_show_error0Bb_
FNDA:1,_RNCNvNtNtNtNtCs23MeGd5xNbL_10actual_cli3cli8commands6config5testss_20test_exec_error_show0Bb_
FNDA:1,_RNCNvNtNtNtNtCs23MeGd5xNbL_10actual_cli3cli8commands6config5testss_26test_exec_set_returns_zero0Bb_
FNDA:1,_RNCNvNtNtNtNtCs23MeGd5xNbL_10actual_cli3cli8commands6config5testss_26test_run_set_invalid_value0Bb_
FNDA:1,_RNCNvNtNtNtNtCs23MeGd5xNbL_10actual_cli3cli8commands6config5testss_27test_exec_path_returns_zero0Bb_
FNDA:1,_RNCNvNtNtNtNtCs23MeGd5xNbL_10actual_cli3cli8commands6config5testss_27test_exec_show_returns_zero0Bb_
FNDA:1,_RNCNvNtNtNtNtCs23MeGd5xNbL_10actual_cli3cli8commands6config5testss_28test_run_with_resolver_error0Bb_
FNDA:1,_RNCNvNtNtNtNtCs23MeGd5xNbL_10actual_cli3cli8commands6config5testss_39test_exec_set_invalid_key_returns_error0Bb_
FNDA:16,_RNvNtNtNtCs23MeGd5xNbL_10actual_cli3cli8commands6config13run_with_path
FNDA:13,_RNvNtNtNtCs23MeGd5xNbL_10actual_cli3cli8commands6config3run
FNDA:6,_RNvNtNtNtCs23MeGd5xNbL_10actual_cli3cli8commands6config4exec
FNDA:1,_RINvNtNtNtCs23MeGd5xNbL_10actual_cli3cli8commands6config17run_with_resolverNCNvNtB2_5testss_28test_run_with_resolver_error0EB8_
FNDA:13,_RINvNtNtNtCs23MeGd5xNbL_10actual_cli3cli8commands6config17run_with_resolverNvNtNtB8_6config5paths11config_pathEB8_
FNDA:15,_RNvNtNtNtNtCs23MeGd5xNbL_10actual_cli3cli8commands6config5tests11restore_env
FNDA:1,_RNvNtNtNtNtCs23MeGd5xNbL_10actual_cli3cli8commands6config5testss_12test_run_set
FNDA:1,_RNvNtNtNtNtCs23MeGd5xNbL_10actual_cli3cli8commands6config5testss_13test_run_path
FNDA:1,_RNvNtNtNtNtCs23MeGd5xNbL_10actual_cli3cli8commands6config5testss_13test_run_show
FNDA:1,_RNvNtNtNtNtCs23MeGd5xNbL_10actual_cli3cli8commands6config5testss_18test_run_set_error
FNDA:1,_RNvNtNtNtNtCs23MeGd5xNbL_10actual_cli3cli8commands6config5testss_19test_exec_error_set
FNDA:1,_RNvNtNtNtNtCs23MeGd5xNbL_10actual_cli3cli8commands6config5testss_19test_run_path_error
FNDA:1,_RNvNtNtNtNtCs23MeGd5xNbL_10actual_cli3cli8commands6config5testss_19test_run_show_error
FNDA:1,_RNvNtNtNtNtCs23MeGd5xNbL_10actual_cli3cli8commands6config5testss_20test_exec_error_show
FNDA:1,_RNvNtNtNtNtCs23MeGd5xNbL_10actual_cli3cli8commands6config5testss_26test_exec_set_returns_zero
FNDA:1,_RNvNtNtNtNtCs23MeGd5xNbL_10actual_cli3cli8commands6config5testss_26test_run_set_invalid_value
FNDA:1,_RNvNtNtNtNtCs23MeGd5xNbL_10actual_cli3cli8commands6config5testss_27test_exec_path_returns_zero
FNDA:1,_RNvNtNtNtNtCs23MeGd5xNbL_10actual_cli3cli8commands6config5testss_27test_exec_show_returns_zero
FNDA:1,_RNvNtNtNtNtCs23MeGd5xNbL_10actual_cli3cli8commands6config5testss_28test_run_with_resolver_error
FNDA:1,_RNvNtNtNtNtCs23MeGd5xNbL_10actual_cli3cli8commands6config5testss_29test_run_with_path_show_error
FNDA:1,_RNvNtNtNtNtCs23MeGd5xNbL_10actual_cli3cli8commands6config5testss_30test_restore_env_both_branches
FNDA:1,_RNvNtNtNtNtCs23MeGd5xNbL_10actual_cli3cli8commands6config5testss_33test_run_with_path_set_load_error
FNDA:1,_RNvNtNtNtNtCs23MeGd5xNbL_10actual_cli3cli8commands6config5testss_33test_run_with_path_set_save_error
FNDA:1,_RNvNtNtNtNtCs23MeGd5xNbL_10actual_cli3cli8commands6config5testss_39test_exec_set_invalid_key_returns_error
FNF:39
FNH:39
DA:9,13
DA:10,13
DA:11,10
DA:12,3
DA:13,3
DA:14,3
DA:17,13
DA:19,20
DA:20,20
DA:21,20
DA:23,21
DA:24,21
DA:25,21
DA:26,21
DA:27,21
DA:28,20
DA:29,21
DA:31,23
DA:32,23
DA:34,5
DA:35,5
DA:38,8
DA:41,5
DA:42,5
DA:43,5
DA:45,10
DA:46,10
DA:47,7
DA:48,5
DA:49,4
DA:50,4
DA:53,23
DA:62,15
DA:63,15
DA:64,1
DA:65,14
DA:67,15
DA:69,8
DA:70,8
DA:71,8
DA:72,8
DA:73,8
DA:74,8
DA:75,8
DA:76,8
DA:77,8
DA:79,5
DA:80,5
DA:81,5
DA:83,5
DA:84,5
DA:85,5
DA:86,5
DA:89,1
DA:90,1
DA:91,1
DA:92,1
DA:93,1
DA:94,1
DA:95,1
DA:96,1
DA:99,1
DA:100,1
DA:101,1
DA:102,1
DA:103,1
DA:104,1
DA:105,1
DA:106,1
DA:109,1
DA:110,1
DA:111,1
DA:112,1
DA:113,1
DA:114,1
DA:115,1
DA:116,1
DA:117,1
DA:118,1
DA:119,1
DA:122,1
DA:123,1
DA:124,1
DA:125,1
DA:126,1
DA:127,1
DA:128,1
DA:129,1
DA:130,1
DA:133,1
DA:134,1
DA:135,1
DA:136,1
DA:137,1
DA:138,1
DA:139,1
DA:140,1
DA:141,1
DA:142,1
DA:143,1
DA:144,1
DA:147,1
DA:148,1
DA:149,1
DA:150,1
DA:151,1
DA:152,1
DA:153,1
DA:154,1
DA:155,1
DA:156,1
DA:157,1
DA:160,1
DA:161,1
DA:162,1
DA:163,1
DA:164,1
DA:165,1
DA:166,1
DA:167,1
DA:170,1
DA:171,1
DA:172,1
DA:173,1
DA:174,1
DA:175,1
DA:176,1
DA:177,1
DA:180,1
DA:181,1
DA:182,1
DA:183,1
DA:184,1
DA:185,1
DA:186,1
DA:187,1
DA:188,1
DA:191,1
DA:192,1
DA:193,1
DA:194,1
DA:197,1
DA:198,1
DA:199,1
DA:200,1
DA:201,1
DA:202,1
DA:203,1
DA:204,1
DA:205,1
DA:206,1
DA:207,1
DA:210,1
DA:211,1
DA:212,1
DA:213,1
DA:214,1
DA:215,1
DA:216,1
DA:217,1
DA:220,1
DA:221,1
DA:222,1
DA:223,1
DA:224,1
DA:225,1
DA:226,1
DA:227,1
DA:228,1
DA:229,1
DA:230,1
DA:233,1
DA:234,1
DA:235,1
DA:236,1
DA:237,1
DA:240,1
DA:241,1
DA:242,1
DA:249,1
DA:250,1
DA:251,1
DA:252,1
DA:253,1
DA:254,1
DA:255,1
DA:256,1
DA:257,1
DA:258,1
DA:259,1
DA:262,1
DA:263,1
DA:264,1
DA:267,1
DA:268,1
DA:269,1
DA:272,1
DA:273,1
DA:274,1
DA:279,1
DA:280,1
DA:281,1
DA:282,1
DA:283,1
DA:284,1
DA:285,1
DA:288,1
DA:289,1
DA:290,1
DA:291,1
DA:292,1
DA:293,1
DA:294,1
DA:295,1
DA:296,1
DA:297,1
DA:305,1
DA:308,1
DA:309,1
DA:312,1
DA:315,1
DA:316,1
DA:317,1
DA:319,1
DA:320,1
DA:321,1
DA:322,1
DA:323,1
DA:324,1
DA:325,1
DA:326,1
DA:329,1
DA:330,1
DA:331,1
BRF:0
BRH:0
LF:248
LH:248
end_of_record
SF:/Users/poile/repos/actualai/actual-cli/.worktrees/2u6.4/src/cli/commands/status.rs
FN:39,_RNvNtNtNtCs14eHuuW48ek_10actual_cli3cli8commands6status10run_status
FN:34,_RNvNtNtNtCs14eHuuW48ek_10actual_cli3cli8commands6status11resolve_cwd
FN:23,_RNvNtNtNtCs14eHuuW48ek_10actual_cli3cli8commands6status12load_and_run
FN:231,_RNvNtNtNtCs14eHuuW48ek_10actual_cli3cli8commands6status18walk_for_claude_md
FN:211,_RNvNtNtNtCs14eHuuW48ek_10actual_cli3cli8commands6status20find_claude_md_files
FN:61,_RNvNtNtNtCs14eHuuW48ek_10actual_cli3cli8commands6status20print_config_section
FN:149,_RNvNtNtNtCs14eHuuW48ek_10actual_cli3cli8commands6status21print_verbose_section
FN:93,_RNvNtNtNtCs14eHuuW48ek_10actual_cli3cli8commands6status23print_claude_md_section
FN:13,_RNvNtNtNtCs14eHuuW48ek_10actual_cli3cli8commands6status4exec
FN:178,_RNCNvNtNtNtCs14eHuuW48ek_10actual_cli3cli8commands6status21print_verbose_sections_0B9_
FN:39,_RNvNtNtNtCs23MeGd5xNbL_10actual_cli3cli8commands6status10run_status
FN:34,_RNvNtNtNtCs23MeGd5xNbL_10actual_cli3cli8commands6status11resolve_cwd
FN:23,_RNvNtNtNtCs23MeGd5xNbL_10actual_cli3cli8commands6status12load_and_run
FN:231,_RNvNtNtNtCs23MeGd5xNbL_10actual_cli3cli8commands6status18walk_for_claude_md
FN:211,_RNvNtNtNtCs23MeGd5xNbL_10actual_cli3cli8commands6status20find_claude_md_files
FN:61,_RNvNtNtNtCs23MeGd5xNbL_10actual_cli3cli8commands6status20print_config_section
FN:149,_RNvNtNtNtCs23MeGd5xNbL_10actual_cli3cli8commands6status21print_verbose_section
FN:93,_RNvNtNtNtCs23MeGd5xNbL_10actual_cli3cli8commands6status23print_claude_md_section
FN:13,_RNvNtNtNtCs23MeGd5xNbL_10actual_cli3cli8commands6status4exec
FN:178,_RNCNvNtNtNtCs23MeGd5xNbL_10actual_cli3cli8commands6status21print_verbose_sections_0B9_
FN:261,_RNvNtNtNtNtCs23MeGd5xNbL_10actual_cli3cli8commands6status5tests11restore_env
FN:391,_RNvNtNtNtNtCs23MeGd5xNbL_10actual_cli3cli8commands6status5testss_20test_exec_error_path
FN:373,_RNvNtNtNtNtCs23MeGd5xNbL_10actual_cli3cli8commands6status5testss_22test_exec_returns_zero
FN:633,_RNvNtNtNtNtCs23MeGd5xNbL_10actual_cli3cli8commands6status5testss_26test_load_and_run_succeeds
FN:643,_RNvNtNtNtNtCs23MeGd5xNbL_10actual_cli3cli8commands6status5testss_27test_run_status_normal_mode
FN:657,_RNvNtNtNtNtCs23MeGd5xNbL_10actual_cli3cli8commands6status5testss_28test_run_status_verbose_mode
FN:624,_RNvNtNtNtNtCs23MeGd5xNbL_10actual_cli3cli8commands6status5testss_29test_resolve_cwd_returns_path
FN:382,_RNvNtNtNtNtCs23MeGd5xNbL_10actual_cli3cli8commands6status5testss_30test_exec_verbose_returns_zero
FN:403,_RNvNtNtNtNtCs23MeGd5xNbL_10actual_cli3cli8commands6status5testss_30test_restore_env_both_branches
FN:339,_RNvNtNtNtNtCs23MeGd5xNbL_10actual_cli3cli8commands6status5testss_32test_find_claude_md_files_sorted
FN:468,_RNvNtNtNtNtCs23MeGd5xNbL_10actual_cli3cli8commands6status5testss_34test_print_claude_md_section_empty
FN:281,_RNvNtNtNtNtCs23MeGd5xNbL_10actual_cli3cli8commands6status5testss_35test_find_claude_md_files_empty_dir
FN:504,_RNvNtNtNtNtCs23MeGd5xNbL_10actual_cli3cli8commands6status5testss_35test_print_verbose_section_defaults
FN:481,_RNvNtNtNtNtCs23MeGd5xNbL_10actual_cli3cli8commands6status5testss_36test_print_claude_md_section_managed
FN:297,_RNvNtNtNtNtCs23MeGd5xNbL_10actual_cli3cli8commands6status5testss_38test_find_claude_md_files_finds_nested
FN:474,_RNvNtNtNtNtCs23MeGd5xNbL_10actual_cli3cli8commands6status5testss_38test_print_claude_md_section_unmanaged
FN:428,_RNvNtNtNtNtCs23MeGd5xNbL_10actual_cli3cli8commands6status5testss_40test_print_config_section_created_config
FN:436,_RNvNtNtNtNtCs23MeGd5xNbL_10actual_cli3cli8commands6status5testss_40test_print_config_section_custom_api_url
FN:420,_RNvNtNtNtNtCs23MeGd5xNbL_10actual_cli3cli8commands6status5testss_40test_print_config_section_default_config
FN:288,_RNvNtNtNtNtCs23MeGd5xNbL_10actual_cli3cli8commands6status5testss_41test_find_claude_md_files_finds_root_file
FN:353,_RNvNtNtNtNtCs23MeGd5xNbL_10actual_cli3cli8commands6status5testss_41test_find_claude_md_files_nonexistent_dir
FN:458,_RNvNtNtNtNtCs23MeGd5xNbL_10actual_cli3cli8commands6status5testss_42test_print_config_section_verbose_no_model
FN:308,_RNvNtNtNtNtCs23MeGd5xNbL_10actual_cli3cli8commands6status5testss_43test_find_claude_md_files_skips_hidden_dirs
FN:318,_RNvNtNtNtNtCs23MeGd5xNbL_10actual_cli3cli8commands6status5testss_44test_find_claude_md_files_skips_node_modules
FN:447,_RNvNtNtNtNtCs23MeGd5xNbL_10actual_cli3cli8commands6status5testss_44test_print_config_section_verbose_with_model
FN:510,_RNvNtNtNtNtCs23MeGd5xNbL_10actual_cli3cli8commands6status5testss_45test_print_verbose_section_telemetry_disabled
FN:551,_RNvNtNtNtNtCs23MeGd5xNbL_10actual_cli3cli8commands6status5testss_45test_print_verbose_section_with_rejected_adrs
FN:329,_RNvNtNtNtNtCs23MeGd5xNbL_10actual_cli3cli8commands6status5testss_48test_find_claude_md_files_ignores_other_md_files
FN:359,_RNvNtNtNtNtCs23MeGd5xNbL_10actual_cli3cli8commands6status5testss_48test_find_claude_md_files_skips_all_ignored_dirs
FN:489,_RNvNtNtNtNtCs23MeGd5xNbL_10actual_cli3cli8commands6status5testss_48test_print_claude_md_section_managed_no_metadata
FN:532,_RNvNtNtNtNtCs23MeGd5xNbL_10actual_cli3cli8commands6status5testss_51test_print_verbose_section_telemetry_none_in_struct
FN:521,_RNvNtNtNtNtCs23MeGd5xNbL_10actual_cli3cli8commands6status5testss_53test_print_verbose_section_telemetry_enabled_explicit
FN:594,_RNvNtNtNtNtCs23MeGd5xNbL_10actual_cli3cli8commands6status5testss_57test_print_verbose_section_with_cached_analysis_no_commit
FN:566,_RNvNtNtNtNtCs23MeGd5xNbL_10actual_cli3cli8commands6status5testss_59test_print_verbose_section_with_cached_analysis_long_commit
FN:580,_RNvNtNtNtNtCs23MeGd5xNbL_10actual_cli3cli8commands6status5testss_60test_print_verbose_section_with_cached_analysis_short_commit
FN:541,_RNvNtNtNtNtCs23MeGd5xNbL_10actual_cli3cli8commands6status5testss_60test_print_verbose_section_with_custom_batch_and_concurrency
FN:608,_RNvNtNtNtNtCs23MeGd5xNbL_10actual_cli3cli8commands6status5testss_69test_print_verbose_section_with_cached_analysis_exactly_7_char_commit
FN:268,_RINvNtNtNtNtCs23MeGd5xNbL_10actual_cli3cli8commands6status5tests16with_temp_configNCNvB2_s_22test_exec_returns_zero0EBa_
FN:268,_RINvNtNtNtNtCs23MeGd5xNbL_10actual_cli3cli8commands6status5tests16with_temp_configNCNvB2_s_26test_load_and_run_succeeds0EBa_
FN:268,_RINvNtNtNtNtCs23MeGd5xNbL_10actual_cli3cli8commands6status5tests16with_temp_configNCNvB2_s_30test_exec_verbose_returns_zero0EBa_
FN:374,_RNCNvNtNtNtNtCs23MeGd5xNbL_10actual_cli3cli8commands6status5testss_22test_exec_returns_zero0Bb_
FN:634,_RNCNvNtNtNtNtCs23MeGd5xNbL_10actual_cli3cli8commands6status5testss_26test_load_and_run_succeeds0Bb_
FN:383,_RNCNvNtNtNtNtCs23MeGd5xNbL_10actual_cli3cli8commands6status5testss_30test_exec_verbose_returns_zero0Bb_
FNDA:2,_RNvNtNtNtCs14eHuuW48ek_10actual_cli3cli8commands6status10run_status
FNDA:2,_RNvNtNtNtCs14eHuuW48ek_10actual_cli3cli8commands6status11resolve_cwd
FNDA:2,_RNvNtNtNtCs14eHuuW48ek_10actual_cli3cli8commands6status12load_and_run
FNDA:84,_RNvNtNtNtCs14eHuuW48ek_10actual_cli3cli8commands6status18walk_for_claude_md
FNDA:2,_RNvNtNtNtCs14eHuuW48ek_10actual_cli3cli8commands6status20find_claude_md_files
FNDA:2,_RNvNtNtNtCs14eHuuW48ek_10actual_cli3cli8commands6status20print_config_section
FNDA:0,_RNvNtNtNtCs14eHuuW48ek_10actual_cli3cli8commands6status21print_verbose_section
FNDA:2,_RNvNtNtNtCs14eHuuW48ek_10actual_cli3cli8commands6status23print_claude_md_section
FNDA:2,_RNvNtNtNtCs14eHuuW48ek_10actual_cli3cli8commands6status4exec
FNDA:0,_RNCNvNtNtNtCs14eHuuW48ek_10actual_cli3cli8commands6status21print_verbose_sections_0B9_
FNDA:5,_RNvNtNtNtCs23MeGd5xNbL_10actual_cli3cli8commands6status10run_status
FNDA:4,_RNvNtNtNtCs23MeGd5xNbL_10actual_cli3cli8commands6status11resolve_cwd
FNDA:4,_RNvNtNtNtCs23MeGd5xNbL_10actual_cli3cli8commands6status12load_and_run
FNDA:144,_RNvNtNtNtCs23MeGd5xNbL_10actual_cli3cli8commands6status18walk_for_claude_md
FNDA:18,_RNvNtNtNtCs23MeGd5xNbL_10actual_cli3cli8commands6status20find_claude_md_files
FNDA:10,_RNvNtNtNtCs23MeGd5xNbL_10actual_cli3cli8commands6status20print_config_section
FNDA:12,_RNvNtNtNtCs23MeGd5xNbL_10actual_cli3cli8commands6status21print_verbose_section
FNDA:9,_RNvNtNtNtCs23MeGd5xNbL_10actual_cli3cli8commands6status23print_claude_md_section
FNDA:3,_RNvNtNtNtCs23MeGd5xNbL_10actual_cli3cli8commands6status4exec
FNDA:2,_RNCNvNtNtNtCs23MeGd5xNbL_10actual_cli3cli8commands6status21print_verbose_sections_0B9_
FNDA:6,_RNvNtNtNtNtCs23MeGd5xNbL_10actual_cli3cli8commands6status5tests11restore_env
FNDA:1,_RNvNtNtNtNtCs23MeGd5xNbL_10actual_cli3cli8commands6status5testss_20test_exec_error_path
FNDA:1,_RNvNtNtNtNtCs23MeGd5xNbL_10actual_cli3cli8commands6status5testss_22test_exec_returns_zero
FNDA:1,_RNvNtNtNtNtCs23MeGd5xNbL_10actual_cli3cli8commands6status5testss_26test_load_and_run_succeeds
FNDA:1,_RNvNtNtNtNtCs23MeGd5xNbL_10actual_cli3cli8commands6status5testss_27test_run_status_normal_mode
FNDA:1,_RNvNtNtNtNtCs23MeGd5xNbL_10actual_cli3cli8commands6status5testss_28test_run_status_verbose_mode
FNDA:1,_RNvNtNtNtNtCs23MeGd5xNbL_10actual_cli3cli8commands6status5testss_29test_resolve_cwd_returns_path
FNDA:1,_RNvNtNtNtNtCs23MeGd5xNbL_10actual_cli3cli8commands6status5testss_30test_exec_verbose_returns_zero
FNDA:1,_RNvNtNtNtNtCs23MeGd5xNbL_10actual_cli3cli8commands6status5testss_30test_restore_env_both_branches
FNDA:1,_RNvNtNtNtNtCs23MeGd5xNbL_10actual_cli3cli8commands6status5testss_32test_find_claude_md_files_sorted
FNDA:1,_RNvNtNtNtNtCs23MeGd5xNbL_10actual_cli3cli8commands6status5testss_34test_print_claude_md_section_empty
FNDA:1,_RNvNtNtNtNtCs23MeGd5xNbL_10actual_cli3cli8commands6status5testss_35test_find_claude_md_files_empty_dir
FNDA:1,_RNvNtNtNtNtCs23MeGd5xNbL_10actual_cli3cli8commands6status5testss_35test_print_verbose_section_defaults
FNDA:1,_RNvNtNtNtNtCs23MeGd5xNbL_10actual_cli3cli8commands6status5testss_36test_print_claude_md_section_managed
FNDA:1,_RNvNtNtNtNtCs23MeGd5xNbL_10actual_cli3cli8commands6status5testss_38test_find_claude_md_files_finds_nested
FNDA:1,_RNvNtNtNtNtCs23MeGd5xNbL_10actual_cli3cli8commands6status5testss_38test_print_claude_md_section_unmanaged
FNDA:1,_RNvNtNtNtNtCs23MeGd5xNbL_10actual_cli3cli8commands6status5testss_40test_print_config_section_created_config
FNDA:1,_RNvNtNtNtNtCs23MeGd5xNbL_10actual_cli3cli8commands6status5testss_40test_print_config_section_custom_api_url
FNDA:1,_RNvNtNtNtNtCs23MeGd5xNbL_10actual_cli3cli8commands6status5testss_40test_print_config_section_default_config
FNDA:1,_RNvNtNtNtNtCs23MeGd5xNbL_10actual_cli3cli8commands6status5testss_41test_find_claude_md_files_finds_root_file
FNDA:1,_RNvNtNtNtNtCs23MeGd5xNbL_10actual_cli3cli8commands6status5testss_41test_find_claude_md_files_nonexistent_dir
FNDA:1,_RNvNtNtNtNtCs23MeGd5xNbL_10actual_cli3cli8commands6status5testss_42test_print_config_section_verbose_no_model
FNDA:1,_RNvNtNtNtNtCs23MeGd5xNbL_10actual_cli3cli8commands6status5testss_43test_find_claude_md_files_skips_hidden_dirs
FNDA:1,_RNvNtNtNtNtCs23MeGd5xNbL_10actual_cli3cli8commands6status5testss_44test_find_claude_md_files_skips_node_modules
FNDA:1,_RNvNtNtNtNtCs23MeGd5xNbL_10actual_cli3cli8commands6status5testss_44test_print_config_section_verbose_with_model
FNDA:1,_RNvNtNtNtNtCs23MeGd5xNbL_10actual_cli3cli8commands6status5testss_45test_print_verbose_section_telemetry_disabled
FNDA:1,_RNvNtNtNtNtCs23MeGd5xNbL_10actual_cli3cli8commands6status5testss_45test_print_verbose_section_with_rejected_adrs
FNDA:1,_RNvNtNtNtNtCs23MeGd5xNbL_10actual_cli3cli8commands6status5testss_48test_find_claude_md_files_ignores_other_md_files
FNDA:1,_RNvNtNtNtNtCs23MeGd5xNbL_10actual_cli3cli8commands6status5testss_48test_find_claude_md_files_skips_all_ignored_dirs
FNDA:1,_RNvNtNtNtNtCs23MeGd5xNbL_10actual_cli3cli8commands6status5testss_48test_print_claude_md_section_managed_no_metadata
FNDA:1,_RNvNtNtNtNtCs23MeGd5xNbL_10actual_cli3cli8commands6status5testss_51test_print_verbose_section_telemetry_none_in_struct
FNDA:1,_RNvNtNtNtNtCs23MeGd5xNbL_10actual_cli3cli8commands6status5testss_53test_print_verbose_section_telemetry_enabled_explicit
FNDA:1,_RNvNtNtNtNtCs23MeGd5xNbL_10actual_cli3cli8commands6status5testss_57test_print_verbose_section_with_cached_analysis_no_commit
FNDA:1,_RNvNtNtNtNtCs23MeGd5xNbL_10actual_cli3cli8commands6status5testss_59test_print_verbose_section_with_cached_analysis_long_commit
FNDA:1,_RNvNtNtNtNtCs23MeGd5xNbL_10actual_cli3cli8commands6status5testss_60test_print_verbose_section_with_cached_analysis_short_commit
FNDA:1,_RNvNtNtNtNtCs23MeGd5xNbL_10actual_cli3cli8commands6status5testss_60test_print_verbose_section_with_custom_batch_and_concurrency
FNDA:1,_RNvNtNtNtNtCs23MeGd5xNbL_10actual_cli3cli8commands6status5testss_69test_print_verbose_section_with_cached_analysis_exactly_7_char_commit
FNDA:1,_RINvNtNtNtNtCs23MeGd5xNbL_10actual_cli3cli8commands6status5tests16with_temp_configNCNvB2_s_22test_exec_returns_zero0EBa_
FNDA:1,_RINvNtNtNtNtCs23MeGd5xNbL_10actual_cli3cli8commands6status5tests16with_temp_configNCNvB2_s_26test_load_and_run_succeeds0EBa_
FNDA:1,_RINvNtNtNtNtCs23MeGd5xNbL_10actual_cli3cli8commands6status5tests16with_temp_configNCNvB2_s_30test_exec_verbose_returns_zero0EBa_
FNDA:1,_RNCNvNtNtNtNtCs23MeGd5xNbL_10actual_cli3cli8commands6status5testss_22test_exec_returns_zero0Bb_
FNDA:1,_RNCNvNtNtNtNtCs23MeGd5xNbL_10actual_cli3cli8commands6status5testss_26test_load_and_run_succeeds0Bb_
FNDA:1,_RNCNvNtNtNtNtCs23MeGd5xNbL_10actual_cli3cli8commands6status5testss_30test_exec_verbose_returns_zero0Bb_
FNF:51
FNH:51
DA:13,5
DA:14,5
DA:15,4
DA:16,1
DA:17,1
DA:18,1
DA:21,5
DA:23,6
DA:24,6
DA:25,6
DA:26,6
DA:27,5
DA:28,5
DA:29,5
DA:30,6
DA:34,6
DA:35,6
DA:36,6
DA:37,6
DA:39,7
DA:40,7
DA:41,7
DA:42,7
DA:43,7
DA:44,7
DA:45,7
DA:47,7
DA:49,7
DA:52,7
DA:55,7
DA:56,2
DA:57,2
DA:58,5
DA:59,7
DA:61,12
DA:62,12
DA:64,12
DA:65,6
DA:67,6
DA:69,12
DA:70,12
DA:72,12
DA:76,12
DA:77,12
DA:78,11
DA:80,1
DA:82,12
DA:84,12
DA:85,4
DA:86,4
DA:87,4
DA:88,4
DA:89,4
DA:90,8
DA:91,12
DA:93,11
DA:94,11
DA:96,11
DA:98,11
DA:99,3
DA:100,3
DA:101,3
DA:102,3
DA:104,3
DA:105,8
DA:107,16
DA:108,8
DA:109,8
DA:111,8
DA:113,8
DA:114,2
DA:115,2
DA:117,2
DA:118,2
DA:119,1
DA:120,1
DA:121,2
DA:122,1
DA:123,1
DA:125,2
DA:126,1
DA:128,1
DA:131,2
DA:132,2
DA:133,2
DA:135,2
DA:138,6
DA:139,6
DA:140,6
DA:141,6
DA:142,6
DA:143,6
DA:144,6
DA:145,6
DA:147,11
DA:149,12
DA:150,12
DA:153,12
DA:154,12
DA:155,12
DA:156,12
DA:157,12
DA:158,12
DA:159,12
DA:161,12
DA:162,11
DA:164,1
DA:169,12
DA:170,12
DA:173,12
DA:174,12
DA:177,12
DA:178,2
DA:179,1
DA:180,1
DA:183,1
DA:185,11
DA:186,11
DA:187,11
DA:190,12
DA:191,4
DA:192,4
DA:193,4
DA:194,3
DA:195,1
DA:197,2
DA:199,3
DA:200,1
DA:201,4
DA:202,8
DA:203,8
DA:204,8
DA:205,12
DA:211,20
DA:212,20
DA:213,20
DA:214,20
DA:215,20
DA:216,20
DA:231,228
DA:232,228
DA:233,227
DA:234,1
DA:237,1086
DA:238,1086
DA:239,1086
DA:240,1086
DA:241,1086
DA:243,250
DA:244,42
DA:245,208
DA:246,208
DA:247,836
DA:248,15
DA:249,821
DA:251,228
DA:261,6
DA:262,6
DA:263,1
DA:264,5
DA:266,6
DA:268,3
DA:269,3
DA:270,3
DA:271,3
DA:272,3
DA:273,3
DA:274,3
DA:275,3
DA:276,3
DA:281,1
DA:282,1
DA:283,1
DA:284,1
DA:285,1
DA:288,1
DA:289,1
DA:290,1
DA:291,1
DA:292,1
DA:293,1
DA:294,1
DA:297,1
DA:298,1
DA:299,1
DA:300,1
DA:301,1
DA:302,1
DA:303,1
DA:304,1
DA:305,1
DA:308,1
DA:309,1
DA:310,1
DA:311,1
DA:312,1
DA:313,1
DA:314,1
DA:315,1
DA:318,1
DA:319,1
DA:320,1
DA:321,1
DA:322,1
DA:323,1
DA:324,1
DA:325,1
DA:326,1
DA:329,1
DA:330,1
DA:331,1
DA:332,1
DA:333,1
DA:334,1
DA:335,1
DA:336,1
DA:339,1
DA:340,1
DA:341,1
DA:342,1
DA:343,1
DA:344,1
DA:345,1
DA:346,1
DA:347,1
DA:348,1
DA:349,1
DA:350,1
DA:353,1
DA:354,1
DA:355,1
DA:356,1
DA:359,1
DA:360,1
DA:361,11
DA:362,10
DA:363,10
DA:364,10
DA:365,10
DA:366,1
DA:367,1
DA:368,1
DA:373,1
DA:374,1
DA:375,1
DA:376,1
DA:377,1
DA:378,1
DA:379,1
DA:382,1
DA:383,1
DA:384,1
DA:385,1
DA:386,1
DA:387,1
DA:388,1
DA:391,1
DA:392,1
DA:393,1
DA:395,1
DA:396,1
DA:397,1
DA:398,1
DA:399,1
DA:400,1
DA:403,1
DA:404,1
DA:405,1
DA:408,1
DA:409,1
DA:410,1
DA:413,1
DA:414,1
DA:415,1
DA:420,1
DA:421,1
DA:422,1
DA:424,1
DA:425,1
DA:428,1
DA:429,1
DA:430,1
DA:432,1
DA:433,1
DA:436,1
DA:437,1
DA:438,1
DA:439,1
DA:440,1
DA:441,1
DA:443,1
DA:444,1
DA:447,1
DA:448,1
DA:449,1
DA:450,1
DA:451,1
DA:452,1
DA:454,1
DA:455,1
DA:458,1
DA:459,1
DA:460,1
DA:462,1
DA:463,1
DA:468,1
DA:469,1
DA:470,1
DA:471,1
DA:474,1
DA:475,1
DA:476,1
DA:477,1
DA:478,1
DA:481,1
DA:482,1
DA:483,1
DA:484,1
DA:485,1
DA:486,1
DA:489,1
DA:490,1
DA:492,1
DA:493,1
DA:497,1
DA:498,1
DA:499,1
DA:504,1
DA:505,1
DA:506,1
DA:507,1
DA:510,1
DA:511,1
DA:512,1
DA:513,1
DA:514,1
DA:515,1
DA:516,1
DA:517,1
DA:518,1
DA:521,1
DA:522,1
DA:523,1
DA:524,1
DA:525,1
DA:526,1
DA:527,1
DA:528,1
DA:529,1
DA:532,1
DA:533,1
DA:534,1
DA:535,1
DA:536,1
DA:537,1
DA:538,1
DA:541,1
DA:542,1
DA:543,1
DA:544,1
DA:545,1
DA:546,1
DA:547,1
DA:548,1
DA:551,1
DA:552,1
DA:553,1
DA:554,1
DA:555,1
DA:557,1
DA:558,1
DA:559,1
DA:560,1
DA:561,1
DA:562,1
DA:563,1
DA:566,1
DA:567,1
DA:568,1
DA:569,1
DA:570,1
DA:571,1
DA:572,1
DA:573,1
DA:574,1
DA:575,1
DA:576,1
DA:577,1
DA:580,1
DA:581,1
DA:582,1
DA:583,1
DA:584,1
DA:585,1
DA:586,1
DA:587,1
DA:588,1
DA:589,1
DA:590,1
DA:591,1
DA:594,1
DA:595,1
DA:596,1
DA:597,1
DA:598,1
DA:599,1
DA:600,1
DA:601,1
DA:602,1
DA:603,1
DA:604,1
DA:605,1
DA:608,1
DA:609,1
DA:610,1
DA:611,1
DA:612,1
DA:613,1
DA:614,1
DA:615,1
DA:616,1
DA:617,1
DA:618,1
DA:619,1
DA:624,1
DA:625,1
DA:627,1
DA:628,1
DA:633,1
DA:634,1
DA:635,1
DA:636,1
DA:637,1
DA:638,1
DA:643,1
DA:644,1
DA:645,1
DA:646,1
DA:647,1
DA:648,1
DA:649,1
DA:650,1
DA:652,1
DA:654,1
DA:657,1
DA:658,1
DA:659,1
DA:660,1
DA:661,1
DA:662,1
DA:663,1
DA:664,1
DA:666,1
DA:668,1
BRF:0
BRH:0
LF:458
LH:458
end_of_record
SF:/Users/poile/repos/actualai/actual-cli/.worktrees/2u6.4/src/cli/commands/sync.rs
FN:69,_RINvNtNtNtCs14eHuuW48ek_10actual_cli3cli8commands4sync8run_syncNtNtNtB8_6claude10subprocess15CliClaudeRunnerEB8_
FN:159,_RNCINvNtNtNtCs14eHuuW48ek_10actual_cli3cli8commands4sync8run_syncNtNtNtBa_6claude10subprocess15CliClaudeRunnerE0Ba_
FN:152,_RNCINvNtNtNtCs14eHuuW48ek_10actual_cli3cli8commands4sync8run_syncNtNtNtBa_6claude10subprocess15CliClaudeRunnerEs_0Ba_
FN:160,_RNCNCINvNtNtNtCs14eHuuW48ek_10actual_cli3cli8commands4sync8run_syncNtNtNtBc_6claude10subprocess15CliClaudeRunnerE00Bc_
FN:244,_RNCNvNtNtNtCs14eHuuW48ek_10actual_cli3cli8commands4sync15filter_projects0B9_
FN:269,_RNCNvNtNtNtCs14eHuuW48ek_10actual_cli3cli8commands4sync16compute_repo_key0B9_
FN:271,_RNCNvNtNtNtCs14eHuuW48ek_10actual_cli3cli8commands4sync16compute_repo_keys0_0B9_
FN:270,_RNCNvNtNtNtCs14eHuuW48ek_10actual_cli3cli8commands4sync16compute_repo_keys_0B9_
FN:417,_RNCNvNtNtNtCs14eHuuW48ek_10actual_cli3cli8commands4sync17confirm_and_write0B9_
FN:306,_RNCNvNtNtNtCs14eHuuW48ek_10actual_cli3cli8commands4sync18raw_adrs_to_output0B9_
FN:337,_RNCNvNtNtNtCs14eHuuW48ek_10actual_cli3cli8commands4sync18raw_adrs_to_outputs_0B9_
FN:59,_RNvNtNtNtCs14eHuuW48ek_10actual_cli3cli8commands4sync11resolve_cwd
FN:47,_RNvNtNtNtCs14eHuuW48ek_10actual_cli3cli8commands4sync13handle_result
FN:233,_RNvNtNtNtCs14eHuuW48ek_10actual_cli3cli8commands4sync15filter_projects
FN:263,_RNvNtNtNtCs14eHuuW48ek_10actual_cli3cli8commands4sync16compute_repo_key
FN:405,_RNvNtNtNtCs14eHuuW48ek_10actual_cli3cli8commands4sync17confirm_and_write
FN:283,_RNvNtNtNtCs14eHuuW48ek_10actual_cli3cli8commands4sync18raw_adrs_to_output
FN:491,_RNvNtNtNtCs14eHuuW48ek_10actual_cli3cli8commands4sync20report_write_results
FN:356,_RNvNtNtNtCs14eHuuW48ek_10actual_cli3cli8commands4sync23find_existing_claude_md
FN:43,_RNvNtNtNtCs14eHuuW48ek_10actual_cli3cli8commands4sync4exec
FN:359,_RNvNvNtNtNtCs14eHuuW48ek_10actual_cli3cli8commands4sync23find_existing_claude_md4walk
FN:59,_RNvNtNtNtCs23MeGd5xNbL_10actual_cli3cli8commands4sync11resolve_cwd
FN:47,_RNvNtNtNtCs23MeGd5xNbL_10actual_cli3cli8commands4sync13handle_result
FN:233,_RNvNtNtNtCs23MeGd5xNbL_10actual_cli3cli8commands4sync15filter_projects
FN:263,_RNvNtNtNtCs23MeGd5xNbL_10actual_cli3cli8commands4sync16compute_repo_key
FN:405,_RNvNtNtNtCs23MeGd5xNbL_10actual_cli3cli8commands4sync17confirm_and_write
FN:283,_RNvNtNtNtCs23MeGd5xNbL_10actual_cli3cli8commands4sync18raw_adrs_to_output
FN:491,_RNvNtNtNtCs23MeGd5xNbL_10actual_cli3cli8commands4sync20report_write_results
FN:356,_RNvNtNtNtCs23MeGd5xNbL_10actual_cli3cli8commands4sync23find_existing_claude_md
FN:43,_RNvNtNtNtCs23MeGd5xNbL_10actual_cli3cli8commands4sync4exec
FN:359,_RNvNvNtNtNtCs23MeGd5xNbL_10actual_cli3cli8commands4sync23find_existing_claude_md4walk
FN:69,_RINvNtNtNtCs23MeGd5xNbL_10actual_cli3cli8commands4sync8run_syncNtNtB2_5tests10MockRunnerEB8_
FN:69,_RINvNtNtNtCs23MeGd5xNbL_10actual_cli3cli8commands4sync8run_syncNtNtNtB8_6claude10subprocess15CliClaudeRunnerEB8_
FN:159,_RNCINvNtNtNtCs23MeGd5xNbL_10actual_cli3cli8commands4sync8run_syncNtNtB4_5tests10MockRunnerE0Ba_
FN:152,_RNCINvNtNtNtCs23MeGd5xNbL_10actual_cli3cli8commands4sync8run_syncNtNtB4_5tests10MockRunnerEs_0Ba_
FN:159,_RNCINvNtNtNtCs23MeGd5xNbL_10actual_cli3cli8commands4sync8run_syncNtNtNtBa_6claude10subprocess15CliClaudeRunnerE0Ba_
FN:152,_RNCINvNtNtNtCs23MeGd5xNbL_10actual_cli3cli8commands4sync8run_syncNtNtNtBa_6claude10subprocess15CliClaudeRunnerEs_0Ba_
FN:160,_RNCNCINvNtNtNtCs23MeGd5xNbL_10actual_cli3cli8commands4sync8run_syncNtNtB6_5tests10MockRunnerE00Bc_
FN:160,_RNCNCINvNtNtNtCs23MeGd5xNbL_10actual_cli3cli8commands4sync8run_syncNtNtNtBc_6claude10subprocess15CliClaudeRunnerE00Bc_
FN:244,_RNCNvNtNtNtCs23MeGd5xNbL_10actual_cli3cli8commands4sync15filter_projects0B9_
FN:269,_RNCNvNtNtNtCs23MeGd5xNbL_10actual_cli3cli8commands4sync16compute_repo_key0B9_
FN:271,_RNCNvNtNtNtCs23MeGd5xNbL_10actual_cli3cli8commands4sync16compute_repo_keys0_0B9_
FN:270,_RNCNvNtNtNtCs23MeGd5xNbL_10actual_cli3cli8commands4sync16compute_repo_keys_0B9_
FN:417,_RNCNvNtNtNtCs23MeGd5xNbL_10actual_cli3cli8commands4sync17confirm_and_write0B9_
FN:306,_RNCNvNtNtNtCs23MeGd5xNbL_10actual_cli3cli8commands4sync18raw_adrs_to_output0B9_
FN:337,_RNCNvNtNtNtCs23MeGd5xNbL_10actual_cli3cli8commands4sync18raw_adrs_to_outputs_0B9_
FN:603,_RINvXs1_NtNtNtNtCs23MeGd5xNbL_10actual_cli3cli8commands4sync5testsNtB6_10MockRunnerNtNtNtBe_6claude10subprocess12ClaudeRunner3runNtNtNtBe_8analysis5types12RepoAnalysisEBe_
FN:603,_RINvXs1_NtNtNtNtCs23MeGd5xNbL_10actual_cli3cli8commands4sync5testsNtB6_10MockRunnerNtNtNtBe_6claude10subprocess12ClaudeRunner3runNtNtNtBe_9tailoring5types15TailoringOutputEBe_
FN:606,_RNCINvXs1_NtNtNtNtCs23MeGd5xNbL_10actual_cli3cli8commands4sync5testsNtB8_10MockRunnerNtNtNtBg_6claude10subprocess12ClaudeRunner3runNtNtNtBg_8analysis5types12RepoAnalysisE0Bg_
FN:606,_RNCINvXs1_NtNtNtNtCs23MeGd5xNbL_10actual_cli3cli8commands4sync5testsNtB8_10MockRunnerNtNtNtBg_6claude10subprocess12ClaudeRunner3runNtNtNtBg_9tailoring5types15TailoringOutputE0Bg_
FN:552,_RNCNvMNtNtNtNtCs23MeGd5xNbL_10actual_cli3cli8commands4sync5testsNtB4_12MockTerminal3new0Bc_
FN:670,_RNCNvNtNtNtNtCs23MeGd5xNbL_10actual_cli3cli8commands4sync5tests9make_file0Bb_
FN:1714,_RNCNvNtNtNtNtCs23MeGd5xNbL_10actual_cli3cli8commands4sync5testss_41test_raw_adrs_to_output_multiple_projects0Bb_
FN:557,_RNvMNtNtNtNtCs23MeGd5xNbL_10actual_cli3cli8commands4sync5testsNtB2_12MockTerminal11output_text
FN:550,_RNvMNtNtNtNtCs23MeGd5xNbL_10actual_cli3cli8commands4sync5testsNtB2_12MockTerminal3new
FN:595,_RNvMs0_NtNtNtNtCs23MeGd5xNbL_10actual_cli3cli8commands4sync5testsNtB5_10MockRunner3new
FN:619,_RNvMs2_NtNtNtNtCs23MeGd5xNbL_10actual_cli3cli8commands4sync5testsNtB5_15MockInputReader3new
FN:627,_RNvMs2_NtNtNtNtCs23MeGd5xNbL_10actual_cli3cli8commands4sync5testsNtB5_15MockInputReader6accept
FN:632,_RNvMs2_NtNtNtNtCs23MeGd5xNbL_10actual_cli3cli8commands4sync5testsNtB5_15MockInputReader6reject
FN:651,_RNvNtNtNtNtCs23MeGd5xNbL_10actual_cli3cli8commands4sync5tests11make_output
FN:1646,_RNvNtNtNtNtCs23MeGd5xNbL_10actual_cli3cli8commands4sync5tests13make_test_adr
FN:1055,_RNvNtNtNtNtCs23MeGd5xNbL_10actual_cli3cli8commands4sync5tests14make_sync_args
FN:1044,_RNvNtNtNtNtCs23MeGd5xNbL_10actual_cli3cli8commands4sync5tests15mock_api_server
FN:674,_RNvNtNtNtNtCs23MeGd5xNbL_10actual_cli3cli8commands4sync5tests22make_monorepo_analysis
FN:2031,_RNvNtNtNtNtCs23MeGd5xNbL_10actual_cli3cli8commands4sync5tests25mock_api_server_with_adrs
FN:1076,_RNvNtNtNtNtCs23MeGd5xNbL_10actual_cli3cli8commands4sync5tests28make_sync_args_with_projects
FN:665,_RNvNtNtNtNtCs23MeGd5xNbL_10actual_cli3cli8commands4sync5tests9make_file
FN:1356,_RNvNtNtNtNtCs23MeGd5xNbL_10actual_cli3cli8commands4sync5testss_21test_handle_result_ok
FN:992,_RNvNtNtNtNtCs23MeGd5xNbL_10actual_cli3cli8commands4sync5testss_23test_sync_result_counts
FN:1344,_RNvNtNtNtNtCs23MeGd5xNbL_10actual_cli3cli8commands4sync5testss_26test_exec_claude_not_found
FN:833,_RNvNtNtNtNtCs23MeGd5xNbL_10actual_cli3cli8commands4sync5testss_27test_confirm_and_write_quit
FN:1416,_RNvNtNtNtNtCs23MeGd5xNbL_10actual_cli3cli8commands4sync5testss_28test_run_sync_analysis_error
FN:1667,_RNvNtNtNtNtCs23MeGd5xNbL_10actual_cli3cli8commands4sync5testss_29test_raw_adrs_to_output_empty
FN:1030,_RNvNtNtNtNtCs23MeGd5xNbL_10actual_cli3cli8commands4sync5testss_29test_resolve_cwd_returns_path
FN:752,_RNvNtNtNtNtCs23MeGd5xNbL_10actual_cli3cli8commands4sync5testss_30test_confirm_and_write_dry_run
FN:1092,_RNvNtNtNtNtCs23MeGd5xNbL_10actual_cli3cli8commands4sync5testss_30test_run_sync_force_returns_ok
FN:1976,_RNvNtNtNtNtCs23MeGd5xNbL_10actual_cli3cli8commands4sync5testss_30test_run_sync_reset_rejections
FN:885,_RNvNtNtNtNtCs23MeGd5xNbL_10actual_cli3cli8commands4sync5testss_31test_confirm_and_write_new_file
FN:1367,_RNvNtNtNtNtCs23MeGd5xNbL_10actual_cli3cli8commands4sync5testss_31test_handle_result_config_error
FN:1592,_RNvNtNtNtNtCs23MeGd5xNbL_10actual_cli3cli8commands4sync5testss_31test_report_write_results_mixed
FN:1373,_RNvNtNtNtNtCs23MeGd5xNbL_10actual_cli3cli8commands4sync5testss_31test_sync_result_debug_clone_eq
FN:1309,_RNvNtNtNtNtCs23MeGd5xNbL_10actual_cli3cli8commands4sync5testss_32test_filter_projects_matches_one
FN:1404,_RNvNtNtNtNtCs23MeGd5xNbL_10actual_cli3cli8commands4sync5testss_32test_mock_input_reader_exhausted
FN:1625,_RNvNtNtNtNtCs23MeGd5xNbL_10actual_cli3cli8commands4sync5testss_33test_compute_repo_key_non_git_dir
FN:724,_RNvNtNtNtNtCs23MeGd5xNbL_10actual_cli3cli8commands4sync5testss_33test_confirm_and_write_force_mode
FN:1361,_RNvNtNtNtNtCs23MeGd5xNbL_10actual_cli3cli8commands4sync5testss_33test_handle_result_user_cancelled
FN:1523,_RNvNtNtNtNtCs23MeGd5xNbL_10actual_cli3cli8commands4sync5testss_33test_report_write_results_created
FN:1546,_RNvNtNtNtNtCs23MeGd5xNbL_10actual_cli3cli8commands4sync5testss_33test_report_write_results_updated
FN:811,_RNvNtNtNtNtCs23MeGd5xNbL_10actual_cli3cli8commands4sync5testss_34test_confirm_and_write_reject_file
FN:962,_RNvNtNtNtNtCs23MeGd5xNbL_10actual_cli3cli8commands4sync5testss_35test_confirm_and_write_all_rejected
FN:779,_RNvNtNtNtNtCs23MeGd5xNbL_10actual_cli3cli8commands4sync5testss_35test_confirm_and_write_dry_run_full
FN:946,_RNvNtNtNtNtCs23MeGd5xNbL_10actual_cli3cli8commands4sync5testss_35test_confirm_and_write_empty_output
FN:1162,_RNvNtNtNtNtCs23MeGd5xNbL_10actual_cli3cli8commands4sync5testss_35test_run_sync_no_flags_prompts_user
FN:1945,_RNvNtNtNtNtCs23MeGd5xNbL_10actual_cli3cli8commands4sync5testss_35test_run_sync_verbose_shows_details
FN:1256,_RNvNtNtNtNtCs23MeGd5xNbL_10actual_cli3cli8commands4sync5testss_36test_run_sync_project_filter_matches
FN:1318,_RNvNtNtNtNtCs23MeGd5xNbL_10actual_cli3cli8commands4sync5testss_37test_filter_projects_matches_multiple
FN:1854,_RNvNtNtNtNtCs23MeGd5xNbL_10actual_cli3cli8commands4sync5testss_37test_run_sync_api_error_returns_error
FN:1440,_RNvNtNtNtNtCs23MeGd5xNbL_10actual_cli3cli8commands4sync5testss_37test_run_sync_confirm_and_write_error
FN:1230,_RNvNtNtNtNtCs23MeGd5xNbL_10actual_cli3cli8commands4sync5testss_37test_run_sync_dry_run_writes_no_files
FN:1278,_RNvNtNtNtNtCs23MeGd5xNbL_10actual_cli3cli8commands4sync5testss_37test_run_sync_project_filter_no_match
FN:914,_RNvNtNtNtNtCs23MeGd5xNbL_10actual_cli3cli8commands4sync5testss_38test_confirm_and_write_update_existing
FN:1755,_RNvNtNtNtNtCs23MeGd5xNbL_10actual_cli3cli8commands4sync5testss_38test_find_existing_claude_md_empty_dir
FN:1389,_RNvNtNtNtNtCs23MeGd5xNbL_10actual_cli3cli8commands4sync5testss_38test_mock_terminal_read_line_exhausted
FN:1139,_RNvNtNtNtNtCs23MeGd5xNbL_10actual_cli3cli8commands4sync5testss_38test_run_sync_force_dry_run_returns_ok
FN:1207,_RNvNtNtNtNtCs23MeGd5xNbL_10actual_cli3cli8commands4sync5testss_38test_run_sync_force_skips_confirmation
FN:1762,_RNvNtNtNtNtCs23MeGd5xNbL_10actual_cli3cli8commands4sync5testss_39test_find_existing_claude_md_finds_root
FN:1690,_RNvNtNtNtNtCs23MeGd5xNbL_10actual_cli3cli8commands4sync5testss_40test_raw_adrs_to_output_adr_with_project
FN:1117,_RNvNtNtNtNtCs23MeGd5xNbL_10actual_cli3cli8commands4sync5testss_40test_run_sync_no_tailor_force_returns_ok
FN:1771,_RNvNtNtNtNtCs23MeGd5xNbL_10actual_cli3cli8commands4sync5testss_41test_find_existing_claude_md_finds_nested
FN:1706,_RNvNtNtNtNtCs23MeGd5xNbL_10actual_cli3cli8commands4sync5testss_41test_raw_adrs_to_output_multiple_projects
FN:1334,_RNvNtNtNtNtCs23MeGd5xNbL_10actual_cli3cli8commands4sync5testss_42test_filter_projects_preserves_is_monorepo
FN:1636,_RNvNtNtNtNtCs23MeGd5xNbL_10actual_cli3cli8commands4sync5testss_43test_compute_repo_key_different_dirs_differ
FN:1326,_RNvNtNtNtNtCs23MeGd5xNbL_10actual_cli3cli8commands4sync5testss_43test_filter_projects_no_match_returns_error
FN:1838,_RNvNtNtNtNtCs23MeGd5xNbL_10actual_cli3cli8commands4sync5testss_43test_find_existing_claude_md_unreadable_dir
FN:2075,_RNvNtNtNtNtCs23MeGd5xNbL_10actual_cli3cli8commands4sync5testss_43test_run_sync_tailoring_error_returns_error
FN:852,_RNvNtNtNtNtCs23MeGd5xNbL_10actual_cli3cli8commands4sync5testss_44test_confirm_and_write_write_error_continues
FN:1806,_RNvNtNtNtNtCs23MeGd5xNbL_10actual_cli3cli8commands4sync5testss_44test_find_existing_claude_md_strips_metadata
FN:1698,_RNvNtNtNtNtCs23MeGd5xNbL_10actual_cli3cli8commands4sync5testss_44test_raw_adrs_to_output_adr_with_dot_project
FN:1185,_RNvNtNtNtNtCs23MeGd5xNbL_10actual_cli3cli8commands4sync5testss_44test_run_sync_user_rejects_returns_cancelled
FN:1302,_RNvNtNtNtNtCs23MeGd5xNbL_10actual_cli3cli8commands4sync5testss_46test_filter_projects_empty_filters_returns_all
FN:1784,_RNvNtNtNtNtCs23MeGd5xNbL_10actual_cli3cli8commands4sync5testss_46test_find_existing_claude_md_skips_hidden_dirs
FN:1676,_RNvNtNtNtNtCs23MeGd5xNbL_10actual_cli3cli8commands4sync5testss_46test_raw_adrs_to_output_single_adr_no_projects
FN:1793,_RNvNtNtNtNtCs23MeGd5xNbL_10actual_cli3cli8commands4sync5testss_47test_find_existing_claude_md_skips_node_modules
FN:1882,_RNvNtNtNtNtCs23MeGd5xNbL_10actual_cli3cli8commands4sync5testss_47test_run_sync_no_tailor_with_adrs_creates_files
FN:1723,_RNvNtNtNtNtCs23MeGd5xNbL_10actual_cli3cli8commands4sync5testss_48test_raw_adrs_to_output_adr_without_instructions
FN:1738,_RNvNtNtNtNtCs23MeGd5xNbL_10actual_cli3cli8commands4sync5testss_51test_raw_adrs_to_output_adr_with_empty_instructions
FN:1569,_RNvNtNtNtNtCs23MeGd5xNbL_10actual_cli3cli8commands4sync5testss_51test_report_write_results_failed_with_error_message
FN:1500,_RNvNtNtNtNtCs23MeGd5xNbL_10actual_cli3cli8commands4sync5testss_54test_report_write_results_failed_without_error_message
FN:2043,_RNvNtNtNtNtCs23MeGd5xNbL_10actual_cli3cli8commands4sync5testss_58test_run_sync_verbose_with_rejections_shows_filter_message
FN:638,_RNvXs3_NtNtNtNtCs23MeGd5xNbL_10actual_cli3cli8commands4sync5testsNtB5_15MockInputReaderNtNtNtBb_2ui7confirm11InputReader9read_line
FN:571,_RNvXs_NtNtNtNtCs23MeGd5xNbL_10actual_cli3cli8commands4sync5testsNtB4_12MockTerminalNtNtNtBa_2ui12file_confirm10TerminalIO10write_line
FN:563,_RNvXs_NtNtNtNtCs23MeGd5xNbL_10actual_cli3cli8commands4sync5testsNtB4_12MockTerminalNtNtNtBa_2ui12file_confirm10TerminalIO9read_line
FNDA:33,_RINvNtNtNtCs14eHuuW48ek_10actual_cli3cli8commands4sync8run_syncNtNtNtB8_6claude10subprocess15CliClaudeRunnerEB8_
FNDA:31,_RNCINvNtNtNtCs14eHuuW48ek_10actual_cli3cli8commands4sync8run_syncNtNtNtBa_6claude10subprocess15CliClaudeRunnerE0Ba_
FNDA:1,_RNCINvNtNtNtCs14eHuuW48ek_10actual_cli3cli8commands4sync8run_syncNtNtNtBa_6claude10subprocess15CliClaudeRunnerEs_0Ba_
FNDA:35,_RNCNCINvNtNtNtCs14eHuuW48ek_10actual_cli3cli8commands4sync8run_syncNtNtNtBc_6claude10subprocess15CliClaudeRunnerE00Bc_
FNDA:6,_RNCNvNtNtNtCs14eHuuW48ek_10actual_cli3cli8commands4sync15filter_projects0B9_
FNDA:31,_RNCNvNtNtNtCs14eHuuW48ek_10actual_cli3cli8commands4sync16compute_repo_key0B9_
FNDA:30,_RNCNvNtNtNtCs14eHuuW48ek_10actual_cli3cli8commands4sync16compute_repo_keys0_0B9_
FNDA:1,_RNCNvNtNtNtCs14eHuuW48ek_10actual_cli3cli8commands4sync16compute_repo_keys_0B9_
FNDA:26,_RNCNvNtNtNtCs14eHuuW48ek_10actual_cli3cli8commands4sync17confirm_and_write0B9_
FNDA:19,_RNCNvNtNtNtCs14eHuuW48ek_10actual_cli3cli8commands4sync18raw_adrs_to_output0B9_
FNDA:3,_RNCNvNtNtNtCs14eHuuW48ek_10actual_cli3cli8commands4sync18raw_adrs_to_outputs_0B9_
FNDA:43,_RNvNtNtNtCs14eHuuW48ek_10actual_cli3cli8commands4sync11resolve_cwd
FNDA:43,_RNvNtNtNtCs14eHuuW48ek_10actual_cli3cli8commands4sync13handle_result
FNDA:31,_RNvNtNtNtCs14eHuuW48ek_10actual_cli3cli8commands4sync15filter_projects
FNDA:31,_RNvNtNtNtCs14eHuuW48ek_10actual_cli3cli8commands4sync16compute_repo_key
FNDA:26,_RNvNtNtNtCs14eHuuW48ek_10actual_cli3cli8commands4sync17confirm_and_write
FNDA:19,_RNvNtNtNtCs14eHuuW48ek_10actual_cli3cli8commands4sync18raw_adrs_to_output
FNDA:20,_RNvNtNtNtCs14eHuuW48ek_10actual_cli3cli8commands4sync20report_write_results
FNDA:28,_RNvNtNtNtCs14eHuuW48ek_10actual_cli3cli8commands4sync23find_existing_claude_md
FNDA:43,_RNvNtNtNtCs14eHuuW48ek_10actual_cli3cli8commands4sync4exec
FNDA:69,_RNvNvNtNtNtCs14eHuuW48ek_10actual_cli3cli8commands4sync23find_existing_claude_md4walk
FNDA:2,_RNvNtNtNtCs23MeGd5xNbL_10actual_cli3cli8commands4sync11resolve_cwd
FNDA:4,_RNvNtNtNtCs23MeGd5xNbL_10actual_cli3cli8commands4sync13handle_result
FNDA:21,_RNvNtNtNtCs23MeGd5xNbL_10actual_cli3cli8commands4sync15filter_projects
FNDA:20,_RNvNtNtNtCs23MeGd5xNbL_10actual_cli3cli8commands4sync16compute_repo_key
FNDA:23,_RNvNtNtNtCs23MeGd5xNbL_10actual_cli3cli8commands4sync17confirm_and_write
FNDA:13,_RNvNtNtNtCs23MeGd5xNbL_10actual_cli3cli8commands4sync18raw_adrs_to_output
FNDA:12,_RNvNtNtNtCs23MeGd5xNbL_10actual_cli3cli8commands4sync20report_write_results
FNDA:20,_RNvNtNtNtCs23MeGd5xNbL_10actual_cli3cli8commands4sync23find_existing_claude_md
FNDA:1,_RNvNtNtNtCs23MeGd5xNbL_10actual_cli3cli8commands4sync4exec
FNDA:23,_RNvNvNtNtNtCs23MeGd5xNbL_10actual_cli3cli8commands4sync23find_existing_claude_md4walk
FNDA:17,_RINvNtNtNtCs23MeGd5xNbL_10actual_cli3cli8commands4sync8run_syncNtNtB2_5tests10MockRunnerEB8_
FNDA:0,_RINvNtNtNtCs23MeGd5xNbL_10actual_cli3cli8commands4sync8run_syncNtNtNtB8_6claude10subprocess15CliClaudeRunnerEB8_
FNDA:14,_RNCINvNtNtNtCs23MeGd5xNbL_10actual_cli3cli8commands4sync8run_syncNtNtB4_5tests10MockRunnerE0Ba_
FNDA:2,_RNCINvNtNtNtCs23MeGd5xNbL_10actual_cli3cli8commands4sync8run_syncNtNtB4_5tests10MockRunnerEs_0Ba_
FNDA:0,_RNCINvNtNtNtCs23MeGd5xNbL_10actual_cli3cli8commands4sync8run_syncNtNtNtBa_6claude10subprocess15CliClaudeRunnerE0Ba_
FNDA:0,_RNCINvNtNtNtCs23MeGd5xNbL_10actual_cli3cli8commands4sync8run_syncNtNtNtBa_6claude10subprocess15CliClaudeRunnerEs_0Ba_
FNDA:16,_RNCNCINvNtNtNtCs23MeGd5xNbL_10actual_cli3cli8commands4sync8run_syncNtNtB6_5tests10MockRunnerE00Bc_
FNDA:0,_RNCNCINvNtNtNtCs23MeGd5xNbL_10actual_cli3cli8commands4sync8run_syncNtNtNtBc_6claude10subprocess15CliClaudeRunnerE00Bc_
FNDA:12,_RNCNvNtNtNtCs23MeGd5xNbL_10actual_cli3cli8commands4sync15filter_projects0B9_
FNDA:20,_RNCNvNtNtNtCs23MeGd5xNbL_10actual_cli3cli8commands4sync16compute_repo_key0B9_
FNDA:20,_RNCNvNtNtNtCs23MeGd5xNbL_10actual_cli3cli8commands4sync16compute_repo_keys0_0B9_
FNDA:0,_RNCNvNtNtNtCs23MeGd5xNbL_10actual_cli3cli8commands4sync16compute_repo_keys_0B9_
FNDA:19,_RNCNvNtNtNtCs23MeGd5xNbL_10actual_cli3cli8commands4sync17confirm_and_write0B9_
FNDA:10,_RNCNvNtNtNtCs23MeGd5xNbL_10actual_cli3cli8commands4sync18raw_adrs_to_output0B9_
FNDA:2,_RNCNvNtNtNtCs23MeGd5xNbL_10actual_cli3cli8commands4sync18raw_adrs_to_outputs_0B9_
FNDA:18,_RINvXs1_NtNtNtNtCs23MeGd5xNbL_10actual_cli3cli8commands4sync5testsNtB6_10MockRunnerNtNtNtBe_6claude10subprocess12ClaudeRunner3runNtNtNtBe_8analysis5types12RepoAnalysisEBe_
FNDA:2,_RINvXs1_NtNtNtNtCs23MeGd5xNbL_10actual_cli3cli8commands4sync5testsNtB6_10MockRunnerNtNtNtBe_6claude10subprocess12ClaudeRunner3runNtNtNtBe_9tailoring5types15TailoringOutputEBe_
FNDA:18,_RNCINvXs1_NtNtNtNtCs23MeGd5xNbL_10actual_cli3cli8commands4sync5testsNtB8_10MockRunnerNtNtNtBg_6claude10subprocess12ClaudeRunner3runNtNtNtBg_8analysis5types12RepoAnalysisE0Bg_
FNDA:2,_RNCINvXs1_NtNtNtNtCs23MeGd5xNbL_10actual_cli3cli8commands4sync5testsNtB8_10MockRunnerNtNtNtBg_6claude10subprocess12ClaudeRunner3runNtNtNtBg_9tailoring5types15TailoringOutputE0Bg_
FNDA:11,_RNCNvMNtNtNtNtCs23MeGd5xNbL_10actual_cli3cli8commands4sync5testsNtB4_12MockTerminal3new0Bc_
FNDA:17,_RNCNvNtNtNtNtCs23MeGd5xNbL_10actual_cli3cli8commands4sync5tests9make_file0Bb_
FNDA:3,_RNCNvNtNtNtNtCs23MeGd5xNbL_10actual_cli3cli8commands4sync5testss_41test_raw_adrs_to_output_multiple_projects0Bb_
FNDA:11,_RNvMNtNtNtNtCs23MeGd5xNbL_10actual_cli3cli8commands4sync5testsNtB2_12MockTerminal11output_text
FNDA:34,_RNvMNtNtNtNtCs23MeGd5xNbL_10actual_cli3cli8commands4sync5testsNtB2_12MockTerminal3new
FNDA:17,_RNvMs0_NtNtNtNtCs23MeGd5xNbL_10actual_cli3cli8commands4sync5testsNtB5_10MockRunner3new
FNDA:18,_RNvMs2_NtNtNtNtCs23MeGd5xNbL_10actual_cli3cli8commands4sync5testsNtB5_15MockInputReader3new
FNDA:15,_RNvMs2_NtNtNtNtCs23MeGd5xNbL_10actual_cli3cli8commands4sync5testsNtB5_15MockInputReader6accept
FNDA:2,_RNvMs2_NtNtNtNtCs23MeGd5xNbL_10actual_cli3cli8commands4sync5testsNtB5_15MockInputReader6reject
FNDA:11,_RNvNtNtNtNtCs23MeGd5xNbL_10actual_cli3cli8commands4sync5tests11make_output
FNDA:8,_RNvNtNtNtNtCs23MeGd5xNbL_10actual_cli3cli8commands4sync5tests13make_test_adr
FNDA:10,_RNvNtNtNtNtCs23MeGd5xNbL_10actual_cli3cli8commands4sync5tests14make_sync_args
FNDA:9,_RNvNtNtNtNtCs23MeGd5xNbL_10actual_cli3cli8commands4sync5tests15mock_api_server
FNDA:5,_RNvNtNtNtNtCs23MeGd5xNbL_10actual_cli3cli8commands4sync5tests22make_monorepo_analysis
FNDA:2,_RNvNtNtNtNtCs23MeGd5xNbL_10actual_cli3cli8commands4sync5tests25mock_api_server_with_adrs
FNDA:2,_RNvNtNtNtNtCs23MeGd5xNbL_10actual_cli3cli8commands4sync5tests28make_sync_args_with_projects
FNDA:17,_RNvNtNtNtNtCs23MeGd5xNbL_10actual_cli3cli8commands4sync5tests9make_file
FNDA:1,_RNvNtNtNtNtCs23MeGd5xNbL_10actual_cli3cli8commands4sync5testss_21test_handle_result_ok
FNDA:1,_RNvNtNtNtNtCs23MeGd5xNbL_10actual_cli3cli8commands4sync5testss_23test_sync_result_counts
FNDA:1,_RNvNtNtNtNtCs23MeGd5xNbL_10actual_cli3cli8commands4sync5testss_26test_exec_claude_not_found
FNDA:1,_RNvNtNtNtNtCs23MeGd5xNbL_10actual_cli3cli8commands4sync5testss_27test_confirm_and_write_quit
FNDA:1,_RNvNtNtNtNtCs23MeGd5xNbL_10actual_cli3cli8commands4sync5testss_28test_run_sync_analysis_error
FNDA:1,_RNvNtNtNtNtCs23MeGd5xNbL_10actual_cli3cli8commands4sync5testss_29test_raw_adrs_to_output_empty
FNDA:1,_RNvNtNtNtNtCs23MeGd5xNbL_10actual_cli3cli8commands4sync5testss_29test_resolve_cwd_returns_path
FNDA:1,_RNvNtNtNtNtCs23MeGd5xNbL_10actual_cli3cli8commands4sync5testss_30test_confirm_and_write_dry_run
FNDA:1,_RNvNtNtNtNtCs23MeGd5xNbL_10actual_cli3cli8commands4sync5testss_30test_run_sync_force_returns_ok
FNDA:1,_RNvNtNtNtNtCs23MeGd5xNbL_10actual_cli3cli8commands4sync5testss_30test_run_sync_reset_rejections
FNDA:1,_RNvNtNtNtNtCs23MeGd5xNbL_10actual_cli3cli8commands4sync5testss_31test_confirm_and_write_new_file
FNDA:1,_RNvNtNtNtNtCs23MeGd5xNbL_10actual_cli3cli8commands4sync5testss_31test_handle_result_config_error
FNDA:1,_RNvNtNtNtNtCs23MeGd5xNbL_10actual_cli3cli8commands4sync5testss_31test_report_write_results_mixed
FNDA:1,_RNvNtNtNtNtCs23MeGd5xNbL_10actual_cli3cli8commands4sync5testss_31test_sync_result_debug_clone_eq
FNDA:1,_RNvNtNtNtNtCs23MeGd5xNbL_10actual_cli3cli8commands4sync5testss_32test_filter_projects_matches_one
FNDA:1,_RNvNtNtNtNtCs23MeGd5xNbL_10actual_cli3cli8commands4sync5testss_32test_mock_input_reader_exhausted
FNDA:1,_RNvNtNtNtNtCs23MeGd5xNbL_10actual_cli3cli8commands4sync5testss_33test_compute_repo_key_non_git_dir
FNDA:1,_RNvNtNtNtNtCs23MeGd5xNbL_10actual_cli3cli8commands4sync5testss_33test_confirm_and_write_force_mode
FNDA:1,_RNvNtNtNtNtCs23MeGd5xNbL_10actual_cli3cli8commands4sync5testss_33test_handle_result_user_cancelled
FNDA:1,_RNvNtNtNtNtCs23MeGd5xNbL_10actual_cli3cli8commands4sync5testss_33test_report_write_results_created
FNDA:1,_RNvNtNtNtNtCs23MeGd5xNbL_10actual_cli3cli8commands4sync5testss_33test_report_write_results_updated
FNDA:1,_RNvNtNtNtNtCs23MeGd5xNbL_10actual_cli3cli8commands4sync5testss_34test_confirm_and_write_reject_file
FNDA:1,_RNvNtNtNtNtCs23MeGd5xNbL_10actual_cli3cli8commands4sync5testss_35test_confirm_and_write_all_rejected
FNDA:1,_RNvNtNtNtNtCs23MeGd5xNbL_10actual_cli3cli8commands4sync5testss_35test_confirm_and_write_dry_run_full
FNDA:1,_RNvNtNtNtNtCs23MeGd5xNbL_10actual_cli3cli8commands4sync5testss_35test_confirm_and_write_empty_output
FNDA:1,_RNvNtNtNtNtCs23MeGd5xNbL_10actual_cli3cli8commands4sync5testss_35test_run_sync_no_flags_prompts_user
FNDA:1,_RNvNtNtNtNtCs23MeGd5xNbL_10actual_cli3cli8commands4sync5testss_35test_run_sync_verbose_shows_details
FNDA:1,_RNvNtNtNtNtCs23MeGd5xNbL_10actual_cli3cli8commands4sync5testss_36test_run_sync_project_filter_matches
FNDA:1,_RNvNtNtNtNtCs23MeGd5xNbL_10actual_cli3cli8commands4sync5testss_37test_filter_projects_matches_multiple
FNDA:1,_RNvNtNtNtNtCs23MeGd5xNbL_10actual_cli3cli8commands4sync5testss_37test_run_sync_api_error_returns_error
FNDA:1,_RNvNtNtNtNtCs23MeGd5xNbL_10actual_cli3cli8commands4sync5testss_37test_run_sync_confirm_and_write_error
FNDA:1,_RNvNtNtNtNtCs23MeGd5xNbL_10actual_cli3cli8commands4sync5testss_37test_run_sync_dry_run_writes_no_files
FNDA:1,_RNvNtNtNtNtCs23MeGd5xNbL_10actual_cli3cli8commands4sync5testss_37test_run_sync_project_filter_no_match
FNDA:1,_RNvNtNtNtNtCs23MeGd5xNbL_10actual_cli3cli8commands4sync5testss_38test_confirm_and_write_update_existing
FNDA:1,_RNvNtNtNtNtCs23MeGd5xNbL_10actual_cli3cli8commands4sync5testss_38test_find_existing_claude_md_empty_dir
FNDA:1,_RNvNtNtNtNtCs23MeGd5xNbL_10actual_cli3cli8commands4sync5testss_38test_mock_terminal_read_line_exhausted
FNDA:1,_RNvNtNtNtNtCs23MeGd5xNbL_10actual_cli3cli8commands4sync5testss_38test_run_sync_force_dry_run_returns_ok
FNDA:1,_RNvNtNtNtNtCs23MeGd5xNbL_10actual_cli3cli8commands4sync5testss_38test_run_sync_force_skips_confirmation
FNDA:1,_RNvNtNtNtNtCs23MeGd5xNbL_10actual_cli3cli8commands4sync5testss_39test_find_existing_claude_md_finds_root
FNDA:1,_RNvNtNtNtNtCs23MeGd5xNbL_10actual_cli3cli8commands4sync5testss_40test_raw_adrs_to_output_adr_with_project
FNDA:1,_RNvNtNtNtNtCs23MeGd5xNbL_10actual_cli3cli8commands4sync5testss_40test_run_sync_no_tailor_force_returns_ok
FNDA:1,_RNvNtNtNtNtCs23MeGd5xNbL_10actual_cli3cli8commands4sync5testss_41test_find_existing_claude_md_finds_nested
FNDA:1,_RNvNtNtNtNtCs23MeGd5xNbL_10actual_cli3cli8commands4sync5testss_41test_raw_adrs_to_output_multiple_projects
FNDA:1,_RNvNtNtNtNtCs23MeGd5xNbL_10actual_cli3cli8commands4sync5testss_42test_filter_projects_preserves_is_monorepo
FNDA:1,_RNvNtNtNtNtCs23MeGd5xNbL_10actual_cli3cli8commands4sync5testss_43test_compute_repo_key_different_dirs_differ
FNDA:1,_RNvNtNtNtNtCs23MeGd5xNbL_10actual_cli3cli8commands4sync5testss_43test_filter_projects_no_match_returns_error
FNDA:1,_RNvNtNtNtNtCs23MeGd5xNbL_10actual_cli3cli8commands4sync5testss_43test_find_existing_claude_md_unreadable_dir
FNDA:1,_RNvNtNtNtNtCs23MeGd5xNbL_10actual_cli3cli8commands4sync5testss_43test_run_sync_tailoring_error_returns_error
FNDA:1,_RNvNtNtNtNtCs23MeGd5xNbL_10actual_cli3cli8commands4sync5testss_44test_confirm_and_write_write_error_continues
FNDA:1,_RNvNtNtNtNtCs23MeGd5xNbL_10actual_cli3cli8commands4sync5testss_44test_find_existing_claude_md_strips_metadata
FNDA:1,_RNvNtNtNtNtCs23MeGd5xNbL_10actual_cli3cli8commands4sync5testss_44test_raw_adrs_to_output_adr_with_dot_project
FNDA:1,_RNvNtNtNtNtCs23MeGd5xNbL_10actual_cli3cli8commands4sync5testss_44test_run_sync_user_rejects_returns_cancelled
FNDA:1,_RNvNtNtNtNtCs23MeGd5xNbL_10actual_cli3cli8commands4sync5testss_46test_filter_projects_empty_filters_returns_all
FNDA:1,_RNvNtNtNtNtCs23MeGd5xNbL_10actual_cli3cli8commands4sync5testss_46test_find_existing_claude_md_skips_hidden_dirs
FNDA:1,_RNvNtNtNtNtCs23MeGd5xNbL_10actual_cli3cli8commands4sync5testss_46test_raw_adrs_to_output_single_adr_no_projects
FNDA:1,_RNvNtNtNtNtCs23MeGd5xNbL_10actual_cli3cli8commands4sync5testss_47test_find_existing_claude_md_skips_node_modules
FNDA:1,_RNvNtNtNtNtCs23MeGd5xNbL_10actual_cli3cli8commands4sync5testss_47test_run_sync_no_tailor_with_adrs_creates_files
FNDA:1,_RNvNtNtNtNtCs23MeGd5xNbL_10actual_cli3cli8commands4sync5testss_48test_raw_adrs_to_output_adr_without_instructions
FNDA:1,_RNvNtNtNtNtCs23MeGd5xNbL_10actual_cli3cli8commands4sync5testss_51test_raw_adrs_to_output_adr_with_empty_instructions
FNDA:1,_RNvNtNtNtNtCs23MeGd5xNbL_10actual_cli3cli8commands4sync5testss_51test_report_write_results_failed_with_error_message
FNDA:1,_RNvNtNtNtNtCs23MeGd5xNbL_10actual_cli3cli8commands4sync5testss_54test_report_write_results_failed_without_error_message
FNDA:1,_RNvNtNtNtNtCs23MeGd5xNbL_10actual_cli3cli8commands4sync5testss_58test_run_sync_verbose_with_rejections_shows_filter_message
FNDA:6,_RNvXs3_NtNtNtNtCs23MeGd5xNbL_10actual_cli3cli8commands4sync5testsNtB5_15MockInputReaderNtNtNtBb_2ui7confirm11InputReader9read_line
FNDA:132,_RNvXs_NtNtNtNtCs23MeGd5xNbL_10actual_cli3cli8commands4sync5testsNtB4_12MockTerminalNtNtNtBa_2ui12file_confirm10TerminalIO10write_line
FNDA:12,_RNvXs_NtNtNtNtCs23MeGd5xNbL_10actual_cli3cli8commands4sync5testsNtB4_12MockTerminalNtNtNtBa_2ui12file_confirm10TerminalIO9read_line
FNF:105
FNH:105
DA:43,44
DA:44,44
DA:45,44
DA:47,47
DA:48,47
DA:49,27
DA:50,20
DA:51,20
DA:52,20
DA:55,47
DA:59,45
DA:60,45
DA:61,45
DA:62,45
DA:69,50
DA:70,50
DA:71,50
DA:72,50
DA:73,50
DA:74,50
DA:75,50
DA:76,50
DA:80,50
DA:83,50
DA:84,50
DA:85,50
DA:86,1
DA:87,49
DA:88,49
DA:89,49
DA:92,50
DA:93,50
DA:94,50
DA:95,50
DA:96,50
DA:97,50
DA:98,50
DA:99,3
DA:100,47
DA:103,47
DA:106,46
DA:107,42
DA:108,42
DA:109,42
DA:110,42
DA:112,4
DA:113,4
DA:114,1
DA:115,3
DA:121,45
DA:122,45
DA:124,45
DA:125,2
DA:126,2
DA:127,2
DA:128,2
DA:129,2
DA:131,43
DA:133,45
DA:136,45
DA:137,45
DA:138,45
DA:139,45
DA:140,45
DA:142,45
DA:143,45
DA:145,45
DA:146,3
DA:147,3
DA:148,3
DA:149,3
DA:150,3
DA:151,3
DA:152,3
DA:153,3
DA:154,3
DA:156,42
DA:158,45
DA:159,45
DA:160,51
DA:161,45
DA:163,45
DA:164,41
DA:165,41
DA:166,41
DA:168,4
DA:169,4
DA:170,4
DA:174,41
DA:175,3
DA:176,3
DA:177,3
DA:178,3
DA:179,38
DA:182,41
DA:184,41
DA:185,1
DA:186,1
DA:187,40
DA:190,41
DA:192,41
DA:193,25
DA:195,16
DA:196,16
DA:197,16
DA:198,16
DA:199,16
DA:200,16
DA:201,16
DA:202,16
DA:203,16
DA:204,16
DA:205,16
DA:206,16
DA:207,16
DA:209,16
DA:210,13
DA:211,13
DA:212,13
DA:213,13
DA:214,13
DA:215,13
DA:217,3
DA:218,3
DA:219,3
DA:225,38
DA:226,37
DA:227,50
DA:233,52
DA:234,52
DA:235,52
DA:236,52
DA:237,52
DA:238,44
DA:239,8
DA:241,8
DA:242,8
DA:243,8
DA:244,18
DA:245,8
DA:247,8
DA:248,2
DA:249,2
DA:250,2
DA:251,6
DA:253,6
DA:254,6
DA:255,6
DA:256,6
DA:257,52
DA:263,51
DA:264,51
DA:265,51
DA:266,51
DA:267,51
DA:268,51
DA:269,51
DA:270,51
DA:271,51
DA:273,51
DA:274,51
DA:275,51
DA:276,51
DA:283,32
DA:284,32
DA:286,65
DA:287,33
DA:288,5
DA:289,5
DA:290,5
DA:291,5
DA:292,5
DA:293,57
DA:294,29
DA:295,19
DA:297,10
DA:299,29
DA:304,32
DA:305,32
DA:306,32
DA:307,29
DA:308,29
DA:310,63
DA:311,34
DA:312,34
DA:313,71
DA:314,37
DA:315,37
DA:316,34
DA:317,32
DA:318,8
DA:319,16
DA:320,8
DA:321,8
DA:322,24
DA:323,2
DA:324,34
DA:327,29
DA:328,29
DA:329,29
DA:330,29
DA:331,29
DA:332,29
DA:333,29
DA:334,32
DA:337,32
DA:339,32
DA:340,32
DA:342,32
DA:343,32
DA:344,32
DA:345,32
DA:346,32
DA:347,32
DA:348,32
DA:349,32
DA:350,32
DA:351,32
DA:352,32
DA:356,48
DA:357,48
DA:359,92
DA:360,92
DA:361,91
DA:362,1
DA:364,293
DA:365,293
DA:366,293
DA:368,52
DA:369,52
DA:370,52
DA:371,46
DA:372,45
DA:373,44
DA:374,44
DA:376,8
DA:377,44
DA:378,44
DA:379,241
DA:380,8
DA:381,8
DA:382,8
DA:383,8
DA:384,8
DA:385,233
DA:387,92
DA:389,48
DA:390,48
DA:391,48
DA:392,48
DA:405,49
DA:406,49
DA:407,49
DA:408,49
DA:409,49
DA:410,49
DA:411,49
DA:412,49
DA:414,49
DA:415,49
DA:416,49
DA:417,49
DA:418,45
DA:419,45
DA:420,45
DA:421,45
DA:422,45
DA:423,45
DA:424,49
DA:427,49
DA:428,49
DA:429,35
DA:430,35
DA:431,35
DA:434,49
DA:435,7
DA:436,4
DA:437,2
DA:438,2
DA:439,2
DA:440,2
DA:441,5
DA:442,7
DA:443,7
DA:444,7
DA:445,7
DA:446,7
DA:447,7
DA:448,42
DA:451,42
DA:452,40
DA:454,40
DA:455,13
DA:456,13
DA:457,13
DA:458,13
DA:459,13
DA:460,13
DA:461,13
DA:462,27
DA:465,27
DA:468,27
DA:470,27
DA:471,27
DA:472,27
DA:473,27
DA:474,27
DA:475,27
DA:477,27
DA:478,27
DA:479,27
DA:480,27
DA:481,27
DA:482,27
DA:483,27
DA:485,27
DA:486,49
DA:491,32
DA:492,32
DA:493,32
DA:494,32
DA:496,73
DA:497,41
DA:498,28
DA:499,28
DA:500,28
DA:501,28
DA:502,28
DA:503,28
DA:504,28
DA:505,28
DA:506,28
DA:507,8
DA:508,8
DA:509,8
DA:510,8
DA:511,8
DA:512,8
DA:513,8
DA:514,8
DA:515,8
DA:516,5
DA:517,5
DA:518,5
DA:519,5
DA:520,5
DA:521,5
DA:522,5
DA:523,5
DA:524,5
DA:525,5
DA:529,32
DA:530,32
DA:550,34
DA:552,34
DA:553,34
DA:555,34
DA:557,11
DA:558,11
DA:559,11
DA:563,12
DA:564,12
DA:565,12
DA:566,1
DA:567,11
DA:568,11
DA:569,12
DA:571,132
DA:572,132
DA:573,132
DA:595,17
DA:596,17
DA:597,17
DA:598,17
DA:599,17
DA:603,20
DA:604,20
DA:605,20
DA:606,20
DA:607,20
DA:608,16
DA:609,20
DA:619,18
DA:620,18
DA:621,18
DA:622,18
DA:623,18
DA:624,18
DA:627,15
DA:628,15
DA:629,15
DA:632,2
DA:633,2
DA:634,2
DA:638,6
DA:639,6
DA:640,6
DA:641,5
DA:643,1
DA:644,1
DA:645,1
DA:646,1
DA:648,6
DA:651,11
DA:652,11
DA:653,11
DA:654,11
DA:655,11
DA:656,11
DA:657,11
DA:658,11
DA:659,11
DA:660,11
DA:661,11
DA:662,11
DA:663,11
DA:665,17
DA:667,17
DA:668,17
DA:669,17
DA:670,17
DA:672,17
DA:674,5
DA:675,5
DA:676,5
DA:677,5
DA:678,5
DA:679,5
DA:680,5
DA:681,5
DA:682,5
DA:683,5
DA:684,5
DA:685,5
DA:686,5
DA:687,5
DA:688,5
DA:689,5
DA:690,5
DA:691,5
DA:692,5
DA:693,5
DA:694,5
DA:695,5
DA:696,5
DA:697,5
DA:698,5
DA:699,5
DA:724,1
DA:725,1
DA:726,1
DA:727,1
DA:728,1
DA:730,1
DA:732,1
DA:734,1
DA:735,1
DA:736,1
DA:737,1
DA:740,1
DA:741,1
DA:744,1
DA:745,1
DA:746,1
DA:747,1
DA:752,1
DA:753,1
DA:754,1
DA:755,1
DA:757,1
DA:760,1
DA:761,1
DA:762,1
DA:763,1
DA:766,1
DA:769,1
DA:770,1
DA:771,1
DA:772,0
DA:774,1
DA:779,1
DA:780,1
DA:781,1
DA:782,1
DA:783,1
DA:784,1
DA:786,1
DA:788,1
DA:790,1
DA:793,1
DA:794,1
DA:795,1
DA:796,0
DA:798,1
DA:799,1
DA:800,0
DA:802,1
DA:805,1
DA:806,1
DA:811,1
DA:812,1
DA:813,1
DA:814,1
DA:815,1
DA:818,1
DA:820,1
DA:822,1
DA:823,1
DA:826,1
DA:827,1
DA:828,1
DA:833,1
DA:834,1
DA:835,1
DA:836,1
DA:838,1
DA:840,1
DA:841,1
DA:842,0
DA:846,1
DA:847,1
DA:852,1
DA:853,1
DA:856,1
DA:858,1
DA:859,1
DA:860,1
DA:862,1
DA:864,1
DA:867,1
DA:868,1
DA:869,1
DA:872,1
DA:875,1
DA:876,1
DA:877,1
DA:878,0
DA:880,1
DA:885,1
DA:886,1
DA:887,1
DA:888,1
DA:889,1
DA:890,1
DA:892,1
DA:894,1
DA:896,1
DA:897,1
DA:899,1
DA:900,1
DA:901,1
DA:904,1
DA:905,1
DA:906,1
DA:907,0
DA:909,1
DA:914,1
DA:915,1
DA:918,1
DA:919,1
DA:920,1
DA:922,1
DA:924,1
DA:925,1
DA:926,1
DA:927,1
DA:929,1
DA:931,1
DA:933,1
DA:934,1
DA:936,1
DA:937,1
DA:938,1
DA:940,1
DA:941,1
DA:946,1
DA:947,1
DA:948,1
DA:949,1
DA:951,1
DA:953,1
DA:954,1
DA:955,1
DA:956,1
DA:957,1
DA:962,1
DA:963,1
DA:964,1
DA:965,1
DA:966,1
DA:969,1
DA:971,1
DA:973,1
DA:974,1
DA:975,1
DA:976,1
DA:979,1
DA:980,1
DA:982,1
DA:983,1
DA:984,1
DA:985,0
DA:987,1
DA:992,1
DA:993,1
DA:996,1
DA:997,1
DA:1000,1
DA:1002,1
DA:1003,1
DA:1004,1
DA:1005,1
DA:1006,1
DA:1010,1
DA:1012,1
DA:1014,1
DA:1015,1
DA:1016,1
DA:1017,1
DA:1020,1
DA:1021,1
DA:1022,1
DA:1023,0
DA:1025,1
DA:1030,1
DA:1031,1
DA:1032,1
DA:1033,1
DA:1044,9
DA:1045,9
DA:1046,9
DA:1047,9
DA:1048,9
DA:1049,9
DA:1050,9
DA:1051,9
DA:1052,9
DA:1053,9
DA:1055,10
DA:1056,10
DA:1057,10
DA:1058,10
DA:1059,10
DA:1060,10
DA:1061,10
DA:1062,10
DA:1063,10
DA:1064,10
DA:1065,10
DA:1066,10
DA:1067,10
DA:1068,10
DA:1069,10
DA:1070,10
DA:1071,10
DA:1072,10
DA:1073,10
DA:1074,10
DA:1076,2
DA:1077,2
DA:1078,2
DA:1079,2
DA:1080,2
DA:1081,2
DA:1082,2
DA:1083,2
DA:1084,2
DA:1085,2
DA:1086,2
DA:1087,2
DA:1088,2
DA:1089,2
DA:1092,1
DA:1093,1
DA:1094,1
DA:1095,1
DA:1096,1
DA:1097,1
DA:1098,1
DA:1099,1
DA:1100,1
DA:1101,1
DA:1102,1
DA:1103,1
DA:1104,1
DA:1105,1
DA:1107,1
DA:1109,1
DA:1110,1
DA:1111,1
DA:1112,0
DA:1114,1
DA:1117,1
DA:1118,1
DA:1119,1
DA:1120,1
DA:1121,1
DA:1122,1
DA:1123,1
DA:1124,1
DA:1125,1
DA:1126,1
DA:1127,1
DA:1128,1
DA:1129,1
DA:1130,1
DA:1132,1
DA:1133,1
DA:1134,0
DA:1136,1
DA:1139,1
DA:1140,1
DA:1141,1
DA:1142,1
DA:1143,1
DA:1144,1
DA:1145,1
DA:1147,1
DA:1148,1
DA:1149,1
DA:1150,1
DA:1151,1
DA:1152,1
DA:1153,1
DA:1155,1
DA:1156,1
DA:1157,0
DA:1159,1
DA:1162,1
DA:1163,1
DA:1164,1
DA:1165,1
DA:1166,1
DA:1168,1
DA:1169,1
DA:1170,1
DA:1171,1
DA:1172,1
DA:1173,1
DA:1174,1
DA:1175,1
DA:1176,1
DA:1178,1
DA:1179,1
DA:1180,0
DA:1182,1
DA:1185,1
DA:1186,1
DA:1187,1
DA:1188,1
DA:1190,1
DA:1191,1
DA:1192,1
DA:1193,1
DA:1194,1
DA:1195,1
DA:1196,1
DA:1197,1
DA:1198,1
DA:1200,1
DA:1201,1
DA:1202,0
DA:1204,1
DA:1207,1
DA:1208,1
DA:1209,1
DA:1210,1
DA:1211,1
DA:1213,1
DA:1214,1
DA:1215,1
DA:1216,1
DA:1217,1
DA:1218,1
DA:1219,1
DA:1220,1
DA:1221,1
DA:1223,1
DA:1224,1
DA:1225,0
DA:1227,1
DA:1230,1
DA:1231,1
DA:1232,1
DA:1233,1
DA:1234,1
DA:1235,1
DA:1236,1
DA:1237,1
DA:1238,1
DA:1239,1
DA:1240,1
DA:1241,1
DA:1242,1
DA:1243,1
DA:1245,1
DA:1247,1
DA:1248,1
DA:1249,0
DA:1251,1
DA:1256,1
DA:1257,1
DA:1258,1
DA:1259,1
DA:1260,1
DA:1261,1
DA:1262,1
DA:1263,1
DA:1264,1
DA:1265,1
DA:1266,1
DA:1267,1
DA:1268,1
DA:1269,1
DA:1271,1
DA:1272,1
DA:1273,0
DA:1275,1
DA:1278,1
DA:1279,1
DA:1280,1
DA:1281,1
DA:1282,1
DA:1284,1
DA:1285,1
DA:1286,1
DA:1287,1
DA:1288,1
DA:1289,1
DA:1290,1
DA:1291,1
DA:1293,1
DA:1294,1
DA:1295,0
DA:1297,1
DA:1302,1
DA:1303,1
DA:1304,1
DA:1305,1
DA:1306,1
DA:1309,1
DA:1310,1
DA:1311,1
DA:1312,1
DA:1313,1
DA:1314,1
DA:1315,1
DA:1318,1
DA:1319,1
DA:1320,1
DA:1321,1
DA:1322,1
DA:1323,1
DA:1326,1
DA:1327,1
DA:1328,1
DA:1329,1
DA:1330,1
DA:1331,1
DA:1334,1
DA:1335,1
DA:1336,1
DA:1337,1
DA:1338,1
DA:1339,1
DA:1344,1
DA:1347,1
DA:1348,1
DA:1349,1
DA:1350,1
DA:1351,1
DA:1352,1
DA:1353,1
DA:1356,1
DA:1357,1
DA:1358,1
DA:1361,1
DA:1362,1
DA:1363,1
DA:1364,1
DA:1367,1
DA:1368,1
DA:1369,1
DA:1370,1
DA:1373,1
DA:1374,1
DA:1375,1
DA:1376,1
DA:1377,1
DA:1378,1
DA:1379,1
DA:1380,1
DA:1381,1
DA:1382,1
DA:1383,1
DA:1384,1
DA:1389,1
DA:1390,1
DA:1392,1
DA:1394,1
DA:1395,1
DA:1396,1
DA:1397,0
DA:1399,1
DA:1404,1
DA:1405,1
DA:1407,1
DA:1409,1
DA:1410,1
DA:1411,1
DA:1416,1
DA:1417,1
DA:1418,1
DA:1420,1
DA:1421,1
DA:1422,1
DA:1423,1
DA:1424,1
DA:1425,1
DA:1426,1
DA:1427,1
DA:1428,1
DA:1429,1
DA:1431,1
DA:1432,1
DA:1433,0
DA:1435,1
DA:1440,1
DA:1442,1
DA:1443,1
DA:1444,1
DA:1445,1
DA:1446,1
DA:1447,1
DA:1462,1
DA:1464,1
DA:1466,1
DA:1467,1
DA:1468,1
DA:1470,1
DA:1471,1
DA:1472,1
DA:1473,1
DA:1474,1
DA:1475,1
DA:1476,1
DA:1477,1
DA:1478,1
DA:1479,1
DA:1480,1
DA:1481,1
DA:1482,1
DA:1483,1
DA:1484,1
DA:1485,1
DA:1486,1
DA:1487,1
DA:1488,1
DA:1491,1
DA:1492,1
DA:1493,0
DA:1495,1
DA:1500,1
DA:1501,1
DA:1502,1
DA:1503,1
DA:1504,1
DA:1505,1
DA:1506,1
DA:1507,1
DA:1509,1
DA:1511,1
DA:1512,1
DA:1513,1
DA:1515,1
DA:1516,1
DA:1517,1
DA:1518,0
DA:1520,1
DA:1523,1
DA:1524,1
DA:1525,1
DA:1526,1
DA:1527,1
DA:1528,1
DA:1529,1
DA:1530,1
DA:1532,1
DA:1534,1
DA:1535,1
DA:1536,1
DA:1538,1
DA:1539,1
DA:1540,1
DA:1541,0
DA:1543,1
DA:1546,1
DA:1547,1
DA:1548,1
DA:1549,1
DA:1550,1
DA:1551,1
DA:1552,1
DA:1553,1
DA:1555,1
DA:1557,1
DA:1558,1
DA:1559,1
DA:1561,1
DA:1562,1
DA:1563,1
DA:1564,0
DA:1566,1
DA:1569,1
DA:1570,1
DA:1571,1
DA:1572,1
DA:1573,1
DA:1574,1
DA:1575,1
DA:1576,1
DA:1578,1
DA:1580,1
DA:1581,1
DA:1582,1
DA:1584,1
DA:1585,1
DA:1586,1
DA:1587,0
DA:1589,1
DA:1592,1
DA:1593,1
DA:1594,1
DA:1595,1
DA:1596,1
DA:1597,1
DA:1598,1
DA:1599,1
DA:1600,1
DA:1601,1
DA:1602,1
DA:1603,1
DA:1604,1
DA:1605,1
DA:1606,1
DA:1607,1
DA:1608,1
DA:1609,1
DA:1610,1
DA:1611,1
DA:1612,1
DA:1615,1
DA:1617,1
DA:1618,1
DA:1619,1
DA:1620,1
DA:1625,1
DA:1626,1
DA:1627,1
DA:1629,1
DA:1631,1
DA:1632,1
DA:1633,1
DA:1636,1
DA:1637,1
DA:1638,1
DA:1639,1
DA:1640,1
DA:1641,1
DA:1642,1
DA:1646,8
DA:1647,8
DA:1648,8
DA:1649,8
DA:1650,8
DA:1651,8
DA:1652,8
DA:1653,8
DA:1654,8
DA:1655,8
DA:1656,8
DA:1657,8
DA:1658,8
DA:1659,8
DA:1660,8
DA:1661,8
DA:1662,8
DA:1663,8
DA:1664,8
DA:1667,1
DA:1668,1
DA:1669,1
DA:1670,1
DA:1671,1
DA:1672,1
DA:1673,1
DA:1676,1
DA:1677,1
DA:1678,1
DA:1679,1
DA:1680,1
DA:1681,1
DA:1682,1
DA:1683,1
DA:1684,1
DA:1685,1
DA:1686,1
DA:1687,1
DA:1690,1
DA:1691,1
DA:1692,1
DA:1693,1
DA:1694,1
DA:1695,1
DA:1698,1
DA:1699,1
DA:1700,1
DA:1701,1
DA:1702,1
DA:1703,1
DA:1706,1
DA:1707,1
DA:1708,1
DA:1709,1
DA:1710,1
DA:1712,1
DA:1713,1
DA:1714,3
DA:1715,1
DA:1716,1
DA:1717,1
DA:1718,1
DA:1719,1
DA:1720,1
DA:1723,1
DA:1724,1
DA:1725,1
DA:1726,1
DA:1727,1
DA:1728,1
DA:1730,1
DA:1731,1
DA:1732,1
DA:1733,0
DA:1735,1
DA:1738,1
DA:1739,1
DA:1740,1
DA:1741,1
DA:1742,1
DA:1743,1
DA:1745,1
DA:1746,1
DA:1747,1
DA:1748,0
DA:1750,1
DA:1755,1
DA:1756,1
DA:1757,1
DA:1758,1
DA:1759,1
DA:1762,1
DA:1763,1
DA:1764,1
DA:1765,1
DA:1766,1
DA:1767,1
DA:1768,1
DA:1771,1
DA:1772,1
DA:1773,1
DA:1774,1
DA:1775,1
DA:1778,1
DA:1779,1
DA:1780,1
DA:1781,1
DA:1784,1
DA:1785,1
DA:1786,1
DA:1787,1
DA:1788,1
DA:1789,1
DA:1790,1
DA:1793,1
DA:1794,1
DA:1795,1
DA:1796,1
DA:1797,1
DA:1800,1
DA:1801,1
DA:1802,1
DA:1803,1
DA:1806,1
DA:1807,1
DA:1808,1
DA:1809,1
DA:1810,1
DA:1811,1
DA:1812,1
DA:1813,0
DA:1815,1
DA:1816,1
DA:1817,0
DA:1819,1
DA:1820,1
DA:1821,0
DA:1823,1
DA:1824,1
DA:1825,0
DA:1827,1
DA:1828,1
DA:1829,0
DA:1831,1
DA:1832,1
DA:1833,0
DA:1835,1
DA:1838,1
DA:1840,1
DA:1841,1
DA:1842,1
DA:1843,1
DA:1845,1
DA:1846,1
DA:1848,1
DA:1849,1
DA:1854,1
DA:1855,1
DA:1856,1
DA:1857,1
DA:1858,1
DA:1859,1
DA:1860,1
DA:1862,1
DA:1863,1
DA:1864,1
DA:1865,1
DA:1866,1
DA:1867,1
DA:1868,1
DA:1869,1
DA:1870,1
DA:1871,1
DA:1872,1
DA:1873,1
DA:1875,1
DA:1876,1
DA:1877,0
DA:1879,1
DA:1882,1
DA:1883,1
DA:1884,1
DA:1885,1
DA:1886,1
DA:1887,1
DA:1888,1
DA:1903,1
DA:1905,1
DA:1906,1
DA:1907,1
DA:1908,1
DA:1909,1
DA:1910,1
DA:1911,1
DA:1912,1
DA:1913,1
DA:1914,1
DA:1915,1
DA:1916,1
DA:1917,1
DA:1918,1
DA:1919,1
DA:1920,1
DA:1921,1
DA:1922,1
DA:1923,1
DA:1924,1
DA:1925,1
DA:1926,1
DA:1927,1
DA:1929,1
DA:1932,1
DA:1933,1
DA:1934,1
DA:1935,1
DA:1936,0
DA:1938,1
DA:1939,1
DA:1940,0
DA:1942,1
DA:1945,1
DA:1946,1
DA:1947,1
DA:1948,1
DA:1949,1
DA:1950,1
DA:1951,1
DA:1952,1
DA:1953,1
DA:1954,1
DA:1955,1
DA:1956,1
DA:1957,1
DA:1958,1
DA:1959,1
DA:1960,1
DA:1961,1
DA:1962,1
DA:1964,1
DA:1965,1
DA:1966,1
DA:1967,1
DA:1968,1
DA:1969,1
DA:1970,1
DA:1972,1
DA:1973,1
DA:1976,1
DA:1977,1
DA:1978,1
DA:1981,1
DA:1982,1
DA:1983,1
DA:1984,1
DA:1987,1
DA:1988,1
DA:1990,1
DA:1991,1
DA:1992,1
DA:1993,1
DA:1994,1
DA:1995,1
DA:1996,1
DA:1997,1
DA:1998,1
DA:1999,1
DA:2000,1
DA:2001,1
DA:2002,1
DA:2003,1
DA:2004,1
DA:2005,1
DA:2006,1
DA:2007,1
DA:2010,1
DA:2011,1
DA:2012,1
DA:2013,0
DA:2015,1
DA:2031,2
DA:2032,2
DA:2033,2
DA:2034,2
DA:2035,2
DA:2036,2
DA:2037,2
DA:2038,2
DA:2039,2
DA:2040,2
DA:2043,1
DA:2044,1
DA:2045,1
DA:2048,1
DA:2049,1
DA:2050,1
DA:2051,1
DA:2053,1
DA:2054,1
DA:2055,1
DA:2056,1
DA:2057,1
DA:2058,1
DA:2059,1
DA:2060,1
DA:2061,1
DA:2062,1
DA:2063,1
DA:2064,1
DA:2065,1
DA:2066,1
DA:2067,1
DA:2068,1
DA:2069,1
DA:2071,1
DA:2072,1
DA:2075,1
DA:2076,1
DA:2077,1
DA:2078,1
DA:2081,1
DA:2082,1
DA:2083,1
DA:2084,1
DA:2085,1
DA:2086,1
DA:2087,1
DA:2088,1
DA:2089,1
DA:2090,1
DA:2091,1
DA:2092,1
DA:2093,1
DA:2094,1
DA:2095,1
DA:2096,1
DA:2097,1
DA:2098,1
DA:2099,1
DA:2100,1
DA:2101,1
DA:2103,1
DA:2104,1
BRF:0
BRH:0
LF:1426
LH:1389
end_of_record
SF:/Users/poile/repos/actualai/actual-cli/.worktrees/2u6.4/src/cli/ui/confirm.rs
FN:13,_RNvNtNtNtCs14eHuuW48ek_10actual_cli3cli2ui7confirm11prompt_text
FN:74,_RNvNtNtNtCs14eHuuW48ek_10actual_cli3cli2ui7confirm18invalid_input_hint
FN:86,_RNvNtNtNtCs14eHuuW48ek_10actual_cli3cli2ui7confirm19parse_confirm_input
FN:26,_RNvNtNtNtCs14eHuuW48ek_10actual_cli3cli2ui7confirm22format_project_summary
FN:98,_RNvNtNtNtCs14eHuuW48ek_10actual_cli3cli2ui7confirm27prompt_project_confirmation
FN:51,_RNCNvNtNtNtCs14eHuuW48ek_10actual_cli3cli2ui7confirm22format_project_summary0B9_
FN:58,_RNCNvNtNtNtCs14eHuuW48ek_10actual_cli3cli2ui7confirm22format_project_summarys_0B9_
FN:51,_RNCNvNtNtNtCs23MeGd5xNbL_10actual_cli3cli2ui7confirm22format_project_summary0B9_
FN:58,_RNCNvNtNtNtCs23MeGd5xNbL_10actual_cli3cli2ui7confirm22format_project_summarys_0B9_
FN:13,_RNvNtNtNtCs23MeGd5xNbL_10actual_cli3cli2ui7confirm11prompt_text
FN:74,_RNvNtNtNtCs23MeGd5xNbL_10actual_cli3cli2ui7confirm18invalid_input_hint
FN:86,_RNvNtNtNtCs23MeGd5xNbL_10actual_cli3cli2ui7confirm19parse_confirm_input
FN:26,_RNvNtNtNtCs23MeGd5xNbL_10actual_cli3cli2ui7confirm22format_project_summary
FN:98,_RNvNtNtNtCs23MeGd5xNbL_10actual_cli3cli2ui7confirm27prompt_project_confirmation
FN:139,_RNvMNtNtNtNtCs23MeGd5xNbL_10actual_cli3cli2ui7confirm5testsNtB2_10MockReader3new
FN:159,_RNvMs0_NtNtNtNtCs23MeGd5xNbL_10actual_cli3cli2ui7confirm5testsNtB5_14SequenceReader3new
FN:243,_RNvNtNtNtNtCs23MeGd5xNbL_10actual_cli3cli2ui7confirm5tests19make_empty_analysis
FN:190,_RNvNtNtNtNtCs23MeGd5xNbL_10actual_cli3cli2ui7confirm5tests22make_monorepo_analysis
FN:226,_RNvNtNtNtNtCs23MeGd5xNbL_10actual_cli3cli2ui7confirm5tests28make_single_project_analysis
FN:425,_RNvNtNtNtNtCs23MeGd5xNbL_10actual_cli3cli2ui7confirm5testss_15parse_quit_full
FN:420,_RNvNtNtNtNtCs23MeGd5xNbL_10actual_cli3cli2ui7confirm5testss_16parse_quit_short
FN:498,_RNvNtNtNtNtCs23MeGd5xNbL_10actual_cli3cli2ui7confirm5testss_16prompt_quit_full
FN:400,_RNvNtNtNtNtCs23MeGd5xNbL_10actual_cli3cli2ui7confirm5testss_17parse_accept_full
FN:415,_RNvNtNtNtNtCs23MeGd5xNbL_10actual_cli3cli2ui7confirm5testss_17parse_reject_full
FN:489,_RNvNtNtNtNtCs23MeGd5xNbL_10actual_cli3cli2ui7confirm5testss_17prompt_quit_short
FN:395,_RNvNtNtNtNtCs23MeGd5xNbL_10actual_cli3cli2ui7confirm5testss_18parse_accept_short
FN:410,_RNvNtNtNtNtCs23MeGd5xNbL_10actual_cli3cli2ui7confirm5testss_18parse_reject_short
FN:453,_RNvNtNtNtNtCs23MeGd5xNbL_10actual_cli3cli2ui7confirm5testss_18prompt_accept_full
FN:480,_RNvNtNtNtNtCs23MeGd5xNbL_10actual_cli3cli2ui7confirm5testss_18prompt_reject_full
FN:444,_RNvNtNtNtNtCs23MeGd5xNbL_10actual_cli3cli2ui7confirm5testss_19prompt_accept_short
FN:471,_RNvNtNtNtNtCs23MeGd5xNbL_10actual_cli3cli2ui7confirm5testss_19prompt_reject_short
FN:253,_RNvNtNtNtNtCs23MeGd5xNbL_10actual_cli3cli2ui7confirm5testss_23format_summary_monorepo
FN:430,_RNvNtNtNtNtCs23MeGd5xNbL_10actual_cli3cli2ui7confirm5testss_24parse_whitespace_trimmed
FN:548,_RNvNtNtNtNtCs23MeGd5xNbL_10actual_cli3cli2ui7confirm5testss_25prompt_whitespace_trimmed
FN:435,_RNvNtNtNtNtCs23MeGd5xNbL_10actual_cli3cli2ui7confirm5testss_26parse_invalid_returns_none
FN:507,_RNvNtNtNtNtCs23MeGd5xNbL_10actual_cli3cli2ui7confirm5testss_26prompt_invalid_then_accept
FN:530,_RNvNtNtNtNtCs23MeGd5xNbL_10actual_cli3cli2ui7confirm5testss_26prompt_invalid_then_reject
FN:323,_RNvNtNtNtNtCs23MeGd5xNbL_10actual_cli3cli2ui7confirm5testss_29format_summary_empty_projects
FN:303,_RNvNtNtNtNtCs23MeGd5xNbL_10actual_cli3cli2ui7confirm5testss_29format_summary_single_project
FN:405,_RNvNtNtNtNtCs23MeGd5xNbL_10actual_cli3cli2ui7confirm5testss_29parse_accept_case_insensitive
FN:462,_RNvNtNtNtNtCs23MeGd5xNbL_10actual_cli3cli2ui7confirm5testss_30prompt_accept_case_insensitive
FN:539,_RNvNtNtNtNtCs23MeGd5xNbL_10actual_cli3cli2ui7confirm5testss_30prompt_io_error_returns_reject
FN:567,_RNvNtNtNtNtCs23MeGd5xNbL_10actual_cli3cli2ui7confirm5testss_31prompt_writes_summary_to_output
FN:387,_RNvNtNtNtNtCs23MeGd5xNbL_10actual_cli3cli2ui7confirm5testss_35invalid_input_hint_contains_options
FN:374,_RNvNtNtNtNtCs23MeGd5xNbL_10actual_cli3cli2ui7confirm5testss_38prompt_text_contains_accept_and_reject
FN:557,_RNvNtNtNtNtCs23MeGd5xNbL_10actual_cli3cli2ui7confirm5testss_40prompt_sequence_exhausted_returns_reject
FN:339,_RNvNtNtNtNtCs23MeGd5xNbL_10actual_cli3cli2ui7confirm5testss_46format_summary_project_without_optional_fields
FN:168,_RNvXs1_NtNtNtNtCs23MeGd5xNbL_10actual_cli3cli2ui7confirm5testsNtB5_14SequenceReaderNtB7_11InputReader9read_line
FN:185,_RNvXs2_NtNtNtNtCs23MeGd5xNbL_10actual_cli3cli2ui7confirm5testsNtB5_11ErrorReaderNtB7_11InputReader9read_line
FN:147,_RNvXs_NtNtNtNtCs23MeGd5xNbL_10actual_cli3cli2ui7confirm5testsNtB4_10MockReaderNtB6_11InputReader9read_line
FNDA:0,_RNvNtNtNtCs14eHuuW48ek_10actual_cli3cli2ui7confirm11prompt_text
FNDA:0,_RNvNtNtNtCs14eHuuW48ek_10actual_cli3cli2ui7confirm18invalid_input_hint
FNDA:0,_RNvNtNtNtCs14eHuuW48ek_10actual_cli3cli2ui7confirm19parse_confirm_input
FNDA:31,_RNvNtNtNtCs14eHuuW48ek_10actual_cli3cli2ui7confirm22format_project_summary
FNDA:0,_RNvNtNtNtCs14eHuuW48ek_10actual_cli3cli2ui7confirm27prompt_project_confirmation
FNDA:37,_RNCNvNtNtNtCs14eHuuW48ek_10actual_cli3cli2ui7confirm22format_project_summary0B9_
FNDA:5,_RNCNvNtNtNtCs14eHuuW48ek_10actual_cli3cli2ui7confirm22format_project_summarys_0B9_
FNDA:32,_RNCNvNtNtNtCs23MeGd5xNbL_10actual_cli3cli2ui7confirm22format_project_summary0B9_
FNDA:32,_RNCNvNtNtNtCs23MeGd5xNbL_10actual_cli3cli2ui7confirm22format_project_summarys_0B9_
FNDA:23,_RNvNtNtNtCs23MeGd5xNbL_10actual_cli3cli2ui7confirm11prompt_text
FNDA:6,_RNvNtNtNtCs23MeGd5xNbL_10actual_cli3cli2ui7confirm18invalid_input_hint
FNDA:31,_RNvNtNtNtCs23MeGd5xNbL_10actual_cli3cli2ui7confirm19parse_confirm_input
FNDA:32,_RNvNtNtNtCs23MeGd5xNbL_10actual_cli3cli2ui7confirm22format_project_summary
FNDA:17,_RNvNtNtNtCs23MeGd5xNbL_10actual_cli3cli2ui7confirm27prompt_project_confirmation
FNDA:9,_RNvMNtNtNtNtCs23MeGd5xNbL_10actual_cli3cli2ui7confirm5testsNtB2_10MockReader3new
FNDA:3,_RNvMs0_NtNtNtNtCs23MeGd5xNbL_10actual_cli3cli2ui7confirm5testsNtB5_14SequenceReader3new
FNDA:1,_RNvNtNtNtNtCs23MeGd5xNbL_10actual_cli3cli2ui7confirm5tests19make_empty_analysis
FNDA:1,_RNvNtNtNtNtCs23MeGd5xNbL_10actual_cli3cli2ui7confirm5tests22make_monorepo_analysis
FNDA:14,_RNvNtNtNtNtCs23MeGd5xNbL_10actual_cli3cli2ui7confirm5tests28make_single_project_analysis
FNDA:1,_RNvNtNtNtNtCs23MeGd5xNbL_10actual_cli3cli2ui7confirm5testss_15parse_quit_full
FNDA:1,_RNvNtNtNtNtCs23MeGd5xNbL_10actual_cli3cli2ui7confirm5testss_16parse_quit_short
FNDA:1,_RNvNtNtNtNtCs23MeGd5xNbL_10actual_cli3cli2ui7confirm5testss_16prompt_quit_full
FNDA:1,_RNvNtNtNtNtCs23MeGd5xNbL_10actual_cli3cli2ui7confirm5testss_17parse_accept_full
FNDA:1,_RNvNtNtNtNtCs23MeGd5xNbL_10actual_cli3cli2ui7confirm5testss_17parse_reject_full
FNDA:1,_RNvNtNtNtNtCs23MeGd5xNbL_10actual_cli3cli2ui7confirm5testss_17prompt_quit_short
FNDA:1,_RNvNtNtNtNtCs23MeGd5xNbL_10actual_cli3cli2ui7confirm5testss_18parse_accept_short
FNDA:1,_RNvNtNtNtNtCs23MeGd5xNbL_10actual_cli3cli2ui7confirm5testss_18parse_reject_short
FNDA:1,_RNvNtNtNtNtCs23MeGd5xNbL_10actual_cli3cli2ui7confirm5testss_18prompt_accept_full
FNDA:1,_RNvNtNtNtNtCs23MeGd5xNbL_10actual_cli3cli2ui7confirm5testss_18prompt_reject_full
FNDA:1,_RNvNtNtNtNtCs23MeGd5xNbL_10actual_cli3cli2ui7confirm5testss_19prompt_accept_short
FNDA:1,_RNvNtNtNtNtCs23MeGd5xNbL_10actual_cli3cli2ui7confirm5testss_19prompt_reject_short
FNDA:1,_RNvNtNtNtNtCs23MeGd5xNbL_10actual_cli3cli2ui7confirm5testss_23format_summary_monorepo
FNDA:1,_RNvNtNtNtNtCs23MeGd5xNbL_10actual_cli3cli2ui7confirm5testss_24parse_whitespace_trimmed
FNDA:1,_RNvNtNtNtNtCs23MeGd5xNbL_10actual_cli3cli2ui7confirm5testss_25prompt_whitespace_trimmed
FNDA:1,_RNvNtNtNtNtCs23MeGd5xNbL_10actual_cli3cli2ui7confirm5testss_26parse_invalid_returns_none
FNDA:1,_RNvNtNtNtNtCs23MeGd5xNbL_10actual_cli3cli2ui7confirm5testss_26prompt_invalid_then_accept
FNDA:1,_RNvNtNtNtNtCs23MeGd5xNbL_10actual_cli3cli2ui7confirm5testss_26prompt_invalid_then_reject
FNDA:1,_RNvNtNtNtNtCs23MeGd5xNbL_10actual_cli3cli2ui7confirm5testss_29format_summary_empty_projects
FNDA:1,_RNvNtNtNtNtCs23MeGd5xNbL_10actual_cli3cli2ui7confirm5testss_29format_summary_single_project
FNDA:1,_RNvNtNtNtNtCs23MeGd5xNbL_10actual_cli3cli2ui7confirm5testss_29parse_accept_case_insensitive
FNDA:1,_RNvNtNtNtNtCs23MeGd5xNbL_10actual_cli3cli2ui7confirm5testss_30prompt_accept_case_insensitive
FNDA:1,_RNvNtNtNtNtCs23MeGd5xNbL_10actual_cli3cli2ui7confirm5testss_30prompt_io_error_returns_reject
FNDA:1,_RNvNtNtNtNtCs23MeGd5xNbL_10actual_cli3cli2ui7confirm5testss_31prompt_writes_summary_to_output
FNDA:1,_RNvNtNtNtNtCs23MeGd5xNbL_10actual_cli3cli2ui7confirm5testss_35invalid_input_hint_contains_options
FNDA:1,_RNvNtNtNtNtCs23MeGd5xNbL_10actual_cli3cli2ui7confirm5testss_38prompt_text_contains_accept_and_reject
FNDA:1,_RNvNtNtNtNtCs23MeGd5xNbL_10actual_cli3cli2ui7confirm5testss_40prompt_sequence_exhausted_returns_reject
FNDA:1,_RNvNtNtNtNtCs23MeGd5xNbL_10actual_cli3cli2ui7confirm5testss_46format_summary_project_without_optional_fields
FNDA:8,_RNvXs1_NtNtNtNtCs23MeGd5xNbL_10actual_cli3cli2ui7confirm5testsNtB5_14SequenceReaderNtB7_11InputReader9read_line
FNDA:1,_RNvXs2_NtNtNtNtCs23MeGd5xNbL_10actual_cli3cli2ui7confirm5testsNtB5_11ErrorReaderNtB7_11InputReader9read_line
FNDA:9,_RNvXs_NtNtNtNtCs23MeGd5xNbL_10actual_cli3cli2ui7confirm5testsNtB4_10MockReaderNtB6_11InputReader9read_line
FNF:43
FNH:43
DA:13,23
DA:14,23
DA:15,23
DA:16,23
DA:18,23
DA:21,23
DA:26,63
DA:27,63
DA:29,63
DA:30,63
DA:31,7
DA:32,7
DA:33,7
DA:34,7
DA:35,7
DA:36,56
DA:37,56
DA:38,56
DA:40,132
DA:41,69
DA:42,69
DA:43,69
DA:44,69
DA:45,69
DA:47,69
DA:48,68
DA:49,68
DA:50,68
DA:51,69
DA:52,68
DA:53,68
DA:54,68
DA:55,1
DA:57,69
DA:58,37
DA:59,36
DA:60,36
DA:61,33
DA:63,69
DA:64,68
DA:65,68
DA:67,69
DA:70,63
DA:71,63
DA:74,6
DA:75,6
DA:76,6
DA:77,6
DA:78,6
DA:79,6
DA:81,6
DA:86,31
DA:87,31
DA:88,31
DA:89,18
DA:90,8
DA:92,31
DA:98,17
DA:99,17
DA:100,17
DA:101,17
DA:102,17
DA:103,17
DA:104,17
DA:106,17
DA:107,17
DA:108,17
DA:111,22
DA:112,20
DA:113,15
DA:114,5
DA:115,5
DA:116,5
DA:117,5
DA:118,5
DA:119,5
DA:120,5
DA:122,2
DA:125,17
DA:139,9
DA:140,9
DA:141,9
DA:142,9
DA:143,9
DA:147,9
DA:148,9
DA:149,9
DA:159,3
DA:160,3
DA:161,3
DA:162,3
DA:163,3
DA:164,3
DA:168,8
DA:169,8
DA:170,8
DA:171,7
DA:173,1
DA:174,1
DA:175,1
DA:176,1
DA:178,8
DA:185,1
DA:186,1
DA:187,1
DA:190,1
DA:191,1
DA:192,1
DA:193,1
DA:194,1
DA:195,1
DA:196,1
DA:197,1
DA:198,1
DA:199,1
DA:200,1
DA:201,1
DA:202,1
DA:203,1
DA:204,1
DA:205,1
DA:206,1
DA:207,1
DA:208,1
DA:209,1
DA:210,1
DA:211,1
DA:212,1
DA:213,1
DA:214,1
DA:215,1
DA:216,1
DA:217,1
DA:218,1
DA:219,1
DA:220,1
DA:221,1
DA:222,1
DA:223,1
DA:224,1
DA:226,14
DA:227,14
DA:228,14
DA:229,14
DA:230,14
DA:231,14
DA:232,14
DA:233,14
DA:234,14
DA:235,14
DA:236,14
DA:237,14
DA:238,14
DA:239,14
DA:240,14
DA:241,14
DA:243,1
DA:244,1
DA:245,1
DA:246,1
DA:247,1
DA:248,1
DA:253,1
DA:254,1
DA:255,1
DA:257,1
DA:258,1
DA:259,0
DA:261,1
DA:262,1
DA:263,0
DA:265,1
DA:266,1
DA:267,0
DA:269,1
DA:270,1
DA:271,0
DA:273,1
DA:274,1
DA:275,0
DA:277,1
DA:278,1
DA:279,0
DA:281,1
DA:282,1
DA:283,0
DA:285,1
DA:286,1
DA:287,1
DA:288,1
DA:289,0
DA:291,1
DA:292,1
DA:293,1
DA:294,0
DA:296,1
DA:297,1
DA:298,0
DA:300,1
DA:303,1
DA:304,1
DA:305,1
DA:307,1
DA:308,1
DA:309,0
DA:311,1
DA:312,1
DA:313,0
DA:315,1
DA:316,1
DA:317,0
DA:319,1
DA:320,1
DA:323,1
DA:324,1
DA:325,1
DA:327,1
DA:328,1
DA:329,0
DA:332,1
DA:333,1
DA:334,0
DA:336,1
DA:339,1
DA:340,1
DA:341,1
DA:342,1
DA:343,1
DA:344,1
DA:345,1
DA:346,1
DA:347,1
DA:348,1
DA:349,1
DA:350,1
DA:351,1
DA:353,1
DA:354,1
DA:355,0
DA:357,1
DA:358,1
DA:359,0
DA:361,1
DA:362,1
DA:363,0
DA:365,1
DA:366,1
DA:367,0
DA:369,1
DA:374,1
DA:375,1
DA:376,1
DA:377,1
DA:378,0
DA:380,1
DA:381,1
DA:382,1
DA:387,1
DA:388,1
DA:389,1
DA:390,1
DA:395,1
DA:396,1
DA:397,1
DA:400,1
DA:401,1
DA:402,1
DA:405,1
DA:406,1
DA:407,1
DA:410,1
DA:411,1
DA:412,1
DA:415,1
DA:416,1
DA:417,1
DA:420,1
DA:421,1
DA:422,1
DA:425,1
DA:426,1
DA:427,1
DA:430,1
DA:431,1
DA:432,1
DA:435,1
DA:436,1
DA:437,1
DA:438,1
DA:439,1
DA:444,1
DA:445,1
DA:446,1
DA:447,1
DA:448,1
DA:449,1
DA:450,1
DA:453,1
DA:454,1
DA:455,1
DA:456,1
DA:457,1
DA:458,1
DA:459,1
DA:462,1
DA:463,1
DA:464,1
DA:465,1
DA:466,1
DA:467,1
DA:468,1
DA:471,1
DA:472,1
DA:473,1
DA:474,1
DA:475,1
DA:476,1
DA:477,1
DA:480,1
DA:481,1
DA:482,1
DA:483,1
DA:484,1
DA:485,1
DA:486,1
DA:489,1
DA:490,1
DA:491,1
DA:492,1
DA:493,1
DA:494,1
DA:495,1
DA:498,1
DA:499,1
DA:500,1
DA:501,1
DA:502,1
DA:503,1
DA:504,1
DA:507,1
DA:508,1
DA:509,1
DA:510,1
DA:511,1
DA:512,1
DA:513,1
DA:514,1
DA:515,1
DA:516,0
DA:519,1
DA:520,1
DA:521,0
DA:523,1
DA:524,1
DA:525,0
DA:527,1
DA:530,1
DA:531,1
DA:532,1
DA:533,1
DA:534,1
DA:535,1
DA:536,1
DA:539,1
DA:540,1
DA:541,1
DA:542,1
DA:543,1
DA:544,1
DA:545,1
DA:548,1
DA:549,1
DA:550,1
DA:551,1
DA:552,1
DA:553,1
DA:554,1
DA:557,1
DA:558,1
DA:560,1
DA:561,1
DA:562,1
DA:563,1
DA:564,1
DA:567,1
DA:568,1
DA:569,1
DA:570,1
DA:571,1
DA:572,1
DA:573,1
DA:574,1
DA:575,0
DA:577,1
DA:578,1
DA:579,0
DA:582,1
DA:583,1
DA:584,0
DA:586,1
DA:587,1
DA:588,0
DA:590,1
BRF:0
BRH:0
LF:405
LH:378
end_of_record
SF:/Users/poile/repos/actualai/actual-cli/.worktrees/2u6.4/src/cli/ui/diff.rs
FN:35,_RNvMNtNtNtCs14eHuuW48ek_10actual_cli3cli2ui4diffNtB2_8FileDiff21from_change_detection
FN:64,_RNvNtNtNtCs14eHuuW48ek_10actual_cli3cli2ui4diff16format_file_diff
FN:96,_RNvNtNtNtCs14eHuuW48ek_10actual_cli3cli2ui4diff19format_diff_summary
FN:35,_RNvMNtNtNtCs23MeGd5xNbL_10actual_cli3cli2ui4diffNtB2_8FileDiff21from_change_detection
FN:64,_RNvNtNtNtCs23MeGd5xNbL_10actual_cli3cli2ui4diff16format_file_diff
FN:96,_RNvNtNtNtCs23MeGd5xNbL_10actual_cli3cli2ui4diff19format_diff_summary
FN:131,_RNvNtNtNtNtCs23MeGd5xNbL_10actual_cli3cli2ui4diff5testss_20format_update_output
FN:114,_RNvNtNtNtNtCs23MeGd5xNbL_10actual_cli3cli2ui4diff5testss_22format_new_file_output
FN:265,_RNvNtNtNtNtCs23MeGd5xNbL_10actual_cli3cli2ui4diff5testss_25format_diff_summary_empty
FN:163,_RNvNtNtNtNtCs23MeGd5xNbL_10actual_cli3cli2ui4diff5testss_27format_new_file_single_rule
FN:182,_RNvNtNtNtNtCs23MeGd5xNbL_10actual_cli3cli2ui4diff5testss_30from_change_detection_new_file
FN:213,_RNvNtNtNtNtCs23MeGd5xNbL_10actual_cli3cli2ui4diff5testss_32from_change_detection_no_changes
FN:226,_RNvNtNtNtNtCs23MeGd5xNbL_10actual_cli3cli2ui4diff5testss_34format_diff_summary_multiple_files
FN:150,_RNvNtNtNtNtCs23MeGd5xNbL_10actual_cli3cli2ui4diff5testss_36format_zero_changes_shows_no_changes
FN:194,_RNvNtNtNtNtCs23MeGd5xNbL_10actual_cli3cli2ui4diff5testss_41from_change_detection_update_with_changes
FNDA:26,_RNvMNtNtNtCs14eHuuW48ek_10actual_cli3cli2ui4diffNtB2_8FileDiff21from_change_detection
FNDA:26,_RNvNtNtNtCs14eHuuW48ek_10actual_cli3cli2ui4diff16format_file_diff
FNDA:26,_RNvNtNtNtCs14eHuuW48ek_10actual_cli3cli2ui4diff19format_diff_summary
FNDA:22,_RNvMNtNtNtCs23MeGd5xNbL_10actual_cli3cli2ui4diffNtB2_8FileDiff21from_change_detection
FNDA:26,_RNvNtNtNtCs23MeGd5xNbL_10actual_cli3cli2ui4diff16format_file_diff
FNDA:25,_RNvNtNtNtCs23MeGd5xNbL_10actual_cli3cli2ui4diff19format_diff_summary
FNDA:1,_RNvNtNtNtNtCs23MeGd5xNbL_10actual_cli3cli2ui4diff5testss_20format_update_output
FNDA:1,_RNvNtNtNtNtCs23MeGd5xNbL_10actual_cli3cli2ui4diff5testss_22format_new_file_output
FNDA:1,_RNvNtNtNtNtCs23MeGd5xNbL_10actual_cli3cli2ui4diff5testss_25format_diff_summary_empty
FNDA:1,_RNvNtNtNtNtCs23MeGd5xNbL_10actual_cli3cli2ui4diff5testss_27format_new_file_single_rule
FNDA:1,_RNvNtNtNtNtCs23MeGd5xNbL_10actual_cli3cli2ui4diff5testss_30from_change_detection_new_file
FNDA:1,_RNvNtNtNtNtCs23MeGd5xNbL_10actual_cli3cli2ui4diff5testss_32from_change_detection_no_changes
FNDA:1,_RNvNtNtNtNtCs23MeGd5xNbL_10actual_cli3cli2ui4diff5testss_34format_diff_summary_multiple_files
FNDA:1,_RNvNtNtNtNtCs23MeGd5xNbL_10actual_cli3cli2ui4diff5testss_36format_zero_changes_shows_no_changes
FNDA:1,_RNvNtNtNtNtCs23MeGd5xNbL_10actual_cli3cli2ui4diff5testss_41from_change_detection_update_with_changes
FNF:12
FNH:12
DA:35,48
DA:36,48
DA:37,48
DA:38,48
DA:39,48
DA:40,48
DA:41,40
DA:42,40
DA:43,40
DA:44,8
DA:45,6
DA:47,2
DA:48,2
DA:49,2
DA:50,2
DA:51,2
DA:54,48
DA:55,48
DA:56,48
DA:57,48
DA:58,48
DA:64,52
DA:65,52
DA:67,52
DA:68,42
DA:69,42
DA:70,42
DA:71,42
DA:74,4
DA:75,4
DA:76,4
DA:77,4
DA:78,4
DA:79,4
DA:80,4
DA:81,4
DA:82,4
DA:83,4
DA:84,6
DA:85,6
DA:86,6
DA:89,52
DA:90,52
DA:96,51
DA:97,51
DA:99,99
DA:100,48
DA:101,48
DA:103,51
DA:104,51
DA:114,1
DA:115,1
DA:116,1
DA:117,1
DA:118,1
DA:119,1
DA:120,1
DA:121,1
DA:122,0
DA:124,1
DA:125,1
DA:126,0
DA:128,1
DA:131,1
DA:132,1
DA:133,1
DA:134,1
DA:135,1
DA:136,1
DA:137,1
DA:138,1
DA:139,1
DA:140,1
DA:141,1
DA:142,1
DA:143,1
DA:144,1
DA:145,1
DA:146,1
DA:147,1
DA:150,1
DA:151,1
DA:152,1
DA:153,1
DA:154,1
DA:155,1
DA:156,1
DA:157,1
DA:158,0
DA:160,1
DA:163,1
DA:164,1
DA:165,1
DA:166,1
DA:167,1
DA:168,1
DA:169,1
DA:170,1
DA:171,0
DA:173,1
DA:174,1
DA:175,0
DA:177,1
DA:182,1
DA:183,1
DA:184,1
DA:185,1
DA:186,1
DA:187,1
DA:188,1
DA:189,1
DA:190,1
DA:191,1
DA:194,1
DA:195,1
DA:196,1
DA:197,1
DA:198,1
DA:199,1
DA:200,1
DA:201,1
DA:202,1
DA:210,1
DA:213,1
DA:214,1
DA:215,1
DA:216,1
DA:217,1
DA:218,1
DA:219,1
DA:220,1
DA:221,1
DA:226,1
DA:227,1
DA:228,1
DA:229,1
DA:230,1
DA:231,1
DA:232,1
DA:233,1
DA:234,1
DA:235,1
DA:236,1
DA:237,1
DA:238,1
DA:239,1
DA:240,1
DA:241,1
DA:242,1
DA:243,1
DA:244,1
DA:245,1
DA:246,1
DA:247,1
DA:249,1
DA:250,1
DA:251,1
DA:252,0
DA:254,1
DA:255,1
DA:256,0
DA:258,1
DA:259,1
DA:260,0
DA:262,1
DA:265,1
DA:266,1
DA:267,1
DA:268,1
BRF:0
BRH:0
LF:169
LH:161
end_of_record
SF:/Users/poile/repos/actualai/actual-cli/.worktrees/2u6.4/src/cli/ui/file_confirm.rs
FN:127,_RNvNtNtNtCs14eHuuW48ek_10actual_cli3cli2ui12file_confirm12parse_action
FN:173,_RNvNtNtNtCs14eHuuW48ek_10actual_cli3cli2ui12file_confirm12preview_file
FN:30,_RNvNtNtNtCs14eHuuW48ek_10actual_cli3cli2ui12file_confirm13confirm_files
FN:103,_RNvNtNtNtCs14eHuuW48ek_10actual_cli3cli2ui12file_confirm13prompt_action
FN:79,_RNvNtNtNtCs14eHuuW48ek_10actual_cli3cli2ui12file_confirm20display_file_summary
FN:159,_RNCNvNtNtNtCs14eHuuW48ek_10actual_cli3cli2ui12file_confirm12parse_action0B9_
FN:59,_RNCNvNtNtNtCs14eHuuW48ek_10actual_cli3cli2ui12file_confirm13confirm_filess_0B9_
FN:195,_RNCNvMNtNtNtNtCs23MeGd5xNbL_10actual_cli3cli2ui12file_confirm5testsNtB4_12MockTerminal3new0Bc_
FN:222,_RNCNvNtNtNtNtCs23MeGd5xNbL_10actual_cli3cli2ui12file_confirm5tests16make_test_output0Bb_
FN:159,_RNCNvNtNtNtCs23MeGd5xNbL_10actual_cli3cli2ui12file_confirm12parse_action0B9_
FN:59,_RNCNvNtNtNtCs23MeGd5xNbL_10actual_cli3cli2ui12file_confirm13confirm_filess_0B9_
FN:200,_RNvMNtNtNtNtCs23MeGd5xNbL_10actual_cli3cli2ui12file_confirm5testsNtB2_12MockTerminal11output_text
FN:193,_RNvMNtNtNtNtCs23MeGd5xNbL_10actual_cli3cli2ui12file_confirm5testsNtB2_12MockTerminal3new
FN:219,_RNvNtNtNtNtCs23MeGd5xNbL_10actual_cli3cli2ui12file_confirm5tests16make_test_output
FN:241,_RNvNtNtNtNtCs23MeGd5xNbL_10actual_cli3cli2ui12file_confirm5tests29make_test_output_with_skipped
FN:265,_RNvNtNtNtNtCs23MeGd5xNbL_10actual_cli3cli2ui12file_confirm5testss_22test_parse_action_quit
FN:378,_RNvNtNtNtNtCs23MeGd5xNbL_10actual_cli3cli2ui12file_confirm5testss_23test_confirm_files_quit
FN:323,_RNvNtNtNtNtCs23MeGd5xNbL_10actual_cli3cli2ui12file_confirm5testss_23test_parse_action_empty
FN:260,_RNvNtNtNtNtCs23MeGd5xNbL_10actual_cli3cli2ui12file_confirm5testss_28test_parse_action_accept_all
FN:421,_RNvNtNtNtNtCs23MeGd5xNbL_10actual_cli3cli2ui12file_confirm5testss_32test_confirm_files_toggle_reject
FN:275,_RNvNtNtNtNtCs23MeGd5xNbL_10actual_cli3cli2ui12file_confirm5testss_33test_parse_action_reject_no_space
FN:330,_RNvNtNtNtNtCs23MeGd5xNbL_10actual_cli3cli2ui12file_confirm5testss_33test_parse_action_unknown_command
FN:285,_RNvNtNtNtNtCs23MeGd5xNbL_10actual_cli3cli2ui12file_confirm5testss_34test_parse_action_preview_no_space
FN:302,_RNvNtNtNtNtCs23MeGd5xNbL_10actual_cli3cli2ui12file_confirm5testss_34test_parse_action_reject_no_number
FN:360,_RNvNtNtNtNtCs23MeGd5xNbL_10actual_cli3cli2ui12file_confirm5testss_35test_confirm_files_force_empty_list
FN:309,_RNvNtNtNtNtCs23MeGd5xNbL_10actual_cli3cli2ui12file_confirm5testss_35test_parse_action_preview_no_number
FN:270,_RNvNtNtNtNtCs23MeGd5xNbL_10actual_cli3cli2ui12file_confirm5testss_35test_parse_action_reject_with_space
FN:349,_RNvNtNtNtNtCs23MeGd5xNbL_10actual_cli3cli2ui12file_confirm5testss_36test_confirm_files_force_returns_all
FN:280,_RNvNtNtNtNtCs23MeGd5xNbL_10actual_cli3cli2ui12file_confirm5testss_36test_parse_action_preview_with_space
FN:316,_RNvNtNtNtNtCs23MeGd5xNbL_10actual_cli3cli2ui12file_confirm5testss_36test_parse_action_reject_non_numeric
FN:370,_RNvNtNtNtNtCs23MeGd5xNbL_10actual_cli3cli2ui12file_confirm5testss_37test_confirm_files_accept_immediately
FN:389,_RNvNtNtNtNtCs23MeGd5xNbL_10actual_cli3cli2ui12file_confirm5testss_37test_confirm_files_reject_then_accept
FN:510,_RNvNtNtNtNtCs23MeGd5xNbL_10actual_cli3cli2ui12file_confirm5testss_37test_prompt_action_invalid_then_valid
FN:399,_RNvNtNtNtNtCs23MeGd5xNbL_10actual_cli3cli2ui12file_confirm5testss_38test_confirm_files_preview_then_accept
FN:295,_RNvNtNtNtNtCs23MeGd5xNbL_10actual_cli3cli2ui12file_confirm5testss_38test_parse_action_reject_exceeds_count
FN:430,_RNvNtNtNtNtCs23MeGd5xNbL_10actual_cli3cli2ui12file_confirm5testss_39test_confirm_files_skipped_adrs_message
FN:444,_RNvNtNtNtNtCs23MeGd5xNbL_10actual_cli3cli2ui12file_confirm5testss_40test_display_file_summary_contains_paths
FN:530,_RNvNtNtNtNtCs23MeGd5xNbL_10actual_cli3cli2ui12file_confirm5testss_40test_prompt_action_read_error_propagates
FN:413,_RNvNtNtNtNtCs23MeGd5xNbL_10actual_cli3cli2ui12file_confirm5testss_41test_confirm_files_reject_all_then_accept
FN:337,_RNvNtNtNtNtCs23MeGd5xNbL_10actual_cli3cli2ui12file_confirm5testss_41test_parse_action_case_insensitive_accept
FN:342,_RNvNtNtNtNtCs23MeGd5xNbL_10actual_cli3cli2ui12file_confirm5testss_41test_parse_action_case_insensitive_reject
FN:460,_RNvNtNtNtNtCs23MeGd5xNbL_10actual_cli3cli2ui12file_confirm5testss_42test_display_file_summary_shows_adr_counts
FN:290,_RNvNtNtNtNtCs23MeGd5xNbL_10actual_cli3cli2ui12file_confirm5testss_42test_parse_action_reject_zero_out_of_range
FN:490,_RNvNtNtNtNtCs23MeGd5xNbL_10actual_cli3cli2ui12file_confirm5testss_43test_preview_file_contains_path_and_content
FN:583,_RNvNtNtNtNtCs23MeGd5xNbL_10actual_cli3cli2ui12file_confirm5testss_44test_confirm_files_invalid_input_then_accept
FN:543,_RNvNtNtNtNtCs23MeGd5xNbL_10actual_cli3cli2ui12file_confirm5testss_46test_display_file_summary_multiple_adrs_plural
FN:564,_RNvNtNtNtNtCs23MeGd5xNbL_10actual_cli3cli2ui12file_confirm5testss_46test_display_file_summary_single_adr_no_plural
FN:523,_RNvNtNtNtNtCs23MeGd5xNbL_10actual_cli3cli2ui12file_confirm5testss_46test_prompt_action_multiple_invalid_then_valid
FN:472,_RNvNtNtNtNtCs23MeGd5xNbL_10actual_cli3cli2ui12file_confirm5testss_47test_display_file_summary_rejected_files_marked
FN:214,_RNvXs_NtNtNtNtCs23MeGd5xNbL_10actual_cli3cli2ui12file_confirm5testsNtB4_12MockTerminalNtB6_10TerminalIO10write_line
FN:206,_RNvXs_NtNtNtNtCs23MeGd5xNbL_10actual_cli3cli2ui12file_confirm5testsNtB4_12MockTerminalNtB6_10TerminalIO9read_line
FN:127,_RNvNtNtNtCs23MeGd5xNbL_10actual_cli3cli2ui12file_confirm12parse_action
FN:173,_RNvNtNtNtCs23MeGd5xNbL_10actual_cli3cli2ui12file_confirm12preview_file
FN:30,_RNvNtNtNtCs23MeGd5xNbL_10actual_cli3cli2ui12file_confirm13confirm_files
FN:103,_RNvNtNtNtCs23MeGd5xNbL_10actual_cli3cli2ui12file_confirm13prompt_action
FN:79,_RNvNtNtNtCs23MeGd5xNbL_10actual_cli3cli2ui12file_confirm20display_file_summary
FNDA:0,_RNvNtNtNtCs14eHuuW48ek_10actual_cli3cli2ui12file_confirm12parse_action
FNDA:0,_RNvNtNtNtCs14eHuuW48ek_10actual_cli3cli2ui12file_confirm12preview_file
FNDA:23,_RNvNtNtNtCs14eHuuW48ek_10actual_cli3cli2ui12file_confirm13confirm_files
FNDA:0,_RNvNtNtNtCs14eHuuW48ek_10actual_cli3cli2ui12file_confirm13prompt_action
FNDA:0,_RNvNtNtNtCs14eHuuW48ek_10actual_cli3cli2ui12file_confirm20display_file_summary
FNDA:0,_RNCNvNtNtNtCs14eHuuW48ek_10actual_cli3cli2ui12file_confirm12parse_action0B9_
FNDA:0,_RNCNvNtNtNtCs14eHuuW48ek_10actual_cli3cli2ui12file_confirm13confirm_filess_0B9_
FNDA:21,_RNCNvMNtNtNtNtCs23MeGd5xNbL_10actual_cli3cli2ui12file_confirm5testsNtB4_12MockTerminal3new0Bc_
FNDA:25,_RNCNvNtNtNtNtCs23MeGd5xNbL_10actual_cli3cli2ui12file_confirm5tests16make_test_output0Bb_
FNDA:1,_RNCNvNtNtNtCs23MeGd5xNbL_10actual_cli3cli2ui12file_confirm12parse_action0B9_
FNDA:16,_RNCNvNtNtNtCs23MeGd5xNbL_10actual_cli3cli2ui12file_confirm13confirm_filess_0B9_
FNDA:10,_RNvMNtNtNtNtCs23MeGd5xNbL_10actual_cli3cli2ui12file_confirm5testsNtB2_12MockTerminal11output_text
FNDA:19,_RNvMNtNtNtNtCs23MeGd5xNbL_10actual_cli3cli2ui12file_confirm5testsNtB2_12MockTerminal3new
FNDA:13,_RNvNtNtNtNtCs23MeGd5xNbL_10actual_cli3cli2ui12file_confirm5tests16make_test_output
FNDA:1,_RNvNtNtNtNtCs23MeGd5xNbL_10actual_cli3cli2ui12file_confirm5tests29make_test_output_with_skipped
FNDA:1,_RNvNtNtNtNtCs23MeGd5xNbL_10actual_cli3cli2ui12file_confirm5testss_22test_parse_action_quit
FNDA:1,_RNvNtNtNtNtCs23MeGd5xNbL_10actual_cli3cli2ui12file_confirm5testss_23test_confirm_files_quit
FNDA:1,_RNvNtNtNtNtCs23MeGd5xNbL_10actual_cli3cli2ui12file_confirm5testss_23test_parse_action_empty
FNDA:1,_RNvNtNtNtNtCs23MeGd5xNbL_10actual_cli3cli2ui12file_confirm5testss_28test_parse_action_accept_all
FNDA:1,_RNvNtNtNtNtCs23MeGd5xNbL_10actual_cli3cli2ui12file_confirm5testss_32test_confirm_files_toggle_reject
FNDA:1,_RNvNtNtNtNtCs23MeGd5xNbL_10actual_cli3cli2ui12file_confirm5testss_33test_parse_action_reject_no_space
FNDA:1,_RNvNtNtNtNtCs23MeGd5xNbL_10actual_cli3cli2ui12file_confirm5testss_33test_parse_action_unknown_command
FNDA:1,_RNvNtNtNtNtCs23MeGd5xNbL_10actual_cli3cli2ui12file_confirm5testss_34test_parse_action_preview_no_space
FNDA:1,_RNvNtNtNtNtCs23MeGd5xNbL_10actual_cli3cli2ui12file_confirm5testss_34test_parse_action_reject_no_number
FNDA:1,_RNvNtNtNtNtCs23MeGd5xNbL_10actual_cli3cli2ui12file_confirm5testss_35test_confirm_files_force_empty_list
FNDA:1,_RNvNtNtNtNtCs23MeGd5xNbL_10actual_cli3cli2ui12file_confirm5testss_35test_parse_action_preview_no_number
FNDA:1,_RNvNtNtNtNtCs23MeGd5xNbL_10actual_cli3cli2ui12file_confirm5testss_35test_parse_action_reject_with_space
FNDA:1,_RNvNtNtNtNtCs23MeGd5xNbL_10actual_cli3cli2ui12file_confirm5testss_36test_confirm_files_force_returns_all
FNDA:1,_RNvNtNtNtNtCs23MeGd5xNbL_10actual_cli3cli2ui12file_confirm5testss_36test_parse_action_preview_with_space
FNDA:1,_RNvNtNtNtNtCs23MeGd5xNbL_10actual_cli3cli2ui12file_confirm5testss_36test_parse_action_reject_non_numeric
FNDA:1,_RNvNtNtNtNtCs23MeGd5xNbL_10actual_cli3cli2ui12file_confirm5testss_37test_confirm_files_accept_immediately
FNDA:1,_RNvNtNtNtNtCs23MeGd5xNbL_10actual_cli3cli2ui12file_confirm5testss_37test_confirm_files_reject_then_accept
FNDA:1,_RNvNtNtNtNtCs23MeGd5xNbL_10actual_cli3cli2ui12file_confirm5testss_37test_prompt_action_invalid_then_valid
FNDA:1,_RNvNtNtNtNtCs23MeGd5xNbL_10actual_cli3cli2ui12file_confirm5testss_38test_confirm_files_preview_then_accept
FNDA:1,_RNvNtNtNtNtCs23MeGd5xNbL_10actual_cli3cli2ui12file_confirm5testss_38test_parse_action_reject_exceeds_count
FNDA:1,_RNvNtNtNtNtCs23MeGd5xNbL_10actual_cli3cli2ui12file_confirm5testss_39test_confirm_files_skipped_adrs_message
FNDA:1,_RNvNtNtNtNtCs23MeGd5xNbL_10actual_cli3cli2ui12file_confirm5testss_40test_display_file_summary_contains_paths
FNDA:1,_RNvNtNtNtNtCs23MeGd5xNbL_10actual_cli3cli2ui12file_confirm5testss_40test_prompt_action_read_error_propagates
FNDA:1,_RNvNtNtNtNtCs23MeGd5xNbL_10actual_cli3cli2ui12file_confirm5testss_41test_confirm_files_reject_all_then_accept
FNDA:1,_RNvNtNtNtNtCs23MeGd5xNbL_10actual_cli3cli2ui12file_confirm5testss_41test_parse_action_case_insensitive_accept
FNDA:1,_RNvNtNtNtNtCs23MeGd5xNbL_10actual_cli3cli2ui12file_confirm5testss_41test_parse_action_case_insensitive_reject
FNDA:1,_RNvNtNtNtNtCs23MeGd5xNbL_10actual_cli3cli2ui12file_confirm5testss_42test_display_file_summary_shows_adr_counts
FNDA:1,_RNvNtNtNtNtCs23MeGd5xNbL_10actual_cli3cli2ui12file_confirm5testss_42test_parse_action_reject_zero_out_of_range
FNDA:1,_RNvNtNtNtNtCs23MeGd5xNbL_10actual_cli3cli2ui12file_confirm5testss_43test_preview_file_contains_path_and_content
FNDA:1,_RNvNtNtNtNtCs23MeGd5xNbL_10actual_cli3cli2ui12file_confirm5testss_44test_confirm_files_invalid_input_then_accept
FNDA:1,_RNvNtNtNtNtCs23MeGd5xNbL_10actual_cli3cli2ui12file_confirm5testss_46test_display_file_summary_multiple_adrs_plural
FNDA:1,_RNvNtNtNtNtCs23MeGd5xNbL_10actual_cli3cli2ui12file_confirm5testss_46test_display_file_summary_single_adr_no_plural
FNDA:1,_RNvNtNtNtNtCs23MeGd5xNbL_10actual_cli3cli2ui12file_confirm5testss_46test_prompt_action_multiple_invalid_then_valid
FNDA:1,_RNvNtNtNtNtCs23MeGd5xNbL_10actual_cli3cli2ui12file_confirm5testss_47test_display_file_summary_rejected_files_marked
FNDA:147,_RNvXs_NtNtNtNtCs23MeGd5xNbL_10actual_cli3cli2ui12file_confirm5testsNtB4_12MockTerminalNtB6_10TerminalIO10write_line
FNDA:22,_RNvXs_NtNtNtNtCs23MeGd5xNbL_10actual_cli3cli2ui12file_confirm5testsNtB4_12MockTerminalNtB6_10TerminalIO9read_line
FNDA:46,_RNvNtNtNtCs23MeGd5xNbL_10actual_cli3cli2ui12file_confirm12parse_action
FNDA:2,_RNvNtNtNtCs23MeGd5xNbL_10actual_cli3cli2ui12file_confirm12preview_file
FNDA:29,_RNvNtNtNtCs23MeGd5xNbL_10actual_cli3cli2ui12file_confirm13confirm_files
FNDA:27,_RNvNtNtNtCs23MeGd5xNbL_10actual_cli3cli2ui12file_confirm13prompt_action
FNDA:29,_RNvNtNtNtCs23MeGd5xNbL_10actual_cli3cli2ui12file_confirm20display_file_summary
FNF:49
FNH:49
DA:30,52
DA:31,52
DA:32,52
DA:33,52
DA:34,52
DA:35,52
DA:36,38
DA:37,14
DA:39,14
DA:40,14
DA:42,14
DA:44,14
DA:45,1
DA:46,1
DA:47,1
DA:48,1
DA:49,13
DA:52,24
DA:53,24
DA:55,11
DA:56,11
DA:57,11
DA:58,11
DA:59,16
DA:60,11
DA:61,11
DA:63,9
DA:64,9
DA:65,9
DA:66,9
DA:67,1
DA:68,1
DA:69,1
DA:70,1
DA:72,3
DA:76,52
DA:79,29
DA:80,29
DA:81,29
DA:83,57
DA:84,57
DA:85,57
DA:86,57
DA:87,46
DA:89,11
DA:92,57
DA:93,57
DA:94,57
DA:95,57
DA:96,57
DA:97,57
DA:99,29
DA:100,29
DA:103,27
DA:104,27
DA:105,27
DA:106,27
DA:108,32
DA:109,31
DA:110,26
DA:111,5
DA:112,5
DA:113,5
DA:116,27
DA:127,46
DA:128,46
DA:129,46
DA:130,2
DA:131,44
DA:133,44
DA:135,44
DA:136,14
DA:137,30
DA:139,30
DA:140,5
DA:141,25
DA:144,25
DA:145,17
DA:146,8
DA:147,4
DA:149,4
DA:152,21
DA:153,21
DA:154,3
DA:155,18
DA:157,18
DA:158,18
DA:159,18
DA:161,17
DA:162,2
DA:163,15
DA:165,15
DA:166,12
DA:168,3
DA:170,46
DA:173,2
DA:174,2
DA:175,2
DA:176,2
DA:177,2
DA:178,2
DA:179,2
DA:193,19
DA:195,21
DA:196,19
DA:198,19
DA:200,10
DA:201,10
DA:202,10
DA:206,22
DA:207,22
DA:208,22
DA:209,1
DA:210,21
DA:211,21
DA:212,22
DA:214,147
DA:215,147
DA:216,147
DA:219,13
DA:220,13
DA:221,13
DA:222,25
DA:223,25
DA:224,25
DA:225,25
DA:226,25
DA:227,13
DA:229,13
DA:230,13
DA:231,13
DA:232,13
DA:233,13
DA:234,13
DA:235,13
DA:236,13
DA:237,13
DA:238,13
DA:239,13
DA:241,1
DA:242,1
DA:243,1
DA:244,1
DA:245,1
DA:246,1
DA:247,1
DA:248,1
DA:249,1
DA:250,1
DA:251,1
DA:253,1
DA:254,1
DA:255,1
DA:260,1
DA:261,1
DA:262,1
DA:265,1
DA:266,1
DA:267,1
DA:270,1
DA:271,1
DA:272,1
DA:275,1
DA:276,1
DA:277,1
DA:280,1
DA:281,1
DA:282,1
DA:285,1
DA:286,1
DA:287,1
DA:290,1
DA:291,1
DA:292,1
DA:295,1
DA:296,1
DA:297,1
DA:298,1
DA:299,1
DA:302,1
DA:303,1
DA:304,1
DA:305,1
DA:306,1
DA:309,1
DA:310,1
DA:311,1
DA:312,1
DA:313,1
DA:316,1
DA:317,1
DA:318,1
DA:319,1
DA:320,1
DA:323,1
DA:324,1
DA:325,1
DA:326,1
DA:327,1
DA:330,1
DA:331,1
DA:332,1
DA:333,1
DA:334,1
DA:337,1
DA:338,1
DA:339,1
DA:342,1
DA:343,1
DA:344,1
DA:349,1
DA:350,1
DA:351,1
DA:352,1
DA:353,1
DA:354,1
DA:355,1
DA:356,1
DA:357,1
DA:360,1
DA:361,1
DA:362,1
DA:363,1
DA:364,1
DA:365,1
DA:370,1
DA:371,1
DA:372,1
DA:373,1
DA:374,1
DA:375,1
DA:378,1
DA:379,1
DA:380,1
DA:381,1
DA:382,1
DA:383,1
DA:384,0
DA:386,1
DA:389,1
DA:390,1
DA:391,1
DA:392,1
DA:393,1
DA:394,1
DA:395,1
DA:396,1
DA:399,1
DA:400,1
DA:401,1
DA:402,1
DA:403,1
DA:405,1
DA:406,1
DA:407,1
DA:408,0
DA:410,1
DA:413,1
DA:414,1
DA:415,1
DA:416,1
DA:417,1
DA:418,1
DA:421,1
DA:422,1
DA:424,1
DA:425,1
DA:426,1
DA:427,1
DA:430,1
DA:431,1
DA:432,1
DA:433,1
DA:434,1
DA:435,1
DA:436,1
DA:437,0
DA:439,1
DA:444,1
DA:445,1
DA:446,1
DA:447,1
DA:448,1
DA:449,1
DA:450,1
DA:451,0
DA:453,1
DA:454,1
DA:455,0
DA:457,1
DA:460,1
DA:461,1
DA:462,1
DA:463,1
DA:464,1
DA:465,1
DA:466,1
DA:467,0
DA:469,1
DA:472,1
DA:473,1
DA:474,1
DA:475,1
DA:476,1
DA:477,1
DA:478,1
DA:479,0
DA:481,1
DA:482,1
DA:483,0
DA:485,1
DA:490,1
DA:491,1
DA:492,1
DA:493,1
DA:494,1
DA:495,1
DA:496,1
DA:497,1
DA:498,1
DA:499,1
DA:500,1
DA:501,1
DA:502,1
DA:503,0
DA:505,1
DA:510,1
DA:512,1
DA:513,1
DA:514,1
DA:515,1
DA:516,1
DA:517,1
DA:518,0
DA:520,1
DA:523,1
DA:524,1
DA:525,1
DA:526,1
DA:527,1
DA:530,1
DA:532,1
DA:533,1
DA:534,1
DA:535,1
DA:536,0
DA:538,1
DA:543,1
DA:544,1
DA:545,1
DA:546,1
DA:547,1
DA:548,1
DA:549,1
DA:550,1
DA:551,1
DA:552,1
DA:553,1
DA:554,1
DA:555,1
DA:556,1
DA:557,1
DA:558,1
DA:559,0
DA:561,1
DA:564,1
DA:565,1
DA:566,1
DA:567,1
DA:568,1
DA:569,1
DA:570,1
DA:571,1
DA:572,1
DA:573,1
DA:574,1
DA:575,1
DA:576,0
DA:578,1
DA:583,1
DA:584,1
DA:585,1
DA:586,1
DA:587,1
DA:588,1
DA:589,1
DA:590,1
DA:591,0
DA:593,1
BRF:0
BRH:0
LF:392
LH:378
end_of_record
SF:/Users/poile/repos/actualai/actual-cli/.worktrees/2u6.4/src/cli/ui/progress.rs
FN:20,_RNvMNtNtNtCs14eHuuW48ek_10actual_cli3cli2ui8progressNtB2_7Spinner3new
FN:57,_RNvMNtNtNtCs14eHuuW48ek_10actual_cli3cli2ui8progressNtB2_7Spinner4warn
FN:50,_RNvMNtNtNtCs14eHuuW48ek_10actual_cli3cli2ui8progressNtB2_7Spinner5error
FN:36,_RNvMNtNtNtCs14eHuuW48ek_10actual_cli3cli2ui8progressNtB2_7Spinner6update
FN:43,_RNvMNtNtNtCs14eHuuW48ek_10actual_cli3cli2ui8progressNtB2_7Spinner7success
FN:20,_RNvMNtNtNtCs23MeGd5xNbL_10actual_cli3cli2ui8progressNtB2_7Spinner3new
FN:57,_RNvMNtNtNtCs23MeGd5xNbL_10actual_cli3cli2ui8progressNtB2_7Spinner4warn
FN:50,_RNvMNtNtNtCs23MeGd5xNbL_10actual_cli3cli2ui8progressNtB2_7Spinner5error
FN:36,_RNvMNtNtNtCs23MeGd5xNbL_10actual_cli3cli2ui8progressNtB2_7Spinner6update
FN:43,_RNvMNtNtNtCs23MeGd5xNbL_10actual_cli3cli2ui8progressNtB2_7Spinner7success
FN:96,_RNvNtNtNtNtCs23MeGd5xNbL_10actual_cli3cli2ui8progress5testss_21test_symbol_constants
FN:69,_RNvNtNtNtNtCs23MeGd5xNbL_10actual_cli3cli2ui8progress5testss_23test_spinner_quiet_mode
FN:78,_RNvNtNtNtNtCs23MeGd5xNbL_10actual_cli3cli2ui8progress5testss_24test_spinner_active_mode
FN:134,_RNvNtNtNtNtCs23MeGd5xNbL_10actual_cli3cli2ui8progress5testss_24test_spinner_active_warn
FN:121,_RNvNtNtNtNtCs23MeGd5xNbL_10actual_cli3cli2ui8progress5testss_25test_spinner_active_error
FN:103,_RNvNtNtNtNtCs23MeGd5xNbL_10actual_cli3cli2ui8progress5testss_26test_spinner_active_update
FN:111,_RNvNtNtNtNtCs23MeGd5xNbL_10actual_cli3cli2ui8progress5testss_27test_spinner_active_success
FN:87,_RNvNtNtNtNtCs23MeGd5xNbL_10actual_cli3cli2ui8progress5testss_38test_spinner_quiet_operations_no_panic
FNDA:106,_RNvMNtNtNtCs14eHuuW48ek_10actual_cli3cli2ui8progressNtB2_7Spinner3new
FNDA:32,_RNvMNtNtNtCs14eHuuW48ek_10actual_cli3cli2ui8progressNtB2_7Spinner4warn
FNDA:5,_RNvMNtNtNtCs14eHuuW48ek_10actual_cli3cli2ui8progressNtB2_7Spinner5error
FNDA:0,_RNvMNtNtNtCs14eHuuW48ek_10actual_cli3cli2ui8progressNtB2_7Spinner6update
FNDA:67,_RNvMNtNtNtCs14eHuuW48ek_10actual_cli3cli2ui8progressNtB2_7Spinner7success
FNDA:62,_RNvMNtNtNtCs23MeGd5xNbL_10actual_cli3cli2ui8progressNtB2_7Spinner3new
FNDA:19,_RNvMNtNtNtCs23MeGd5xNbL_10actual_cli3cli2ui8progressNtB2_7Spinner4warn
FNDA:4,_RNvMNtNtNtCs23MeGd5xNbL_10actual_cli3cli2ui8progressNtB2_7Spinner5error
FNDA:2,_RNvMNtNtNtCs23MeGd5xNbL_10actual_cli3cli2ui8progressNtB2_7Spinner6update
FNDA:37,_RNvMNtNtNtCs23MeGd5xNbL_10actual_cli3cli2ui8progressNtB2_7Spinner7success
FNDA:1,_RNvNtNtNtNtCs23MeGd5xNbL_10actual_cli3cli2ui8progress5testss_21test_symbol_constants
FNDA:1,_RNvNtNtNtNtCs23MeGd5xNbL_10actual_cli3cli2ui8progress5testss_23test_spinner_quiet_mode
FNDA:1,_RNvNtNtNtNtCs23MeGd5xNbL_10actual_cli3cli2ui8progress5testss_24test_spinner_active_mode
FNDA:1,_RNvNtNtNtNtCs23MeGd5xNbL_10actual_cli3cli2ui8progress5testss_24test_spinner_active_warn
FNDA:1,_RNvNtNtNtNtCs23MeGd5xNbL_10actual_cli3cli2ui8progress5testss_25test_spinner_active_error
FNDA:1,_RNvNtNtNtNtCs23MeGd5xNbL_10actual_cli3cli2ui8progress5testss_26test_spinner_active_update
FNDA:1,_RNvNtNtNtNtCs23MeGd5xNbL_10actual_cli3cli2ui8progress5testss_27test_spinner_active_success
FNDA:1,_RNvNtNtNtNtCs23MeGd5xNbL_10actual_cli3cli2ui8progress5testss_38test_spinner_quiet_operations_no_panic
FNF:13
FNH:13
DA:20,168
DA:21,168
DA:22,2
DA:23,166
DA:25,166
DA:26,166
DA:27,166
DA:29,166
DA:30,166
DA:32,166
DA:33,168
DA:36,2
DA:37,2
DA:38,1
DA:39,1
DA:40,2
DA:43,104
DA:44,104
DA:45,103
DA:46,103
DA:47,104
DA:50,9
DA:51,9
DA:52,8
DA:53,8
DA:54,9
DA:57,51
DA:58,51
DA:59,50
DA:60,50
DA:61,51
DA:69,1
DA:70,1
DA:71,1
DA:72,1
DA:73,0
DA:75,1
DA:78,1
DA:79,1
DA:80,1
DA:81,1
DA:82,0
DA:84,1
DA:87,1
DA:88,1
DA:89,1
DA:90,1
DA:91,1
DA:92,1
DA:93,1
DA:96,1
DA:97,1
DA:98,1
DA:99,1
DA:100,1
DA:103,1
DA:104,1
DA:105,1
DA:106,1
DA:107,1
DA:108,1
DA:111,1
DA:112,1
DA:113,1
DA:114,1
DA:115,1
DA:116,1
DA:117,1
DA:118,1
DA:121,1
DA:122,1
DA:123,1
DA:124,1
DA:125,1
DA:126,1
DA:127,1
DA:128,0
DA:130,1
DA:131,1
DA:134,1
DA:135,1
DA:136,1
DA:137,1
DA:138,1
DA:139,1
DA:140,1
DA:141,0
DA:143,1
DA:144,1
BRF:0
BRH:0
LF:89
LH:85
end_of_record
SF:/Users/poile/repos/actualai/actual-cli/.worktrees/2u6.4/src/cli/ui/table.rs
FN:20,_RNCNvNtNtNtCs14eHuuW48ek_10actual_cli3cli2ui5table21render_analysis_table0B9_
FN:30,_RNCNvNtNtNtCs14eHuuW48ek_10actual_cli3cli2ui5table21render_analysis_tables_0B9_
FN:46,_RNvNtNtNtNtCs23MeGd5xNbL_10actual_cli3cli2ui5table5tests12make_project
FN:116,_RNvNtNtNtNtCs23MeGd5xNbL_10actual_cli3cli2ui5table5testss_27render_table_single_project
FN:58,_RNvNtNtNtNtCs23MeGd5xNbL_10actual_cli3cli2ui5table5testss_27render_table_three_projects
FN:98,_RNvNtNtNtNtCs23MeGd5xNbL_10actual_cli3cli2ui5table5testss_40render_table_no_frameworks_shows_em_dash
FN:20,_RNCNvNtNtNtCs23MeGd5xNbL_10actual_cli3cli2ui5table21render_analysis_table0B9_
FN:30,_RNCNvNtNtNtCs23MeGd5xNbL_10actual_cli3cli2ui5table21render_analysis_tables_0B9_
FN:11,_RNvNtNtNtCs23MeGd5xNbL_10actual_cli3cli2ui5table21render_analysis_table
FNDA:0,_RNCNvNtNtNtCs14eHuuW48ek_10actual_cli3cli2ui5table21render_analysis_table0B9_
FNDA:0,_RNCNvNtNtNtCs14eHuuW48ek_10actual_cli3cli2ui5table21render_analysis_tables_0B9_
FNDA:5,_RNvNtNtNtNtCs23MeGd5xNbL_10actual_cli3cli2ui5table5tests12make_project
FNDA:1,_RNvNtNtNtNtCs23MeGd5xNbL_10actual_cli3cli2ui5table5testss_27render_table_single_project
FNDA:1,_RNvNtNtNtNtCs23MeGd5xNbL_10actual_cli3cli2ui5table5testss_27render_table_three_projects
FNDA:1,_RNvNtNtNtNtCs23MeGd5xNbL_10actual_cli3cli2ui5table5testss_40render_table_no_frameworks_shows_em_dash
FNDA:5,_RNCNvNtNtNtCs23MeGd5xNbL_10actual_cli3cli2ui5table21render_analysis_table0B9_
FNDA:3,_RNCNvNtNtNtCs23MeGd5xNbL_10actual_cli3cli2ui5table21render_analysis_tables_0B9_
FNDA:3,_RNvNtNtNtCs23MeGd5xNbL_10actual_cli3cli2ui5table21render_analysis_table
FNF:7
FNH:7
DA:11,3
DA:12,3
DA:13,3
DA:14,3
DA:16,8
DA:17,5
DA:18,5
DA:19,5
DA:20,5
DA:21,5
DA:22,5
DA:24,5
DA:25,2
DA:27,3
DA:28,3
DA:29,3
DA:30,3
DA:31,3
DA:32,3
DA:35,5
DA:38,3
DA:39,3
DA:46,5
DA:47,5
DA:48,5
DA:49,5
DA:50,5
DA:51,5
DA:52,5
DA:53,5
DA:54,5
DA:55,5
DA:58,1
DA:59,1
DA:60,1
DA:61,1
DA:62,1
DA:63,1
DA:64,1
DA:65,1
DA:66,1
DA:67,1
DA:68,1
DA:69,1
DA:70,1
DA:71,1
DA:72,1
DA:73,1
DA:74,1
DA:75,1
DA:76,1
DA:77,1
DA:78,1
DA:79,1
DA:80,1
DA:82,1
DA:83,1
DA:84,1
DA:85,0
DA:87,1
DA:88,1
DA:89,0
DA:91,1
DA:92,1
DA:93,0
DA:95,1
DA:98,1
DA:99,1
DA:100,1
DA:101,1
DA:102,1
DA:103,1
DA:104,1
DA:105,1
DA:106,1
DA:108,1
DA:109,1
DA:110,1
DA:111,0
DA:113,1
DA:116,1
DA:117,1
DA:118,1
DA:119,1
DA:120,1
DA:121,1
DA:122,1
DA:123,1
DA:124,1
DA:125,1
DA:126,1
DA:127,1
DA:129,1
DA:130,1
DA:131,1
DA:132,1
DA:133,0
DA:135,1
DA:136,1
DA:137,0
DA:139,1
BRF:0
BRH:0
LF:103
LH:97
end_of_record
SF:/Users/poile/repos/actualai/actual-cli/.worktrees/2u6.4/src/config/dotpath.rs
FN:7,_RNvNtNtCs14eHuuW48ek_10actual_cli6config7dotpath3get
FN:61,_RNvNtNtCs14eHuuW48ek_10actual_cli6config7dotpath3set
FN:12,_RNCNvNtNtCs14eHuuW48ek_10actual_cli6config7dotpath3get0B7_
FN:19,_RNCNvNtNtCs14eHuuW48ek_10actual_cli6config7dotpath3gets0_0B7_
FN:20,_RNCNvNtNtCs14eHuuW48ek_10actual_cli6config7dotpath3gets1_0B7_
FN:23,_RNCNvNtNtCs14eHuuW48ek_10actual_cli6config7dotpath3gets2_0B7_
FN:24,_RNCNvNtNtCs14eHuuW48ek_10actual_cli6config7dotpath3gets3_0B7_
FN:27,_RNCNvNtNtCs14eHuuW48ek_10actual_cli6config7dotpath3gets4_0B7_
FN:28,_RNCNvNtNtCs14eHuuW48ek_10actual_cli6config7dotpath3gets5_0B7_
FN:31,_RNCNvNtNtCs14eHuuW48ek_10actual_cli6config7dotpath3gets6_0B7_
FN:32,_RNCNvNtNtCs14eHuuW48ek_10actual_cli6config7dotpath3gets7_0B7_
FN:36,_RNCNvNtNtCs14eHuuW48ek_10actual_cli6config7dotpath3gets8_0B7_
FN:37,_RNCNvNtNtCs14eHuuW48ek_10actual_cli6config7dotpath3gets9_0B7_
FN:16,_RNCNvNtNtCs14eHuuW48ek_10actual_cli6config7dotpath3gets_0B7_
FN:41,_RNCNvNtNtCs14eHuuW48ek_10actual_cli6config7dotpath3getsa_0B7_
FN:42,_RNCNvNtNtCs14eHuuW48ek_10actual_cli6config7dotpath3getsb_0B7_
FN:47,_RNCNvNtNtCs14eHuuW48ek_10actual_cli6config7dotpath3getsd_0B7_
FN:48,_RNCNvNtNtCs14eHuuW48ek_10actual_cli6config7dotpath3getse_0B7_
FN:70,_RNCNvNtNtCs14eHuuW48ek_10actual_cli6config7dotpath3set0B7_
FN:84,_RNCNvNtNtCs14eHuuW48ek_10actual_cli6config7dotpath3sets0_0B7_
FN:91,_RNCNvNtNtCs14eHuuW48ek_10actual_cli6config7dotpath3sets1_0B7_
FN:99,_RNCNvNtNtCs14eHuuW48ek_10actual_cli6config7dotpath3sets2_0B7_
FN:103,_RNCNvNtNtCs14eHuuW48ek_10actual_cli6config7dotpath3sets3_0B7_
FN:106,_RNCNvNtNtCs14eHuuW48ek_10actual_cli6config7dotpath3sets4_0B7_
FN:77,_RNCNvNtNtCs14eHuuW48ek_10actual_cli6config7dotpath3sets_0B7_
FN:12,_RNCNvNtNtCs23MeGd5xNbL_10actual_cli6config7dotpath3get0B7_
FN:19,_RNCNvNtNtCs23MeGd5xNbL_10actual_cli6config7dotpath3gets0_0B7_
FN:20,_RNCNvNtNtCs23MeGd5xNbL_10actual_cli6config7dotpath3gets1_0B7_
FN:23,_RNCNvNtNtCs23MeGd5xNbL_10actual_cli6config7dotpath3gets2_0B7_
FN:24,_RNCNvNtNtCs23MeGd5xNbL_10actual_cli6config7dotpath3gets3_0B7_
FN:27,_RNCNvNtNtCs23MeGd5xNbL_10actual_cli6config7dotpath3gets4_0B7_
FN:28,_RNCNvNtNtCs23MeGd5xNbL_10actual_cli6config7dotpath3gets5_0B7_
FN:31,_RNCNvNtNtCs23MeGd5xNbL_10actual_cli6config7dotpath3gets6_0B7_
FN:32,_RNCNvNtNtCs23MeGd5xNbL_10actual_cli6config7dotpath3gets7_0B7_
FN:36,_RNCNvNtNtCs23MeGd5xNbL_10actual_cli6config7dotpath3gets8_0B7_
FN:37,_RNCNvNtNtCs23MeGd5xNbL_10actual_cli6config7dotpath3gets9_0B7_
FN:16,_RNCNvNtNtCs23MeGd5xNbL_10actual_cli6config7dotpath3gets_0B7_
FN:41,_RNCNvNtNtCs23MeGd5xNbL_10actual_cli6config7dotpath3getsa_0B7_
FN:42,_RNCNvNtNtCs23MeGd5xNbL_10actual_cli6config7dotpath3getsb_0B7_
FN:47,_RNCNvNtNtCs23MeGd5xNbL_10actual_cli6config7dotpath3getsd_0B7_
FN:48,_RNCNvNtNtCs23MeGd5xNbL_10actual_cli6config7dotpath3getse_0B7_
FN:70,_RNCNvNtNtCs23MeGd5xNbL_10actual_cli6config7dotpath3set0B7_
FN:84,_RNCNvNtNtCs23MeGd5xNbL_10actual_cli6config7dotpath3sets0_0B7_
FN:91,_RNCNvNtNtCs23MeGd5xNbL_10actual_cli6config7dotpath3sets1_0B7_
FN:99,_RNCNvNtNtCs23MeGd5xNbL_10actual_cli6config7dotpath3sets2_0B7_
FN:103,_RNCNvNtNtCs23MeGd5xNbL_10actual_cli6config7dotpath3sets3_0B7_
FN:106,_RNCNvNtNtCs23MeGd5xNbL_10actual_cli6config7dotpath3sets4_0B7_
FN:77,_RNCNvNtNtCs23MeGd5xNbL_10actual_cli6config7dotpath3sets_0B7_
FN:153,_RNvNtNtNtCs23MeGd5xNbL_10actual_cli6config7dotpath5testss_16test_set_api_url
FN:357,_RNvNtNtNtCs23MeGd5xNbL_10actual_cli6config7dotpath5testss_20test_get_unset_model
FN:184,_RNvNtNtNtCs23MeGd5xNbL_10actual_cli6config7dotpath5testss_20test_get_unset_value
FN:257,_RNvNtNtNtCs23MeGd5xNbL_10actual_cli6config7dotpath5testss_20test_set_invalid_f64
FN:168,_RNvNtNtNtCs23MeGd5xNbL_10actual_cli6config7dotpath5testss_21test_get_unknown_path
FN:249,_RNvNtNtNtCs23MeGd5xNbL_10actual_cli6config7dotpath5testss_21test_set_invalid_bool
FN:176,_RNvNtNtNtCs23MeGd5xNbL_10actual_cli6config7dotpath5testss_21test_set_invalid_type
FN:283,_RNvNtNtNtCs23MeGd5xNbL_10actual_cli6config7dotpath5testss_21test_set_unknown_path
FN:192,_RNvNtNtNtCs23MeGd5xNbL_10actual_cli6config7dotpath5testss_22test_set_and_get_model
FN:317,_RNvNtNtNtCs23MeGd5xNbL_10actual_cli6config7dotpath5testss_23test_get_max_budget_usd
FN:161,_RNvNtNtNtCs23MeGd5xNbL_10actual_cli6config7dotpath5testss_23test_set_max_budget_usd
FN:365,_RNvNtNtNtCs23MeGd5xNbL_10actual_cli6config7dotpath5testss_25test_get_unset_batch_size
FN:274,_RNvNtNtNtCs23MeGd5xNbL_10actual_cli6config7dotpath5testss_26test_get_telemetry_enabled
FN:373,_RNvNtNtNtCs23MeGd5xNbL_10actual_cli6config7dotpath5testss_26test_get_unset_concurrency
FN:146,_RNvNtNtNtCs23MeGd5xNbL_10actual_cli6config7dotpath5testss_26test_set_telemetry_enabled
FN:139,_RNvNtNtNtCs23MeGd5xNbL_10actual_cli6config7dotpath5testss_27test_set_and_get_batch_size
FN:199,_RNvNtNtNtCs23MeGd5xNbL_10actual_cli6config7dotpath5testss_28test_set_and_get_concurrency
FN:324,_RNvNtNtNtCs23MeGd5xNbL_10actual_cli6config7dotpath5testss_28test_set_invalid_concurrency
FN:381,_RNvNtNtNtCs23MeGd5xNbL_10actual_cli6config7dotpath5testss_29test_get_unset_max_budget_usd
FN:265,_RNvNtNtNtCs23MeGd5xNbL_10actual_cli6config7dotpath5testss_29test_telemetry_creates_parent
FN:389,_RNvNtNtNtCs23MeGd5xNbL_10actual_cli6config7dotpath5testss_30test_get_unset_include_general
FN:340,_RNvNtNtNtCs23MeGd5xNbL_10actual_cli6config7dotpath5testss_32test_get_unset_telemetry_enabled
FN:206,_RNvNtNtNtCs23MeGd5xNbL_10actual_cli6config7dotpath5testss_32test_set_and_get_include_general
FN:405,_RNvNtNtNtCs23MeGd5xNbL_10actual_cli6config7dotpath5testss_33test_get_unset_exclude_categories
FN:397,_RNvNtNtNtCs23MeGd5xNbL_10actual_cli6config7dotpath5testss_33test_get_unset_include_categories
FN:291,_RNvNtNtNtCs23MeGd5xNbL_10actual_cli6config7dotpath5testss_34test_get_complex_key_rejected_adrs
FN:233,_RNvNtNtNtCs23MeGd5xNbL_10actual_cli6config7dotpath5testss_34test_set_complex_key_rejected_adrs
FN:332,_RNvNtNtNtCs23MeGd5xNbL_10actual_cli6config7dotpath5testss_34test_set_invalid_telemetry_enabled
FN:223,_RNvNtNtNtCs23MeGd5xNbL_10actual_cli6config7dotpath5testss_35test_set_and_get_exclude_categories
FN:213,_RNvNtNtNtCs23MeGd5xNbL_10actual_cli6config7dotpath5testss_35test_set_and_get_include_categories
FN:299,_RNvNtNtNtCs23MeGd5xNbL_10actual_cli6config7dotpath5testss_36test_get_complex_key_cached_analysis
FN:241,_RNvNtNtNtCs23MeGd5xNbL_10actual_cli6config7dotpath5testss_36test_set_complex_key_cached_analysis
FN:348,_RNvNtNtNtCs23MeGd5xNbL_10actual_cli6config7dotpath5testss_41test_get_telemetry_enabled_none_in_struct
FN:307,_RNvNtNtNtCs23MeGd5xNbL_10actual_cli6config7dotpath5testss_43test_set_telemetry_enabled_updates_existing
FN:7,_RNvNtNtCs23MeGd5xNbL_10actual_cli6config7dotpath3get
FN:61,_RNvNtNtCs23MeGd5xNbL_10actual_cli6config7dotpath3set
FNDA:0,_RNvNtNtCs14eHuuW48ek_10actual_cli6config7dotpath3get
FNDA:2,_RNvNtNtCs14eHuuW48ek_10actual_cli6config7dotpath3set
FNDA:0,_RNCNvNtNtCs14eHuuW48ek_10actual_cli6config7dotpath3get0B7_
FNDA:0,_RNCNvNtNtCs14eHuuW48ek_10actual_cli6config7dotpath3gets0_0B7_
FNDA:0,_RNCNvNtNtCs14eHuuW48ek_10actual_cli6config7dotpath3gets1_0B7_
FNDA:0,_RNCNvNtNtCs14eHuuW48ek_10actual_cli6config7dotpath3gets2_0B7_
FNDA:0,_RNCNvNtNtCs14eHuuW48ek_10actual_cli6config7dotpath3gets3_0B7_
FNDA:0,_RNCNvNtNtCs14eHuuW48ek_10actual_cli6config7dotpath3gets4_0B7_
FNDA:0,_RNCNvNtNtCs14eHuuW48ek_10actual_cli6config7dotpath3gets5_0B7_
FNDA:0,_RNCNvNtNtCs14eHuuW48ek_10actual_cli6config7dotpath3gets6_0B7_
FNDA:0,_RNCNvNtNtCs14eHuuW48ek_10actual_cli6config7dotpath3gets7_0B7_
FNDA:0,_RNCNvNtNtCs14eHuuW48ek_10actual_cli6config7dotpath3gets8_0B7_
FNDA:0,_RNCNvNtNtCs14eHuuW48ek_10actual_cli6config7dotpath3gets9_0B7_
FNDA:0,_RNCNvNtNtCs14eHuuW48ek_10actual_cli6config7dotpath3gets_0B7_
FNDA:0,_RNCNvNtNtCs14eHuuW48ek_10actual_cli6config7dotpath3getsa_0B7_
FNDA:0,_RNCNvNtNtCs14eHuuW48ek_10actual_cli6config7dotpath3getsb_0B7_
FNDA:0,_RNCNvNtNtCs14eHuuW48ek_10actual_cli6config7dotpath3getsd_0B7_
FNDA:0,_RNCNvNtNtCs14eHuuW48ek_10actual_cli6config7dotpath3getse_0B7_
FNDA:0,_RNCNvNtNtCs14eHuuW48ek_10actual_cli6config7dotpath3set0B7_
FNDA:0,_RNCNvNtNtCs14eHuuW48ek_10actual_cli6config7dotpath3sets0_0B7_
FNDA:0,_RNCNvNtNtCs14eHuuW48ek_10actual_cli6config7dotpath3sets1_0B7_
FNDA:0,_RNCNvNtNtCs14eHuuW48ek_10actual_cli6config7dotpath3sets2_0B7_
FNDA:0,_RNCNvNtNtCs14eHuuW48ek_10actual_cli6config7dotpath3sets3_0B7_
FNDA:0,_RNCNvNtNtCs14eHuuW48ek_10actual_cli6config7dotpath3sets4_0B7_
FNDA:0,_RNCNvNtNtCs14eHuuW48ek_10actual_cli6config7dotpath3sets_0B7_
FNDA:1,_RNCNvNtNtCs23MeGd5xNbL_10actual_cli6config7dotpath3get0B7_
FNDA:1,_RNCNvNtNtCs23MeGd5xNbL_10actual_cli6config7dotpath3gets0_0B7_
FNDA:1,_RNCNvNtNtCs23MeGd5xNbL_10actual_cli6config7dotpath3gets1_0B7_
FNDA:1,_RNCNvNtNtCs23MeGd5xNbL_10actual_cli6config7dotpath3gets2_0B7_
FNDA:1,_RNCNvNtNtCs23MeGd5xNbL_10actual_cli6config7dotpath3gets3_0B7_
FNDA:1,_RNCNvNtNtCs23MeGd5xNbL_10actual_cli6config7dotpath3gets4_0B7_
FNDA:1,_RNCNvNtNtCs23MeGd5xNbL_10actual_cli6config7dotpath3gets5_0B7_
FNDA:1,_RNCNvNtNtCs23MeGd5xNbL_10actual_cli6config7dotpath3gets6_0B7_
FNDA:1,_RNCNvNtNtCs23MeGd5xNbL_10actual_cli6config7dotpath3gets7_0B7_
FNDA:1,_RNCNvNtNtCs23MeGd5xNbL_10actual_cli6config7dotpath3gets8_0B7_
FNDA:1,_RNCNvNtNtCs23MeGd5xNbL_10actual_cli6config7dotpath3gets9_0B7_
FNDA:1,_RNCNvNtNtCs23MeGd5xNbL_10actual_cli6config7dotpath3gets_0B7_
FNDA:1,_RNCNvNtNtCs23MeGd5xNbL_10actual_cli6config7dotpath3getsa_0B7_
FNDA:1,_RNCNvNtNtCs23MeGd5xNbL_10actual_cli6config7dotpath3getsb_0B7_
FNDA:1,_RNCNvNtNtCs23MeGd5xNbL_10actual_cli6config7dotpath3getsd_0B7_
FNDA:2,_RNCNvNtNtCs23MeGd5xNbL_10actual_cli6config7dotpath3getse_0B7_
FNDA:2,_RNCNvNtNtCs23MeGd5xNbL_10actual_cli6config7dotpath3set0B7_
FNDA:1,_RNCNvNtNtCs23MeGd5xNbL_10actual_cli6config7dotpath3sets0_0B7_
FNDA:1,_RNCNvNtNtCs23MeGd5xNbL_10actual_cli6config7dotpath3sets1_0B7_
FNDA:2,_RNCNvNtNtCs23MeGd5xNbL_10actual_cli6config7dotpath3sets2_0B7_
FNDA:2,_RNCNvNtNtCs23MeGd5xNbL_10actual_cli6config7dotpath3sets3_0B7_
FNDA:1,_RNCNvNtNtCs23MeGd5xNbL_10actual_cli6config7dotpath3sets4_0B7_
FNDA:1,_RNCNvNtNtCs23MeGd5xNbL_10actual_cli6config7dotpath3sets_0B7_
FNDA:1,_RNvNtNtNtCs23MeGd5xNbL_10actual_cli6config7dotpath5testss_16test_set_api_url
FNDA:1,_RNvNtNtNtCs23MeGd5xNbL_10actual_cli6config7dotpath5testss_20test_get_unset_model
FNDA:1,_RNvNtNtNtCs23MeGd5xNbL_10actual_cli6config7dotpath5testss_20test_get_unset_value
FNDA:1,_RNvNtNtNtCs23MeGd5xNbL_10actual_cli6config7dotpath5testss_20test_set_invalid_f64
FNDA:1,_RNvNtNtNtCs23MeGd5xNbL_10actual_cli6config7dotpath5testss_21test_get_unknown_path
FNDA:1,_RNvNtNtNtCs23MeGd5xNbL_10actual_cli6config7dotpath5testss_21test_set_invalid_bool
FNDA:1,_RNvNtNtNtCs23MeGd5xNbL_10actual_cli6config7dotpath5testss_21test_set_invalid_type
FNDA:1,_RNvNtNtNtCs23MeGd5xNbL_10actual_cli6config7dotpath5testss_21test_set_unknown_path
FNDA:1,_RNvNtNtNtCs23MeGd5xNbL_10actual_cli6config7dotpath5testss_22test_set_and_get_model
FNDA:1,_RNvNtNtNtCs23MeGd5xNbL_10actual_cli6config7dotpath5testss_23test_get_max_budget_usd
FNDA:1,_RNvNtNtNtCs23MeGd5xNbL_10actual_cli6config7dotpath5testss_23test_set_max_budget_usd
FNDA:1,_RNvNtNtNtCs23MeGd5xNbL_10actual_cli6config7dotpath5testss_25test_get_unset_batch_size
FNDA:1,_RNvNtNtNtCs23MeGd5xNbL_10actual_cli6config7dotpath5testss_26test_get_telemetry_enabled
FNDA:1,_RNvNtNtNtCs23MeGd5xNbL_10actual_cli6config7dotpath5testss_26test_get_unset_concurrency
FNDA:1,_RNvNtNtNtCs23MeGd5xNbL_10actual_cli6config7dotpath5testss_26test_set_telemetry_enabled
FNDA:1,_RNvNtNtNtCs23MeGd5xNbL_10actual_cli6config7dotpath5testss_27test_set_and_get_batch_size
FNDA:1,_RNvNtNtNtCs23MeGd5xNbL_10actual_cli6config7dotpath5testss_28test_set_and_get_concurrency
FNDA:1,_RNvNtNtNtCs23MeGd5xNbL_10actual_cli6config7dotpath5testss_28test_set_invalid_concurrency
FNDA:1,_RNvNtNtNtCs23MeGd5xNbL_10actual_cli6config7dotpath5testss_29test_get_unset_max_budget_usd
FNDA:1,_RNvNtNtNtCs23MeGd5xNbL_10actual_cli6config7dotpath5testss_29test_telemetry_creates_parent
FNDA:1,_RNvNtNtNtCs23MeGd5xNbL_10actual_cli6config7dotpath5testss_30test_get_unset_include_general
FNDA:1,_RNvNtNtNtCs23MeGd5xNbL_10actual_cli6config7dotpath5testss_32test_get_unset_telemetry_enabled
FNDA:1,_RNvNtNtNtCs23MeGd5xNbL_10actual_cli6config7dotpath5testss_32test_set_and_get_include_general
FNDA:1,_RNvNtNtNtCs23MeGd5xNbL_10actual_cli6config7dotpath5testss_33test_get_unset_exclude_categories
FNDA:1,_RNvNtNtNtCs23MeGd5xNbL_10actual_cli6config7dotpath5testss_33test_get_unset_include_categories
FNDA:1,_RNvNtNtNtCs23MeGd5xNbL_10actual_cli6config7dotpath5testss_34test_get_complex_key_rejected_adrs
FNDA:1,_RNvNtNtNtCs23MeGd5xNbL_10actual_cli6config7dotpath5testss_34test_set_complex_key_rejected_adrs
FNDA:1,_RNvNtNtNtCs23MeGd5xNbL_10actual_cli6config7dotpath5testss_34test_set_invalid_telemetry_enabled
FNDA:1,_RNvNtNtNtCs23MeGd5xNbL_10actual_cli6config7dotpath5testss_35test_set_and_get_exclude_categories
FNDA:1,_RNvNtNtNtCs23MeGd5xNbL_10actual_cli6config7dotpath5testss_35test_set_and_get_include_categories
FNDA:1,_RNvNtNtNtCs23MeGd5xNbL_10actual_cli6config7dotpath5testss_36test_get_complex_key_cached_analysis
FNDA:1,_RNvNtNtNtCs23MeGd5xNbL_10actual_cli6config7dotpath5testss_36test_set_complex_key_cached_analysis
FNDA:1,_RNvNtNtNtCs23MeGd5xNbL_10actual_cli6config7dotpath5testss_41test_get_telemetry_enabled_none_in_struct
FNDA:1,_RNvNtNtNtCs23MeGd5xNbL_10actual_cli6config7dotpath5testss_43test_set_telemetry_enabled_updates_existing
FNDA:22,_RNvNtNtCs23MeGd5xNbL_10actual_cli6config7dotpath3get
FNDA:24,_RNvNtNtCs23MeGd5xNbL_10actual_cli6config7dotpath3set
FNF:59
FNH:59
DA:7,22
DA:8,22
DA:9,22
DA:10,2
DA:11,2
DA:12,2
DA:13,20
DA:14,2
DA:15,2
DA:16,2
DA:17,18
DA:18,2
DA:19,2
DA:20,2
DA:21,16
DA:22,2
DA:23,2
DA:24,2
DA:25,14
DA:26,2
DA:27,2
DA:28,2
DA:29,12
DA:30,2
DA:31,2
DA:32,2
DA:33,10
DA:34,2
DA:35,2
DA:36,2
DA:37,2
DA:38,8
DA:39,2
DA:40,2
DA:41,2
DA:42,2
DA:43,6
DA:44,3
DA:45,3
DA:46,3
DA:47,3
DA:48,3
DA:49,3
DA:50,2
DA:51,2
DA:52,1
DA:53,1
DA:54,1
DA:56,22
DA:61,26
DA:62,26
DA:63,26
DA:64,1
DA:65,1
DA:66,25
DA:67,2
DA:68,2
DA:69,23
DA:70,7
DA:71,2
DA:72,2
DA:73,2
DA:74,2
DA:76,16
DA:77,2
DA:78,1
DA:79,1
DA:80,1
DA:81,1
DA:83,14
DA:84,2
DA:85,1
DA:86,1
DA:87,1
DA:88,1
DA:90,12
DA:91,2
DA:92,1
DA:93,1
DA:94,1
DA:95,1
DA:97,10
DA:98,1
DA:99,2
DA:101,9
DA:102,1
DA:103,2
DA:105,8
DA:106,4
DA:107,1
DA:108,1
DA:109,1
DA:110,1
DA:111,3
DA:112,1
DA:113,2
DA:114,2
DA:115,2
DA:116,2
DA:117,2
DA:120,4
DA:121,2
DA:122,2
DA:123,2
DA:126,2
DA:127,2
DA:128,2
DA:131,16
DA:132,26
DA:139,1
DA:140,1
DA:141,1
DA:142,1
DA:143,1
DA:146,1
DA:147,1
DA:148,1
DA:149,1
DA:150,1
DA:153,1
DA:154,1
DA:155,1
DA:156,1
DA:157,1
DA:158,1
DA:161,1
DA:162,1
DA:163,1
DA:164,1
DA:165,1
DA:168,1
DA:169,1
DA:170,1
DA:171,1
DA:172,1
DA:173,1
DA:176,1
DA:177,1
DA:178,1
DA:179,1
DA:180,1
DA:181,1
DA:184,1
DA:185,1
DA:186,1
DA:187,1
DA:188,1
DA:189,1
DA:192,1
DA:193,1
DA:194,1
DA:195,1
DA:196,1
DA:199,1
DA:200,1
DA:201,1
DA:202,1
DA:203,1
DA:206,1
DA:207,1
DA:208,1
DA:209,1
DA:210,1
DA:213,1
DA:214,1
DA:215,1
DA:216,1
DA:217,1
DA:220,1
DA:223,1
DA:224,1
DA:225,1
DA:226,1
DA:227,1
DA:230,1
DA:233,1
DA:234,1
DA:235,1
DA:236,1
DA:237,1
DA:238,1
DA:241,1
DA:242,1
DA:243,1
DA:244,1
DA:245,1
DA:246,1
DA:249,1
DA:250,1
DA:251,1
DA:252,1
DA:253,1
DA:254,1
DA:257,1
DA:258,1
DA:259,1
DA:260,1
DA:261,1
DA:262,1
DA:265,1
DA:266,1
DA:267,1
DA:268,1
DA:269,1
DA:270,1
DA:271,1
DA:274,1
DA:275,1
DA:276,1
DA:277,1
DA:278,1
DA:279,1
DA:280,1
DA:283,1
DA:284,1
DA:285,1
DA:286,1
DA:287,1
DA:288,1
DA:291,1
DA:292,1
DA:293,1
DA:294,1
DA:295,1
DA:296,1
DA:299,1
DA:300,1
DA:301,1
DA:302,1
DA:303,1
DA:304,1
DA:307,1
DA:308,1
DA:309,1
DA:310,1
DA:311,1
DA:312,1
DA:313,1
DA:314,1
DA:317,1
DA:318,1
DA:319,1
DA:320,1
DA:321,1
DA:324,1
DA:325,1
DA:326,1
DA:327,1
DA:328,1
DA:329,1
DA:332,1
DA:333,1
DA:334,1
DA:335,1
DA:336,1
DA:337,1
DA:340,1
DA:341,1
DA:342,1
DA:343,1
DA:344,1
DA:345,1
DA:348,1
DA:349,1
DA:350,1
DA:351,1
DA:352,1
DA:353,1
DA:354,1
DA:357,1
DA:358,1
DA:359,1
DA:360,1
DA:361,1
DA:362,1
DA:365,1
DA:366,1
DA:367,1
DA:368,1
DA:369,1
DA:370,1
DA:373,1
DA:374,1
DA:375,1
DA:376,1
DA:377,1
DA:378,1
DA:381,1
DA:382,1
DA:383,1
DA:384,1
DA:385,1
DA:386,1
DA:389,1
DA:390,1
DA:391,1
DA:392,1
DA:393,1
DA:394,1
DA:397,1
DA:398,1
DA:399,1
DA:400,1
DA:401,1
DA:402,1
DA:405,1
DA:406,1
DA:407,1
DA:408,1
DA:409,1
DA:410,1
BRF:0
BRH:0
LF:339
LH:339
end_of_record
SF:/Users/poile/repos/actualai/actual-cli/.worktrees/2u6.4/src/config/paths.rs
FN:16,_RNvNtNtCs14eHuuW48ek_10actual_cli6config5paths10config_dir
FN:41,_RNvNtNtCs14eHuuW48ek_10actual_cli6config5paths11config_path
FN:20,_RNvNtNtCs14eHuuW48ek_10actual_cli6config5paths20config_dir_with_home
FN:103,_RNvNtNtCs14eHuuW48ek_10actual_cli6config5paths22set_config_permissions
FN:52,_RNvNtNtCs14eHuuW48ek_10actual_cli6config5paths4load
FN:78,_RNvNtNtCs14eHuuW48ek_10actual_cli6config5paths4save
FN:86,_RNvNtNtCs14eHuuW48ek_10actual_cli6config5paths7save_to
FN:60,_RNvNtNtCs14eHuuW48ek_10actual_cli6config5paths9load_from
FN:6,_RINvNtNtCs14eHuuW48ek_10actual_cli6config5paths12config_errorNtNtCs7fnLZwG9eJV_5alloc6string6StringEB6_
FN:6,_RINvNtNtCs14eHuuW48ek_10actual_cli6config5paths12config_errorReEB6_
FN:25,_RNCNvNtNtCs14eHuuW48ek_10actual_cli6config5paths20config_dir_with_home0B7_
FN:33,_RNCNvNtNtCs14eHuuW48ek_10actual_cli6config5paths20config_dir_with_homes0_0B7_
FN:34,_RNCNvNtNtCs14eHuuW48ek_10actual_cli6config5paths20config_dir_with_homes1_0B7_
FN:26,_RNCNvNtNtCs14eHuuW48ek_10actual_cli6config5paths20config_dir_with_homes_0B7_
FN:107,_RNCNvNtNtCs14eHuuW48ek_10actual_cli6config5paths22set_config_permissions0B7_
FN:89,_RNCNvNtNtCs14eHuuW48ek_10actual_cli6config5paths7save_to0B7_
FN:96,_RNCNvNtNtCs14eHuuW48ek_10actual_cli6config5paths7save_tos_0B7_
FN:68,_RNCNvNtNtCs14eHuuW48ek_10actual_cli6config5paths9load_from0B7_
FN:71,_RNCNvNtNtCs14eHuuW48ek_10actual_cli6config5paths9load_froms_0B7_
FN:122,_RNvNtNtNtCs23MeGd5xNbL_10actual_cli6config5paths5tests14clear_env_vars
FN:131,_RNvNtNtNtCs23MeGd5xNbL_10actual_cli6config5paths5tests15restore_env_var
FN:139,_RNvNtNtNtCs23MeGd5xNbL_10actual_cli6config5paths5tests16restore_env_vars
FN:245,_RNvNtNtNtCs23MeGd5xNbL_10actual_cli6config5paths5testss_23test_config_dir_default
FN:285,_RNvNtNtNtCs23MeGd5xNbL_10actual_cli6config5paths5testss_24test_config_path_default
FN:377,_RNvNtNtNtCs23MeGd5xNbL_10actual_cli6config5paths5testss_25test_save_to_invalid_path
FN:212,_RNvNtNtNtCs23MeGd5xNbL_10actual_cli6config5paths5testss_26test_file_permissions_unix
FN:200,_RNvNtNtNtCs23MeGd5xNbL_10actual_cli6config5paths5testss_27test_load_from_invalid_yaml
FN:226,_RNvNtNtNtCs23MeGd5xNbL_10actual_cli6config5paths5testss_29test_save_then_load_roundtrip
FN:311,_RNvNtNtNtCs23MeGd5xNbL_10actual_cli6config5paths5testss_30test_load_and_save_via_env_var
FN:186,_RNvNtNtNtCs23MeGd5xNbL_10actual_cli6config5paths5testss_31test_load_reads_existing_config
FN:391,_RNvNtNtNtCs23MeGd5xNbL_10actual_cli6config5paths5testss_31test_save_to_readonly_directory
FN:499,_RNvNtNtNtCs23MeGd5xNbL_10actual_cli6config5paths5testss_32test_save_to_path_without_parent
FN:474,_RNvNtNtNtCs23MeGd5xNbL_10actual_cli6config5paths5testss_33test_config_dir_no_home_directory
FN:487,_RNvNtNtNtCs23MeGd5xNbL_10actual_cli6config5paths5testss_34test_config_dir_with_home_provided
FN:175,_RNvNtNtNtCs23MeGd5xNbL_10actual_cli6config5paths5testss_34test_load_creates_file_when_absent
FN:362,_RNvNtNtNtCs23MeGd5xNbL_10actual_cli6config5paths5testss_35test_load_from_unreadable_directory
FN:514,_RNvNtNtNtCs23MeGd5xNbL_10actual_cli6config5paths5testss_35test_set_config_permissions_success
FN:460,_RNvNtNtNtCs23MeGd5xNbL_10actual_cli6config5paths5testss_36test_config_path_with_config_dir_env
FN:335,_RNvNtNtNtCs23MeGd5xNbL_10actual_cli6config5paths5testss_36test_save_creates_nested_directories
FN:256,_RNvNtNtNtCs23MeGd5xNbL_10actual_cli6config5paths5testss_38test_config_dir_with_actual_config_env
FN:296,_RNvNtNtNtCs23MeGd5xNbL_10actual_cli6config5paths5testss_39test_config_path_with_actual_config_env
FN:145,_RNvNtNtNtCs23MeGd5xNbL_10actual_cli6config5paths5testss_39test_restore_env_vars_with_saved_values
FN:428,_RNvNtNtNtCs23MeGd5xNbL_10actual_cli6config5paths5testss_42test_config_dir_actual_config_empty_string
FN:271,_RNvNtNtNtCs23MeGd5xNbL_10actual_cli6config5paths5testss_42test_config_dir_with_actual_config_dir_env
FN:415,_RNvNtNtNtCs23MeGd5xNbL_10actual_cli6config5paths5testss_43test_config_dir_actual_config_bare_filename
FN:443,_RNvNtNtNtCs23MeGd5xNbL_10actual_cli6config5paths5testss_44test_load_via_env_var_absent_creates_default
FN:529,_RNvNtNtNtCs23MeGd5xNbL_10actual_cli6config5paths5testss_44test_set_config_permissions_nonexistent_file
FN:344,_RNvNtNtNtCs23MeGd5xNbL_10actual_cli6config5paths5testss_62test_config_dir_actual_config_takes_precedence_over_config_dir
FN:6,_RINvNtNtCs23MeGd5xNbL_10actual_cli6config5paths12config_errorNtNtCs7fnLZwG9eJV_5alloc6string6StringEB6_
FN:6,_RINvNtNtCs23MeGd5xNbL_10actual_cli6config5paths12config_errorReEB6_
FN:25,_RNCNvNtNtCs23MeGd5xNbL_10actual_cli6config5paths20config_dir_with_home0B7_
FN:33,_RNCNvNtNtCs23MeGd5xNbL_10actual_cli6config5paths20config_dir_with_homes0_0B7_
FN:34,_RNCNvNtNtCs23MeGd5xNbL_10actual_cli6config5paths20config_dir_with_homes1_0B7_
FN:26,_RNCNvNtNtCs23MeGd5xNbL_10actual_cli6config5paths20config_dir_with_homes_0B7_
FN:107,_RNCNvNtNtCs23MeGd5xNbL_10actual_cli6config5paths22set_config_permissions0B7_
FN:89,_RNCNvNtNtCs23MeGd5xNbL_10actual_cli6config5paths7save_to0B7_
FN:96,_RNCNvNtNtCs23MeGd5xNbL_10actual_cli6config5paths7save_tos_0B7_
FN:68,_RNCNvNtNtCs23MeGd5xNbL_10actual_cli6config5paths9load_from0B7_
FN:71,_RNCNvNtNtCs23MeGd5xNbL_10actual_cli6config5paths9load_froms_0B7_
FN:16,_RNvNtNtCs23MeGd5xNbL_10actual_cli6config5paths10config_dir
FN:41,_RNvNtNtCs23MeGd5xNbL_10actual_cli6config5paths11config_path
FN:20,_RNvNtNtCs23MeGd5xNbL_10actual_cli6config5paths20config_dir_with_home
FN:103,_RNvNtNtCs23MeGd5xNbL_10actual_cli6config5paths22set_config_permissions
FN:52,_RNvNtNtCs23MeGd5xNbL_10actual_cli6config5paths4load
FN:78,_RNvNtNtCs23MeGd5xNbL_10actual_cli6config5paths4save
FN:86,_RNvNtNtCs23MeGd5xNbL_10actual_cli6config5paths7save_to
FN:60,_RNvNtNtCs23MeGd5xNbL_10actual_cli6config5paths9load_from
FNDA:0,_RNvNtNtCs14eHuuW48ek_10actual_cli6config5paths10config_dir
FNDA:44,_RNvNtNtCs14eHuuW48ek_10actual_cli6config5paths11config_path
FNDA:0,_RNvNtNtCs14eHuuW48ek_10actual_cli6config5paths20config_dir_with_home
FNDA:38,_RNvNtNtCs14eHuuW48ek_10actual_cli6config5paths22set_config_permissions
FNDA:2,_RNvNtNtCs14eHuuW48ek_10actual_cli6config5paths4load
FNDA:0,_RNvNtNtCs14eHuuW48ek_10actual_cli6config5paths4save
FNDA:38,_RNvNtNtCs14eHuuW48ek_10actual_cli6config5paths7save_to
FNDA:39,_RNvNtNtCs14eHuuW48ek_10actual_cli6config5paths9load_from
FNDA:0,_RINvNtNtCs14eHuuW48ek_10actual_cli6config5paths12config_errorNtNtCs7fnLZwG9eJV_5alloc6string6StringEB6_
FNDA:0,_RINvNtNtCs14eHuuW48ek_10actual_cli6config5paths12config_errorReEB6_
FNDA:0,_RNCNvNtNtCs14eHuuW48ek_10actual_cli6config5paths20config_dir_with_home0B7_
FNDA:0,_RNCNvNtNtCs14eHuuW48ek_10actual_cli6config5paths20config_dir_with_homes0_0B7_
FNDA:0,_RNCNvNtNtCs14eHuuW48ek_10actual_cli6config5paths20config_dir_with_homes1_0B7_
FNDA:0,_RNCNvNtNtCs14eHuuW48ek_10actual_cli6config5paths20config_dir_with_homes_0B7_
FNDA:0,_RNCNvNtNtCs14eHuuW48ek_10actual_cli6config5paths22set_config_permissions0B7_
FNDA:0,_RNCNvNtNtCs14eHuuW48ek_10actual_cli6config5paths7save_to0B7_
FNDA:0,_RNCNvNtNtCs14eHuuW48ek_10actual_cli6config5paths7save_tos_0B7_
FNDA:0,_RNCNvNtNtCs14eHuuW48ek_10actual_cli6config5paths9load_from0B7_
FNDA:0,_RNCNvNtNtCs14eHuuW48ek_10actual_cli6config5paths9load_froms_0B7_
FNDA:14,_RNvNtNtNtCs23MeGd5xNbL_10actual_cli6config5paths5tests14clear_env_vars
FNDA:28,_RNvNtNtNtCs23MeGd5xNbL_10actual_cli6config5paths5tests15restore_env_var
FNDA:14,_RNvNtNtNtCs23MeGd5xNbL_10actual_cli6config5paths5tests16restore_env_vars
FNDA:1,_RNvNtNtNtCs23MeGd5xNbL_10actual_cli6config5paths5testss_23test_config_dir_default
FNDA:1,_RNvNtNtNtCs23MeGd5xNbL_10actual_cli6config5paths5testss_24test_config_path_default
FNDA:1,_RNvNtNtNtCs23MeGd5xNbL_10actual_cli6config5paths5testss_25test_save_to_invalid_path
FNDA:1,_RNvNtNtNtCs23MeGd5xNbL_10actual_cli6config5paths5testss_26test_file_permissions_unix
FNDA:1,_RNvNtNtNtCs23MeGd5xNbL_10actual_cli6config5paths5testss_27test_load_from_invalid_yaml
FNDA:1,_RNvNtNtNtCs23MeGd5xNbL_10actual_cli6config5paths5testss_29test_save_then_load_roundtrip
FNDA:1,_RNvNtNtNtCs23MeGd5xNbL_10actual_cli6config5paths5testss_30test_load_and_save_via_env_var
FNDA:1,_RNvNtNtNtCs23MeGd5xNbL_10actual_cli6config5paths5testss_31test_load_reads_existing_config
FNDA:1,_RNvNtNtNtCs23MeGd5xNbL_10actual_cli6config5paths5testss_31test_save_to_readonly_directory
FNDA:1,_RNvNtNtNtCs23MeGd5xNbL_10actual_cli6config5paths5testss_32test_save_to_path_without_parent
FNDA:1,_RNvNtNtNtCs23MeGd5xNbL_10actual_cli6config5paths5testss_33test_config_dir_no_home_directory
FNDA:1,_RNvNtNtNtCs23MeGd5xNbL_10actual_cli6config5paths5testss_34test_config_dir_with_home_provided
FNDA:1,_RNvNtNtNtCs23MeGd5xNbL_10actual_cli6config5paths5testss_34test_load_creates_file_when_absent
FNDA:1,_RNvNtNtNtCs23MeGd5xNbL_10actual_cli6config5paths5testss_35test_load_from_unreadable_directory
FNDA:1,_RNvNtNtNtCs23MeGd5xNbL_10actual_cli6config5paths5testss_35test_set_config_permissions_success
FNDA:1,_RNvNtNtNtCs23MeGd5xNbL_10actual_cli6config5paths5testss_36test_config_path_with_config_dir_env
FNDA:1,_RNvNtNtNtCs23MeGd5xNbL_10actual_cli6config5paths5testss_36test_save_creates_nested_directories
FNDA:1,_RNvNtNtNtCs23MeGd5xNbL_10actual_cli6config5paths5testss_38test_config_dir_with_actual_config_env
FNDA:1,_RNvNtNtNtCs23MeGd5xNbL_10actual_cli6config5paths5testss_39test_config_path_with_actual_config_env
FNDA:1,_RNvNtNtNtCs23MeGd5xNbL_10actual_cli6config5paths5testss_39test_restore_env_vars_with_saved_values
FNDA:1,_RNvNtNtNtCs23MeGd5xNbL_10actual_cli6config5paths5testss_42test_config_dir_actual_config_empty_string
FNDA:1,_RNvNtNtNtCs23MeGd5xNbL_10actual_cli6config5paths5testss_42test_config_dir_with_actual_config_dir_env
FNDA:1,_RNvNtNtNtCs23MeGd5xNbL_10actual_cli6config5paths5testss_43test_config_dir_actual_config_bare_filename
FNDA:1,_RNvNtNtNtCs23MeGd5xNbL_10actual_cli6config5paths5testss_44test_load_via_env_var_absent_creates_default
FNDA:1,_RNvNtNtNtCs23MeGd5xNbL_10actual_cli6config5paths5testss_44test_set_config_permissions_nonexistent_file
FNDA:1,_RNvNtNtNtCs23MeGd5xNbL_10actual_cli6config5paths5testss_62test_config_dir_actual_config_takes_precedence_over_config_dir
FNDA:16,_RINvNtNtCs23MeGd5xNbL_10actual_cli6config5paths12config_errorNtNtCs7fnLZwG9eJV_5alloc6string6StringEB6_
FNDA:2,_RINvNtNtCs23MeGd5xNbL_10actual_cli6config5paths12config_errorReEB6_
FNDA:3,_RNCNvNtNtCs23MeGd5xNbL_10actual_cli6config5paths20config_dir_with_home0B7_
FNDA:3,_RNCNvNtNtCs23MeGd5xNbL_10actual_cli6config5paths20config_dir_with_homes0_0B7_
FNDA:1,_RNCNvNtNtCs23MeGd5xNbL_10actual_cli6config5paths20config_dir_with_homes1_0B7_
FNDA:1,_RNCNvNtNtCs23MeGd5xNbL_10actual_cli6config5paths20config_dir_with_homes_0B7_
FNDA:1,_RNCNvNtNtCs23MeGd5xNbL_10actual_cli6config5paths22set_config_permissions0B7_
FNDA:7,_RNCNvNtNtCs23MeGd5xNbL_10actual_cli6config5paths7save_to0B7_
FNDA:5,_RNCNvNtNtCs23MeGd5xNbL_10actual_cli6config5paths7save_tos_0B7_
FNDA:1,_RNCNvNtNtCs23MeGd5xNbL_10actual_cli6config5paths9load_from0B7_
FNDA:2,_RNCNvNtNtCs23MeGd5xNbL_10actual_cli6config5paths9load_froms_0B7_
FNDA:8,_RNvNtNtCs23MeGd5xNbL_10actual_cli6config5paths10config_dir
FNDA:28,_RNvNtNtCs23MeGd5xNbL_10actual_cli6config5paths11config_path
FNDA:10,_RNvNtNtCs23MeGd5xNbL_10actual_cli6config5paths20config_dir_with_home
FNDA:47,_RNvNtNtCs23MeGd5xNbL_10actual_cli6config5paths22set_config_permissions
FNDA:7,_RNvNtNtCs23MeGd5xNbL_10actual_cli6config5paths4load
FNDA:1,_RNvNtNtCs23MeGd5xNbL_10actual_cli6config5paths4save
FNDA:57,_RNvNtNtCs23MeGd5xNbL_10actual_cli6config5paths7save_to
FNDA:54,_RNvNtNtCs23MeGd5xNbL_10actual_cli6config5paths9load_from
FNF:47
FNH:47
DA:6,18
DA:7,18
DA:8,18
DA:16,8
DA:17,8
DA:18,8
DA:20,10
DA:21,10
DA:22,4
DA:23,4
DA:24,4
DA:25,4
DA:26,4
DA:27,6
DA:29,6
DA:30,2
DA:31,4
DA:33,4
DA:34,4
DA:35,10
DA:41,72
DA:42,72
DA:43,70
DA:44,2
DA:45,2
DA:46,72
DA:52,9
DA:53,9
DA:54,9
DA:60,93
DA:61,93
DA:62,65
DA:63,65
DA:64,58
DA:65,28
DA:67,28
DA:68,28
DA:70,27
DA:71,27
DA:72,93
DA:78,1
DA:79,1
DA:80,1
DA:86,95
DA:87,95
DA:88,93
DA:89,93
DA:90,2
DA:94,88
DA:95,88
DA:96,88
DA:97,83
DA:99,83
DA:100,95
DA:103,85
DA:105,85
DA:106,85
DA:107,85
DA:108,85
DA:122,14
DA:123,14
DA:124,14
DA:125,14
DA:126,14
DA:127,14
DA:128,14
DA:131,28
DA:132,28
DA:133,2
DA:134,26
DA:136,28
DA:139,14
DA:140,14
DA:141,14
DA:142,14
DA:145,1
DA:146,1
DA:148,1
DA:149,1
DA:151,1
DA:152,1
DA:153,1
DA:155,1
DA:156,1
DA:159,1
DA:160,1
DA:161,1
DA:164,1
DA:165,1
DA:170,1
DA:171,1
DA:172,1
DA:175,1
DA:176,1
DA:177,1
DA:178,1
DA:180,1
DA:181,1
DA:182,1
DA:183,1
DA:186,1
DA:187,1
DA:188,1
DA:190,1
DA:191,1
DA:193,1
DA:194,1
DA:195,1
DA:196,1
DA:197,1
DA:200,1
DA:201,1
DA:202,1
DA:204,1
DA:206,1
DA:207,1
DA:208,1
DA:212,1
DA:215,1
DA:216,1
DA:218,1
DA:220,1
DA:221,1
DA:222,1
DA:223,1
DA:226,1
DA:227,1
DA:228,1
DA:230,1
DA:231,1
DA:232,1
DA:233,1
DA:234,1
DA:235,1
DA:236,1
DA:237,1
DA:239,1
DA:240,1
DA:241,1
DA:242,1
DA:245,1
DA:246,1
DA:247,1
DA:249,1
DA:250,1
DA:252,1
DA:253,1
DA:256,1
DA:257,1
DA:258,1
DA:260,1
DA:261,1
DA:262,1
DA:264,1
DA:265,1
DA:267,1
DA:268,1
DA:271,1
DA:272,1
DA:273,1
DA:275,1
DA:276,1
DA:278,1
DA:279,1
DA:281,1
DA:282,1
DA:285,1
DA:286,1
DA:287,1
DA:289,1
DA:290,1
DA:292,1
DA:293,1
DA:296,1
DA:297,1
DA:298,1
DA:300,1
DA:301,1
DA:302,1
DA:304,1
DA:305,1
DA:307,1
DA:308,1
DA:311,1
DA:312,1
DA:313,1
DA:315,1
DA:316,1
DA:317,1
DA:320,1
DA:321,1
DA:322,1
DA:323,1
DA:324,1
DA:325,1
DA:328,1
DA:329,1
DA:331,1
DA:332,1
DA:335,1
DA:336,1
DA:337,1
DA:339,1
DA:340,1
DA:341,1
DA:344,1
DA:345,1
DA:346,1
DA:348,1
DA:349,1
DA:350,1
DA:351,1
DA:352,1
DA:355,1
DA:356,1
DA:358,1
DA:359,1
DA:362,1
DA:367,1
DA:368,1
DA:369,1
DA:371,1
DA:373,1
DA:374,1
DA:377,1
DA:381,1
DA:382,1
DA:383,1
DA:384,1
DA:385,1
DA:387,1
DA:391,1
DA:394,1
DA:395,1
DA:396,1
DA:399,1
DA:400,1
DA:402,1
DA:404,1
DA:406,1
DA:407,1
DA:410,1
DA:411,1
DA:412,1
DA:415,1
DA:417,1
DA:418,1
DA:420,1
DA:421,1
DA:422,1
DA:424,1
DA:425,1
DA:428,1
DA:430,1
DA:431,1
DA:433,1
DA:434,1
DA:435,1
DA:436,1
DA:437,1
DA:439,1
DA:440,1
DA:443,1
DA:444,1
DA:445,1
DA:447,1
DA:448,1
DA:449,1
DA:452,1
DA:453,1
DA:454,1
DA:456,1
DA:457,1
DA:460,1
DA:461,1
DA:462,1
DA:464,1
DA:465,1
DA:467,1
DA:468,1
DA:470,1
DA:471,1
DA:474,1
DA:475,1
DA:476,1
DA:478,1
DA:479,1
DA:480,1
DA:481,1
DA:483,1
DA:484,1
DA:487,1
DA:488,1
DA:489,1
DA:491,1
DA:492,1
DA:493,1
DA:495,1
DA:496,1
DA:499,1
DA:504,1
DA:505,1
DA:507,1
DA:508,1
DA:509,1
DA:510,1
DA:514,1
DA:517,1
DA:518,1
DA:519,1
DA:521,1
DA:523,1
DA:524,1
DA:525,1
DA:529,1
DA:530,1
DA:531,1
DA:533,1
DA:534,1
DA:535,1
DA:536,1
DA:537,1
BRF:0
BRH:0
LF:331
LH:331
end_of_record
SF:/Users/poile/repos/actualai/actual-cli/.worktrees/2u6.4/src/config/rejections.rs
FN:6,_RNvNtNtCs14eHuuW48ek_10actual_cli6config10rejections13add_rejection
FN:15,_RNvNtNtCs14eHuuW48ek_10actual_cli6config10rejections14get_rejections
FN:25,_RNvNtNtCs14eHuuW48ek_10actual_cli6config10rejections16clear_rejections
FN:19,_RNCNvNtNtCs14eHuuW48ek_10actual_cli6config10rejections14get_rejections0B7_
FN:19,_RNCNvNtNtCs23MeGd5xNbL_10actual_cli6config10rejections14get_rejections0B7_
FN:6,_RNvNtNtCs23MeGd5xNbL_10actual_cli6config10rejections13add_rejection
FN:15,_RNvNtNtCs23MeGd5xNbL_10actual_cli6config10rejections14get_rejections
FN:25,_RNvNtNtCs23MeGd5xNbL_10actual_cli6config10rejections16clear_rejections
FN:63,_RNvNtNtNtCs23MeGd5xNbL_10actual_cli6config10rejections5testss_21test_clear_rejections
FN:39,_RNvNtNtNtCs23MeGd5xNbL_10actual_cli6config10rejections5testss_33test_add_and_get_three_rejections
FN:115,_RNvNtNtNtCs23MeGd5xNbL_10actual_cli6config10rejections5testss_36test_clear_rejections_noop_when_none
FN:101,_RNvNtNtNtCs23MeGd5xNbL_10actual_cli6config10rejections5testss_40test_clear_rejections_leaves_other_repos
FN:53,_RNvNtNtNtCs23MeGd5xNbL_10actual_cli6config10rejections5testss_42test_add_duplicate_rejection_no_duplicates
FN:94,_RNvNtNtNtCs23MeGd5xNbL_10actual_cli6config10rejections5testss_46test_get_rejections_unknown_repo_returns_empty
FN:76,_RNvNtNtNtCs23MeGd5xNbL_10actual_cli6config10rejections5testss_47test_rejections_persist_through_save_load_cycle
FNDA:0,_RNvNtNtCs14eHuuW48ek_10actual_cli6config10rejections13add_rejection
FNDA:31,_RNvNtNtCs14eHuuW48ek_10actual_cli6config10rejections14get_rejections
FNDA:1,_RNvNtNtCs14eHuuW48ek_10actual_cli6config10rejections16clear_rejections
FNDA:1,_RNCNvNtNtCs14eHuuW48ek_10actual_cli6config10rejections14get_rejections0B7_
FNDA:7,_RNCNvNtNtCs23MeGd5xNbL_10actual_cli6config10rejections14get_rejections0B7_
FNDA:13,_RNvNtNtCs23MeGd5xNbL_10actual_cli6config10rejections13add_rejection
FNDA:23,_RNvNtNtCs23MeGd5xNbL_10actual_cli6config10rejections14get_rejections
FNDA:4,_RNvNtNtCs23MeGd5xNbL_10actual_cli6config10rejections16clear_rejections
FNDA:1,_RNvNtNtNtCs23MeGd5xNbL_10actual_cli6config10rejections5testss_21test_clear_rejections
FNDA:1,_RNvNtNtNtCs23MeGd5xNbL_10actual_cli6config10rejections5testss_33test_add_and_get_three_rejections
FNDA:1,_RNvNtNtNtCs23MeGd5xNbL_10actual_cli6config10rejections5testss_36test_clear_rejections_noop_when_none
FNDA:1,_RNvNtNtNtCs23MeGd5xNbL_10actual_cli6config10rejections5testss_40test_clear_rejections_leaves_other_repos
FNDA:1,_RNvNtNtNtCs23MeGd5xNbL_10actual_cli6config10rejections5testss_42test_add_duplicate_rejection_no_duplicates
FNDA:1,_RNvNtNtNtCs23MeGd5xNbL_10actual_cli6config10rejections5testss_46test_get_rejections_unknown_repo_returns_empty
FNDA:1,_RNvNtNtNtCs23MeGd5xNbL_10actual_cli6config10rejections5testss_47test_rejections_persist_through_save_load_cycle
FNF:11
FNH:11
DA:6,13
DA:7,13
DA:8,13
DA:9,13
DA:10,12
DA:11,12
DA:12,13
DA:15,54
DA:16,54
DA:17,54
DA:18,54
DA:19,54
DA:20,54
DA:21,54
DA:22,54
DA:25,5
DA:26,5
DA:27,4
DA:28,4
DA:29,3
DA:30,3
DA:31,1
DA:32,5
DA:39,1
DA:40,1
DA:41,1
DA:42,1
DA:43,1
DA:45,1
DA:46,1
DA:47,1
DA:48,1
DA:49,1
DA:50,1
DA:53,1
DA:54,1
DA:55,1
DA:56,1
DA:58,1
DA:59,1
DA:60,1
DA:63,1
DA:64,1
DA:65,1
DA:66,1
DA:68,1
DA:70,1
DA:71,1
DA:72,1
DA:73,1
DA:76,1
DA:77,1
DA:78,1
DA:79,1
DA:81,1
DA:82,1
DA:84,1
DA:85,1
DA:87,1
DA:88,1
DA:89,1
DA:90,1
DA:91,1
DA:94,1
DA:95,1
DA:96,1
DA:97,1
DA:98,1
DA:101,1
DA:102,1
DA:103,1
DA:104,1
DA:106,1
DA:108,1
DA:109,1
DA:111,1
DA:112,1
DA:115,1
DA:116,1
DA:117,1
DA:119,1
DA:121,1
DA:122,1
BRF:0
BRH:0
LF:84
LH:84
end_of_record
SF:/Users/poile/repos/actualai/actual-cli/.worktrees/2u6.4/src/config/types.rs
FN:86,_RNvNtNtNtCs23MeGd5xNbL_10actual_cli6config5types5testss_27test_round_trip_with_values
FN:131,_RNvNtNtNtCs23MeGd5xNbL_10actual_cli6config5types5testss_36test_round_trip_with_cached_analysis
FN:124,_RNvNtNtNtCs23MeGd5xNbL_10actual_cli6config5types5testss_39test_empty_yaml_deserializes_to_default
FN:116,_RNvNtNtNtCs23MeGd5xNbL_10actual_cli6config5types5testss_44test_default_config_serializes_to_valid_yaml
FN:149,_RNvNtNtNtCs23MeGd5xNbL_10actual_cli6config5types5testss_44test_partial_yaml_deserializes_with_defaults
FNDA:1,_RNvNtNtNtCs23MeGd5xNbL_10actual_cli6config5types5testss_27test_round_trip_with_values
FNDA:1,_RNvNtNtNtCs23MeGd5xNbL_10actual_cli6config5types5testss_36test_round_trip_with_cached_analysis
FNDA:1,_RNvNtNtNtCs23MeGd5xNbL_10actual_cli6config5types5testss_39test_empty_yaml_deserializes_to_default
FNDA:1,_RNvNtNtNtCs23MeGd5xNbL_10actual_cli6config5types5testss_44test_default_config_serializes_to_valid_yaml
FNDA:1,_RNvNtNtNtCs23MeGd5xNbL_10actual_cli6config5types5testss_44test_partial_yaml_deserializes_with_defaults
FNF:5
FNH:5
DA:86,1
DA:87,1
DA:88,1
DA:89,1
DA:90,1
DA:93,1
DA:94,1
DA:95,1
DA:96,1
DA:97,1
DA:98,1
DA:99,1
DA:100,1
DA:101,1
DA:102,1
DA:103,1
DA:104,1
DA:105,1
DA:106,1
DA:107,1
DA:109,1
DA:110,1
DA:111,1
DA:112,1
DA:116,1
DA:117,1
DA:118,1
DA:119,1
DA:120,1
DA:124,1
DA:125,1
DA:126,1
DA:127,1
DA:131,1
DA:132,1
DA:133,1
DA:134,1
DA:135,1
DA:136,1
DA:137,1
DA:138,1
DA:139,1
DA:140,1
DA:142,1
DA:143,1
DA:144,1
DA:145,1
DA:149,1
DA:150,1
DA:151,1
DA:152,1
DA:153,1
DA:154,1
DA:155,1
DA:156,1
DA:157,1
BRF:0
BRH:0
LF:56
LH:56
end_of_record
SF:/Users/poile/repos/actualai/actual-cli/.worktrees/2u6.4/src/error.rs
FN:43,_RNvMNtCs14eHuuW48ek_10actual_cli5errorNtB2_11ActualError9exit_code
FN:59,_RNvNtNtCs23MeGd5xNbL_10actual_cli5error5testss_15test_exit_codes
FN:103,_RNvNtNtCs23MeGd5xNbL_10actual_cli5error5testss_21test_display_messages
FN:43,_RNvMNtCs23MeGd5xNbL_10actual_cli5errorNtB2_11ActualError9exit_code
FNDA:20,_RNvMNtCs14eHuuW48ek_10actual_cli5errorNtB2_11ActualError9exit_code
FNDA:1,_RNvNtNtCs23MeGd5xNbL_10actual_cli5error5testss_15test_exit_codes
FNDA:1,_RNvNtNtCs23MeGd5xNbL_10actual_cli5error5testss_21test_display_messages
FNDA:22,_RNvMNtCs23MeGd5xNbL_10actual_cli5errorNtB2_11ActualError9exit_code
FNF:3
FNH:3
DA:43,42
DA:44,42
DA:45,2
DA:46,17
DA:47,5
DA:48,1
DA:49,17
DA:51,42
DA:59,1
DA:60,1
DA:61,1
DA:62,1
DA:63,1
DA:64,1
DA:65,1
DA:66,1
DA:67,1
DA:70,1
DA:71,1
DA:72,1
DA:75,1
DA:76,1
DA:77,1
DA:78,1
DA:79,1
DA:80,1
DA:81,1
DA:84,1
DA:85,1
DA:86,1
DA:89,1
DA:90,1
DA:93,1
DA:94,1
DA:95,1
DA:96,1
DA:97,1
DA:100,1
DA:103,1
DA:104,1
DA:105,1
DA:106,1
DA:107,0
DA:109,1
DA:110,1
DA:111,0
DA:114,1
DA:115,1
DA:116,1
DA:117,0
DA:120,1
DA:121,1
DA:122,1
DA:123,1
DA:124,1
DA:125,1
DA:127,1
DA:128,1
DA:130,1
DA:131,1
DA:132,1
DA:133,1
DA:134,1
DA:135,1
DA:136,1
DA:137,1
DA:138,0
DA:141,1
DA:142,1
DA:144,1
DA:145,1
DA:146,1
DA:148,1
DA:149,1
DA:150,1
DA:151,0
DA:154,1
DA:155,1
DA:157,1
DA:158,1
DA:159,1
DA:160,0
DA:162,1
DA:163,1
DA:164,0
DA:166,1
BRF:0
BRH:0
LF:86
LH:79
end_of_record
SF:/Users/poile/repos/actualai/actual-cli/.worktrees/2u6.4/src/generation/markers.rs
FN:61,_RNCNvNtNtCs14eHuuW48ek_10actual_cli10generation7markers14detect_changes0B7_
FN:67,_RNCNvNtNtCs14eHuuW48ek_10actual_cli10generation7markers14detect_changess0_0B7_
FN:73,_RNCNvNtNtCs14eHuuW48ek_10actual_cli10generation7markers14detect_changess1_0B7_
FN:80,_RNCNvNtNtCs14eHuuW48ek_10actual_cli10generation7markers14detect_changess2_0B7_
FN:62,_RNCNvNtNtCs14eHuuW48ek_10actual_cli10generation7markers14detect_changess_0B7_
FN:31,_RNCNvNtNtCs14eHuuW48ek_10actual_cli10generation7markers15extract_adr_ids0B7_
FN:32,_RNCNvNtNtCs14eHuuW48ek_10actual_cli10generation7markers15extract_adr_idss_0B7_
FN:139,_RNCNvNtNtCs14eHuuW48ek_10actual_cli10generation7markers22strip_managed_metadata0B7_
FN:113,_RNvNtNtCs14eHuuW48ek_10actual_cli10generation7markers12next_version
FN:55,_RNvNtNtCs14eHuuW48ek_10actual_cli10generation7markers14detect_changes
FN:22,_RNvNtNtCs14eHuuW48ek_10actual_cli10generation7markers15extract_adr_ids
FN:102,_RNvNtNtCs14eHuuW48ek_10actual_cli10generation7markers15extract_version
FN:8,_RNvNtNtCs14eHuuW48ek_10actual_cli10generation7markers15wrap_in_markers
FN:122,_RNvNtNtCs14eHuuW48ek_10actual_cli10generation7markers19extract_last_synced
FN:92,_RNvNtNtCs14eHuuW48ek_10actual_cli10generation7markers19has_managed_section
FN:136,_RNvNtNtCs14eHuuW48ek_10actual_cli10generation7markers22strip_managed_metadata
FN:152,_RNvNtNtCs14eHuuW48ek_10actual_cli10generation7markers23extract_managed_content
FN:572,_RNvNtNtNtCs23MeGd5xNbL_10actual_cli10generation7markers5testss_22test_roundtrip_adr_ids
FN:436,_RNvNtNtNtCs23MeGd5xNbL_10actual_cli10generation7markers5testss_26test_extract_adr_ids_basic
FN:442,_RNvNtNtNtCs23MeGd5xNbL_10actual_cli10generation7markers5testss_26test_extract_adr_ids_empty
FN:448,_RNvNtNtNtCs23MeGd5xNbL_10actual_cli10generation7markers5testss_27test_extract_adr_ids_single
FN:497,_RNvNtNtNtCs23MeGd5xNbL_10actual_cli10generation7markers5testss_28test_detect_changes_new_file
FN:511,_RNvNtNtNtCs23MeGd5xNbL_10actual_cli10generation7markers5testss_28test_detect_changes_same_ids
FN:382,_RNvNtNtNtCs23MeGd5xNbL_10actual_cli10generation7markers5testss_28test_next_version_increments
FN:245,_RNvNtNtNtCs23MeGd5xNbL_10actual_cli10generation7markers5testss_29test_has_managed_section_true
FN:541,_RNvNtNtNtCs23MeGd5xNbL_10actual_cli10generation7markers5testss_31test_detect_changes_all_removed
FN:587,_RNvNtNtNtCs23MeGd5xNbL_10actual_cli10generation7markers5testss_31test_extract_last_synced_absent
FN:423,_RNvNtNtNtCs23MeGd5xNbL_10actual_cli10generation7markers5testss_31test_timestamp_is_valid_iso8601
FN:388,_RNvNtNtNtCs23MeGd5xNbL_10actual_cli10generation7markers5testss_32test_next_version_none_returns_1
FN:333,_RNvNtNtNtCs23MeGd5xNbL_10actual_cli10generation7markers5testss_32test_roundtrip_wrap_then_extract
FN:526,_RNvNtNtNtCs23MeGd5xNbL_10actual_cli10generation7markers5testss_33test_detect_changes_mixed_overlap
FN:366,_RNvNtNtNtCs23MeGd5xNbL_10actual_cli10generation7markers5testss_33test_extract_version_from_comment
FN:454,_RNvNtNtNtCs23MeGd5xNbL_10actual_cli10generation7markers5testss_36test_extract_adr_ids_with_whitespace
FN:581,_RNvNtNtNtCs23MeGd5xNbL_10actual_cli10generation7markers5testss_36test_extract_version_malformed_value
FN:377,_RNvNtNtNtCs23MeGd5xNbL_10actual_cli10generation7markers5testss_37test_extract_version_none_when_absent
FN:475,_RNvNtNtNtCs23MeGd5xNbL_10actual_cli10generation7markers5testss_37test_wrap_in_markers_contains_adr_ids
FN:219,_RNvNtNtNtCs23MeGd5xNbL_10actual_cli10generation7markers5testss_37test_wrap_in_markers_contains_content
FN:232,_RNvNtNtNtCs23MeGd5xNbL_10actual_cli10generation7markers5testss_37test_wrap_in_markers_start_before_end
FN:556,_RNvNtNtNtCs23MeGd5xNbL_10actual_cli10generation7markers5testss_38test_detect_changes_no_managed_section
FN:271,_RNvNtNtNtCs23MeGd5xNbL_10actual_cli10generation7markers5testss_39test_has_managed_section_false_only_end
FN:592,_RNvNtNtNtCs23MeGd5xNbL_10actual_cli10generation7markers5testss_39test_next_version_no_version_in_content
FN:681,_RNvNtNtNtCs23MeGd5xNbL_10actual_cli10generation7markers5testss_39test_strip_managed_metadata_empty_input
FN:202,_RNvNtNtNtCs23MeGd5xNbL_10actual_cli10generation7markers5testss_39test_wrap_in_markers_contains_timestamp
FN:466,_RNvNtNtNtCs23MeGd5xNbL_10actual_cli10generation7markers5testss_40test_extract_adr_ids_malformed_no_suffix
FN:182,_RNvNtNtNtCs23MeGd5xNbL_10actual_cli10generation7markers5testss_40test_wrap_in_markers_contains_end_marker
FN:371,_RNvNtNtNtCs23MeGd5xNbL_10actual_cli10generation7markers5testss_41test_extract_version_from_managed_section
FN:254,_RNvNtNtNtCs23MeGd5xNbL_10actual_cli10generation7markers5testss_41test_has_managed_section_false_no_markers
FN:262,_RNvNtNtNtCs23MeGd5xNbL_10actual_cli10generation7markers5testss_41test_has_managed_section_false_only_start
FN:393,_RNvNtNtNtCs23MeGd5xNbL_10actual_cli10generation7markers5testss_42test_extract_last_synced_returns_timestamp
FN:172,_RNvNtNtNtCs23MeGd5xNbL_10actual_cli10generation7markers5testss_42test_wrap_in_markers_contains_start_marker
FN:600,_RNvNtNtNtCs23MeGd5xNbL_10actual_cli10generation7markers5testss_43test_strip_managed_metadata_removes_adr_ids
FN:646,_RNvNtNtNtCs23MeGd5xNbL_10actual_cli10generation7markers5testss_43test_strip_managed_metadata_removes_markers
FN:632,_RNvNtNtNtCs23MeGd5xNbL_10actual_cli10generation7markers5testss_43test_strip_managed_metadata_removes_version
FN:280,_RNvNtNtNtCs23MeGd5xNbL_10actual_cli10generation7markers5testss_44test_extract_managed_content_returns_content
FN:192,_RNvNtNtNtCs23MeGd5xNbL_10actual_cli10generation7markers5testss_45test_wrap_in_markers_contains_version_comment
FN:485,_RNvNtNtNtCs23MeGd5xNbL_10actual_cli10generation7markers5testss_45test_wrap_in_markers_empty_adr_ids_no_comment
FN:414,_RNvNtNtNtCs23MeGd5xNbL_10actual_cli10generation7markers5testss_47test_has_managed_section_false_reversed_markers
FN:618,_RNvNtNtNtCs23MeGd5xNbL_10actual_cli10generation7markers5testss_47test_strip_managed_metadata_removes_last_synced
FN:687,_RNvNtNtNtCs23MeGd5xNbL_10actual_cli10generation7markers5testss_48test_strip_managed_metadata_full_managed_section
FN:460,_RNvNtNtNtCs23MeGd5xNbL_10actual_cli10generation7markers5testss_49test_extract_adr_ids_trailing_comma_filters_empty
FN:345,_RNvNtNtNtCs23MeGd5xNbL_10actual_cli10generation7markers5testss_50test_extract_managed_content_returns_none_only_end
FN:671,_RNvNtNtNtCs23MeGd5xNbL_10actual_cli10generation7markers5testss_50test_strip_managed_metadata_preserves_non_metadata
FN:301,_RNvNtNtNtCs23MeGd5xNbL_10actual_cli10generation7markers5testss_52test_extract_managed_content_returns_none_only_start
FN:402,_RNvNtNtNtCs23MeGd5xNbL_10actual_cli10generation7markers5testss_55test_extract_managed_content_no_newlines_around_content
FN:292,_RNvNtNtNtCs23MeGd5xNbL_10actual_cli10generation7markers5testss_57test_extract_managed_content_returns_none_without_markers
FN:311,_RNvNtNtNtCs23MeGd5xNbL_10actual_cli10generation7markers5testss_58test_extract_managed_content_preserves_surrounding_content
FN:355,_RNvNtNtNtCs23MeGd5xNbL_10actual_cli10generation7markers5testss_58test_extract_managed_content_returns_none_reversed_markers
FN:113,_RNvNtNtCs23MeGd5xNbL_10actual_cli10generation7markers12next_version
FN:55,_RNvNtNtCs23MeGd5xNbL_10actual_cli10generation7markers14detect_changes
FN:22,_RNvNtNtCs23MeGd5xNbL_10actual_cli10generation7markers15extract_adr_ids
FN:102,_RNvNtNtCs23MeGd5xNbL_10actual_cli10generation7markers15extract_version
FN:8,_RNvNtNtCs23MeGd5xNbL_10actual_cli10generation7markers15wrap_in_markers
FN:122,_RNvNtNtCs23MeGd5xNbL_10actual_cli10generation7markers19extract_last_synced
FN:92,_RNvNtNtCs23MeGd5xNbL_10actual_cli10generation7markers19has_managed_section
FN:136,_RNvNtNtCs23MeGd5xNbL_10actual_cli10generation7markers22strip_managed_metadata
FN:152,_RNvNtNtCs23MeGd5xNbL_10actual_cli10generation7markers23extract_managed_content
FN:61,_RNCNvNtNtCs23MeGd5xNbL_10actual_cli10generation7markers14detect_changes0B7_
FN:67,_RNCNvNtNtCs23MeGd5xNbL_10actual_cli10generation7markers14detect_changess0_0B7_
FN:73,_RNCNvNtNtCs23MeGd5xNbL_10actual_cli10generation7markers14detect_changess1_0B7_
FN:80,_RNCNvNtNtCs23MeGd5xNbL_10actual_cli10generation7markers14detect_changess2_0B7_
FN:62,_RNCNvNtNtCs23MeGd5xNbL_10actual_cli10generation7markers14detect_changess_0B7_
FN:31,_RNCNvNtNtCs23MeGd5xNbL_10actual_cli10generation7markers15extract_adr_ids0B7_
FN:32,_RNCNvNtNtCs23MeGd5xNbL_10actual_cli10generation7markers15extract_adr_idss_0B7_
FN:139,_RNCNvNtNtCs23MeGd5xNbL_10actual_cli10generation7markers22strip_managed_metadata0B7_
FNDA:4,_RNCNvNtNtCs14eHuuW48ek_10actual_cli10generation7markers14detect_changes0B7_
FNDA:31,_RNCNvNtNtCs14eHuuW48ek_10actual_cli10generation7markers14detect_changess0_0B7_
FNDA:31,_RNCNvNtNtCs14eHuuW48ek_10actual_cli10generation7markers14detect_changess1_0B7_
FNDA:4,_RNCNvNtNtCs14eHuuW48ek_10actual_cli10generation7markers14detect_changess2_0B7_
FNDA:31,_RNCNvNtNtCs14eHuuW48ek_10actual_cli10generation7markers14detect_changess_0B7_
FNDA:4,_RNCNvNtNtCs14eHuuW48ek_10actual_cli10generation7markers15extract_adr_ids0B7_
FNDA:4,_RNCNvNtNtCs14eHuuW48ek_10actual_cli10generation7markers15extract_adr_idss_0B7_
FNDA:188,_RNCNvNtNtCs14eHuuW48ek_10actual_cli10generation7markers22strip_managed_metadata0B7_
FNDA:23,_RNvNtNtCs14eHuuW48ek_10actual_cli10generation7markers12next_version
FNDA:26,_RNvNtNtCs14eHuuW48ek_10actual_cli10generation7markers14detect_changes
FNDA:4,_RNvNtNtCs14eHuuW48ek_10actual_cli10generation7markers15extract_adr_ids
FNDA:4,_RNvNtNtCs14eHuuW48ek_10actual_cli10generation7markers15extract_version
FNDA:23,_RNvNtNtCs14eHuuW48ek_10actual_cli10generation7markers15wrap_in_markers
FNDA:0,_RNvNtNtCs14eHuuW48ek_10actual_cli10generation7markers19extract_last_synced
FNDA:6,_RNvNtNtCs14eHuuW48ek_10actual_cli10generation7markers19has_managed_section
FNDA:5,_RNvNtNtCs14eHuuW48ek_10actual_cli10generation7markers22strip_managed_metadata
FNDA:4,_RNvNtNtCs14eHuuW48ek_10actual_cli10generation7markers23extract_managed_content
FNDA:1,_RNvNtNtNtCs23MeGd5xNbL_10actual_cli10generation7markers5testss_22test_roundtrip_adr_ids
FNDA:1,_RNvNtNtNtCs23MeGd5xNbL_10actual_cli10generation7markers5testss_26test_extract_adr_ids_basic
FNDA:1,_RNvNtNtNtCs23MeGd5xNbL_10actual_cli10generation7markers5testss_26test_extract_adr_ids_empty
FNDA:1,_RNvNtNtNtCs23MeGd5xNbL_10actual_cli10generation7markers5testss_27test_extract_adr_ids_single
FNDA:1,_RNvNtNtNtCs23MeGd5xNbL_10actual_cli10generation7markers5testss_28test_detect_changes_new_file
FNDA:1,_RNvNtNtNtCs23MeGd5xNbL_10actual_cli10generation7markers5testss_28test_detect_changes_same_ids
FNDA:1,_RNvNtNtNtCs23MeGd5xNbL_10actual_cli10generation7markers5testss_28test_next_version_increments
FNDA:1,_RNvNtNtNtCs23MeGd5xNbL_10actual_cli10generation7markers5testss_29test_has_managed_section_true
FNDA:1,_RNvNtNtNtCs23MeGd5xNbL_10actual_cli10generation7markers5testss_31test_detect_changes_all_removed
FNDA:1,_RNvNtNtNtCs23MeGd5xNbL_10actual_cli10generation7markers5testss_31test_extract_last_synced_absent
FNDA:1,_RNvNtNtNtCs23MeGd5xNbL_10actual_cli10generation7markers5testss_31test_timestamp_is_valid_iso8601
FNDA:1,_RNvNtNtNtCs23MeGd5xNbL_10actual_cli10generation7markers5testss_32test_next_version_none_returns_1
FNDA:1,_RNvNtNtNtCs23MeGd5xNbL_10actual_cli10generation7markers5testss_32test_roundtrip_wrap_then_extract
FNDA:1,_RNvNtNtNtCs23MeGd5xNbL_10actual_cli10generation7markers5testss_33test_detect_changes_mixed_overlap
FNDA:1,_RNvNtNtNtCs23MeGd5xNbL_10actual_cli10generation7markers5testss_33test_extract_version_from_comment
FNDA:1,_RNvNtNtNtCs23MeGd5xNbL_10actual_cli10generation7markers5testss_36test_extract_adr_ids_with_whitespace
FNDA:1,_RNvNtNtNtCs23MeGd5xNbL_10actual_cli10generation7markers5testss_36test_extract_version_malformed_value
FNDA:1,_RNvNtNtNtCs23MeGd5xNbL_10actual_cli10generation7markers5testss_37test_extract_version_none_when_absent
FNDA:1,_RNvNtNtNtCs23MeGd5xNbL_10actual_cli10generation7markers5testss_37test_wrap_in_markers_contains_adr_ids
FNDA:1,_RNvNtNtNtCs23MeGd5xNbL_10actual_cli10generation7markers5testss_37test_wrap_in_markers_contains_content
FNDA:1,_RNvNtNtNtCs23MeGd5xNbL_10actual_cli10generation7markers5testss_37test_wrap_in_markers_start_before_end
FNDA:1,_RNvNtNtNtCs23MeGd5xNbL_10actual_cli10generation7markers5testss_38test_detect_changes_no_managed_section
FNDA:1,_RNvNtNtNtCs23MeGd5xNbL_10actual_cli10generation7markers5testss_39test_has_managed_section_false_only_end
FNDA:1,_RNvNtNtNtCs23MeGd5xNbL_10actual_cli10generation7markers5testss_39test_next_version_no_version_in_content
FNDA:1,_RNvNtNtNtCs23MeGd5xNbL_10actual_cli10generation7markers5testss_39test_strip_managed_metadata_empty_input
FNDA:1,_RNvNtNtNtCs23MeGd5xNbL_10actual_cli10generation7markers5testss_39test_wrap_in_markers_contains_timestamp
FNDA:1,_RNvNtNtNtCs23MeGd5xNbL_10actual_cli10generation7markers5testss_40test_extract_adr_ids_malformed_no_suffix
FNDA:1,_RNvNtNtNtCs23MeGd5xNbL_10actual_cli10generation7markers5testss_40test_wrap_in_markers_contains_end_marker
FNDA:1,_RNvNtNtNtCs23MeGd5xNbL_10actual_cli10generation7markers5testss_41test_extract_version_from_managed_section
FNDA:1,_RNvNtNtNtCs23MeGd5xNbL_10actual_cli10generation7markers5testss_41test_has_managed_section_false_no_markers
FNDA:1,_RNvNtNtNtCs23MeGd5xNbL_10actual_cli10generation7markers5testss_41test_has_managed_section_false_only_start
FNDA:1,_RNvNtNtNtCs23MeGd5xNbL_10actual_cli10generation7markers5testss_42test_extract_last_synced_returns_timestamp
FNDA:1,_RNvNtNtNtCs23MeGd5xNbL_10actual_cli10generation7markers5testss_42test_wrap_in_markers_contains_start_marker
FNDA:1,_RNvNtNtNtCs23MeGd5xNbL_10actual_cli10generation7markers5testss_43test_strip_managed_metadata_removes_adr_ids
FNDA:1,_RNvNtNtNtCs23MeGd5xNbL_10actual_cli10generation7markers5testss_43test_strip_managed_metadata_removes_markers
FNDA:1,_RNvNtNtNtCs23MeGd5xNbL_10actual_cli10generation7markers5testss_43test_strip_managed_metadata_removes_version
FNDA:1,_RNvNtNtNtCs23MeGd5xNbL_10actual_cli10generation7markers5testss_44test_extract_managed_content_returns_content
FNDA:1,_RNvNtNtNtCs23MeGd5xNbL_10actual_cli10generation7markers5testss_45test_wrap_in_markers_contains_version_comment
FNDA:1,_RNvNtNtNtCs23MeGd5xNbL_10actual_cli10generation7markers5testss_45test_wrap_in_markers_empty_adr_ids_no_comment
FNDA:1,_RNvNtNtNtCs23MeGd5xNbL_10actual_cli10generation7markers5testss_47test_has_managed_section_false_reversed_markers
FNDA:1,_RNvNtNtNtCs23MeGd5xNbL_10actual_cli10generation7markers5testss_47test_strip_managed_metadata_removes_last_synced
FNDA:1,_RNvNtNtNtCs23MeGd5xNbL_10actual_cli10generation7markers5testss_48test_strip_managed_metadata_full_managed_section
FNDA:1,_RNvNtNtNtCs23MeGd5xNbL_10actual_cli10generation7markers5testss_49test_extract_adr_ids_trailing_comma_filters_empty
FNDA:1,_RNvNtNtNtCs23MeGd5xNbL_10actual_cli10generation7markers5testss_50test_extract_managed_content_returns_none_only_end
FNDA:1,_RNvNtNtNtCs23MeGd5xNbL_10actual_cli10generation7markers5testss_50test_strip_managed_metadata_preserves_non_metadata
FNDA:1,_RNvNtNtNtCs23MeGd5xNbL_10actual_cli10generation7markers5testss_52test_extract_managed_content_returns_none_only_start
FNDA:1,_RNvNtNtNtCs23MeGd5xNbL_10actual_cli10generation7markers5testss_55test_extract_managed_content_no_newlines_around_content
FNDA:1,_RNvNtNtNtCs23MeGd5xNbL_10actual_cli10generation7markers5testss_57test_extract_managed_content_returns_none_without_markers
FNDA:1,_RNvNtNtNtCs23MeGd5xNbL_10actual_cli10generation7markers5testss_58test_extract_managed_content_preserves_surrounding_content
FNDA:1,_RNvNtNtNtCs23MeGd5xNbL_10actual_cli10generation7markers5testss_58test_extract_managed_content_returns_none_reversed_markers
FNDA:22,_RNvNtNtCs23MeGd5xNbL_10actual_cli10generation7markers12next_version
FNDA:24,_RNvNtNtCs23MeGd5xNbL_10actual_cli10generation7markers14detect_changes
FNDA:12,_RNvNtNtCs23MeGd5xNbL_10actual_cli10generation7markers15extract_adr_ids
FNDA:12,_RNvNtNtCs23MeGd5xNbL_10actual_cli10generation7markers15extract_version
FNDA:58,_RNvNtNtCs23MeGd5xNbL_10actual_cli10generation7markers15wrap_in_markers
FNDA:4,_RNvNtNtCs23MeGd5xNbL_10actual_cli10generation7markers19extract_last_synced
FNDA:35,_RNvNtNtCs23MeGd5xNbL_10actual_cli10generation7markers19has_managed_section
FNDA:10,_RNvNtNtCs23MeGd5xNbL_10actual_cli10generation7markers22strip_managed_metadata
FNDA:16,_RNvNtNtCs23MeGd5xNbL_10actual_cli10generation7markers23extract_managed_content
FNDA:9,_RNCNvNtNtCs23MeGd5xNbL_10actual_cli10generation7markers14detect_changes0B7_
FNDA:27,_RNCNvNtNtCs23MeGd5xNbL_10actual_cli10generation7markers14detect_changess0_0B7_
FNDA:27,_RNCNvNtNtCs23MeGd5xNbL_10actual_cli10generation7markers14detect_changess1_0B7_
FNDA:9,_RNCNvNtNtCs23MeGd5xNbL_10actual_cli10generation7markers14detect_changess2_0B7_
FNDA:27,_RNCNvNtNtCs23MeGd5xNbL_10actual_cli10generation7markers14detect_changess_0B7_
FNDA:21,_RNCNvNtNtCs23MeGd5xNbL_10actual_cli10generation7markers15extract_adr_ids0B7_
FNDA:21,_RNCNvNtNtCs23MeGd5xNbL_10actual_cli10generation7markers15extract_adr_idss_0B7_
FNDA:44,_RNCNvNtNtCs23MeGd5xNbL_10actual_cli10generation7markers22strip_managed_metadata0B7_
FNF:67
FNH:67
DA:8,81
DA:9,81
DA:10,81
DA:11,32
DA:13,49
DA:15,81
DA:16,81
DA:18,81
DA:22,16
DA:23,16
DA:24,16
DA:25,36
DA:26,36
DA:27,36
DA:28,15
DA:29,14
DA:30,14
DA:31,25
DA:32,25
DA:33,14
DA:34,1
DA:35,21
DA:37,2
DA:38,16
DA:55,50
DA:56,50
DA:57,50
DA:58,50
DA:59,50
DA:61,50
DA:62,58
DA:65,50
DA:66,50
DA:67,58
DA:68,50
DA:69,50
DA:71,50
DA:72,50
DA:73,58
DA:74,50
DA:75,50
DA:78,50
DA:79,50
DA:80,50
DA:81,50
DA:82,50
DA:84,50
DA:85,50
DA:86,50
DA:87,50
DA:88,50
DA:89,50
DA:92,41
DA:93,41
DA:94,30
DA:96,11
DA:98,41
DA:102,16
DA:103,16
DA:104,16
DA:105,13
DA:106,13
DA:107,13
DA:108,16
DA:113,45
DA:114,45
DA:115,8
DA:116,37
DA:118,45
DA:122,4
DA:123,4
DA:124,4
DA:125,2
DA:126,2
DA:127,2
DA:128,4
DA:136,15
DA:137,15
DA:138,15
DA:139,232
DA:140,232
DA:141,232
DA:142,225
DA:143,218
DA:144,211
DA:145,204
DA:146,232
DA:147,15
DA:148,15
DA:149,15
DA:152,20
DA:153,20
DA:154,17
DA:155,16
DA:156,1
DA:157,15
DA:158,15
DA:159,15
DA:161,15
DA:163,15
DA:164,15
DA:165,20
DA:172,1
DA:173,1
DA:174,1
DA:175,1
DA:176,0
DA:179,1
DA:182,1
DA:183,1
DA:184,1
DA:185,1
DA:186,0
DA:189,1
DA:192,1
DA:193,1
DA:194,1
DA:195,1
DA:196,0
DA:199,1
DA:202,1
DA:203,1
DA:204,1
DA:205,1
DA:206,0
DA:210,1
DA:211,1
DA:212,1
DA:213,1
DA:215,1
DA:216,1
DA:219,1
DA:220,1
DA:221,1
DA:222,1
DA:223,1
DA:224,1
DA:225,1
DA:226,0
DA:229,1
DA:232,1
DA:233,1
DA:234,1
DA:235,1
DA:236,1
DA:237,1
DA:238,0
DA:242,1
DA:245,1
DA:246,1
DA:247,1
DA:248,1
DA:249,0
DA:251,1
DA:254,1
DA:255,1
DA:256,1
DA:257,0
DA:259,1
DA:262,1
DA:263,1
DA:264,1
DA:265,1
DA:266,0
DA:268,1
DA:271,1
DA:272,1
DA:273,1
DA:274,1
DA:275,0
DA:277,1
DA:280,1
DA:281,1
DA:282,1
DA:283,1
DA:284,1
DA:285,1
DA:286,0
DA:289,1
DA:292,1
DA:293,1
DA:294,1
DA:296,0
DA:298,1
DA:301,1
DA:302,1
DA:303,1
DA:304,1
DA:306,0
DA:308,1
DA:311,1
DA:312,1
DA:313,1
DA:314,1
DA:315,1
DA:316,1
DA:317,0
DA:320,1
DA:321,1
DA:322,0
DA:325,1
DA:326,1
DA:327,0
DA:330,1
DA:333,1
DA:334,1
DA:335,1
DA:336,1
DA:337,1
DA:338,1
DA:339,0
DA:342,1
DA:345,1
DA:346,1
DA:347,1
DA:348,1
DA:350,0
DA:352,1
DA:355,1
DA:357,1
DA:358,1
DA:359,1
DA:361,0
DA:363,1
DA:366,1
DA:367,1
DA:368,1
DA:371,1
DA:372,1
DA:373,1
DA:374,1
DA:377,1
DA:378,1
DA:379,1
DA:382,1
DA:383,1
DA:384,1
DA:385,1
DA:388,1
DA:389,1
DA:390,1
DA:393,1
DA:394,1
DA:395,1
DA:397,1
DA:398,1
DA:399,1
DA:402,1
DA:404,1
DA:405,1
DA:406,1
DA:409,0
DA:411,1
DA:414,1
DA:415,1
DA:416,1
DA:417,1
DA:418,0
DA:420,1
DA:423,1
DA:424,1
DA:425,1
DA:426,1
DA:427,1
DA:428,1
DA:430,1
DA:431,1
DA:436,1
DA:437,1
DA:438,1
DA:439,1
DA:442,1
DA:443,1
DA:444,1
DA:445,1
DA:448,1
DA:449,1
DA:450,1
DA:451,1
DA:454,1
DA:455,1
DA:456,1
DA:457,1
DA:460,1
DA:461,1
DA:462,1
DA:463,1
DA:466,1
DA:468,1
DA:469,1
DA:470,1
DA:475,1
DA:476,1
DA:477,1
DA:478,1
DA:479,0
DA:482,1
DA:485,1
DA:486,1
DA:487,1
DA:488,1
DA:489,0
DA:492,1
DA:497,1
DA:498,1
DA:499,1
DA:500,1
DA:502,1
DA:503,1
DA:504,1
DA:505,1
DA:506,1
DA:508,1
DA:511,1
DA:512,1
DA:513,1
DA:514,1
DA:515,1
DA:517,1
DA:518,1
DA:519,1
DA:520,1
DA:521,1
DA:523,1
DA:526,1
DA:527,1
DA:528,1
DA:529,1
DA:530,1
DA:532,1
DA:533,1
DA:534,1
DA:535,1
DA:536,1
DA:538,1
DA:541,1
DA:542,1
DA:543,1
DA:544,1
DA:545,1
DA:547,1
DA:548,1
DA:549,1
DA:550,1
DA:551,1
DA:553,1
DA:556,1
DA:557,1
DA:558,1
DA:559,1
DA:561,1
DA:562,1
DA:563,1
DA:564,1
DA:565,1
DA:567,1
DA:572,1
DA:573,1
DA:574,1
DA:575,1
DA:576,1
DA:577,1
DA:578,1
DA:581,1
DA:583,1
DA:584,1
DA:587,1
DA:588,1
DA:589,1
DA:592,1
DA:594,1
DA:595,1
DA:600,1
DA:601,1
DA:602,1
DA:603,1
DA:604,1
DA:605,0
DA:607,1
DA:608,1
DA:609,0
DA:611,1
DA:612,1
DA:613,0
DA:615,1
DA:618,1
DA:619,1
DA:620,1
DA:621,1
DA:622,1
DA:623,0
DA:625,1
DA:626,1
DA:627,0
DA:629,1
DA:632,1
DA:633,1
DA:634,1
DA:635,1
DA:636,1
DA:637,0
DA:639,1
DA:640,1
DA:641,0
DA:643,1
DA:646,1
DA:647,1
DA:648,1
DA:651,1
DA:652,1
DA:653,1
DA:654,0
DA:656,1
DA:657,1
DA:658,0
DA:660,1
DA:661,1
DA:662,0
DA:664,1
DA:665,1
DA:666,0
DA:668,1
DA:671,1
DA:672,1
DA:673,1
DA:674,1
DA:676,0
DA:678,1
DA:681,1
DA:682,1
DA:683,1
DA:684,1
DA:687,1
DA:688,1
DA:689,1
DA:690,1
DA:691,1
DA:692,0
DA:694,1
DA:695,1
DA:696,0
DA:698,1
DA:699,1
DA:700,0
DA:702,1
DA:703,1
DA:704,0
DA:706,1
DA:707,1
DA:708,0
DA:710,1
BRF:0
BRH:0
LF:459
LH:419
end_of_record
SF:/Users/poile/repos/actualai/actual-cli/.worktrees/2u6.4/src/generation/merge.rs
FN:25,_RNCNvNtNtCs14eHuuW48ek_10actual_cli10generation5merge13merge_outputs0B7_
FN:42,_RNCNvNtNtCs14eHuuW48ek_10actual_cli10generation5merge13merge_outputss_0B7_
FN:101,_RNvNtNtCs14eHuuW48ek_10actual_cli10generation5merge13merge_content
FN:17,_RNvNtNtCs14eHuuW48ek_10actual_cli10generation5merge13merge_outputs
FN:101,_RNvNtNtCs23MeGd5xNbL_10actual_cli10generation5merge13merge_content
FN:17,_RNvNtNtCs23MeGd5xNbL_10actual_cli10generation5merge13merge_outputs
FN:25,_RNCNvNtNtCs23MeGd5xNbL_10actual_cli10generation5merge13merge_outputs0B7_
FN:42,_RNCNvNtNtCs23MeGd5xNbL_10actual_cli10generation5merge13merge_outputss_0B7_
FN:151,_RNvNtNtNtCs23MeGd5xNbL_10actual_cli10generation5merge5tests11make_output
FN:283,_RNvNtNtNtCs23MeGd5xNbL_10actual_cli10generation5merge5testss_23test_merge_empty_inputs
FN:403,_RNvNtNtNtCs23MeGd5xNbL_10actual_cli10generation5merge5testss_26test_empty_managed_content
FN:213,_RNvNtNtNtCs23MeGd5xNbL_10actual_cli10generation5merge5testss_26test_merge_different_paths
FN:168,_RNvNtNtNtCs23MeGd5xNbL_10actual_cli10generation5merge5testss_28test_merge_overlapping_paths
FN:476,_RNvNtNtNtCs23MeGd5xNbL_10actual_cli10generation5merge5testss_28test_new_root_file_roundtrip
FN:417,_RNvNtNtNtCs23MeGd5xNbL_10actual_cli10generation5merge5testss_35test_existing_markers_only_replaces
FN:251,_RNvNtNtNtCs23MeGd5xNbL_10actual_cli10generation5merge5testss_36test_merge_deduplicates_skipped_adrs
FN:357,_RNvNtNtNtCs23MeGd5xNbL_10actual_cli10generation5merge5testss_37test_existing_without_markers_appends
FN:337,_RNvNtNtNtCs23MeGd5xNbL_10actual_cli10generation5merge5testss_43test_existing_with_markers_replaces_content
FN:454,_RNvNtNtNtCs23MeGd5xNbL_10actual_cli10generation5merge5testss_46test_existing_with_markers_no_trailing_newline
FN:297,_RNvNtNtNtCs23MeGd5xNbL_10actual_cli10generation5merge5testss_49test_new_root_file_has_header_and_managed_section
FN:315,_RNvNtNtNtCs23MeGd5xNbL_10actual_cli10generation5merge5testss_50test_new_subdirectory_file_is_managed_section_only
FN:376,_RNvNtNtNtCs23MeGd5xNbL_10actual_cli10generation5merge5testss_55test_existing_preserves_content_above_and_below_markers
FN:437,_RNvNtNtNtCs23MeGd5xNbL_10actual_cli10generation5merge5testss_59test_existing_without_markers_appends_when_trailing_newline
FN:152,_RNCNvNtNtNtCs23MeGd5xNbL_10actual_cli10generation5merge5tests11make_output0B9_
FN:238,_RNCNvNtNtNtCs23MeGd5xNbL_10actual_cli10generation5merge5testss_26test_merge_different_paths0B9_
FNDA:4,_RNCNvNtNtCs14eHuuW48ek_10actual_cli10generation5merge13merge_outputs0B7_
FNDA:18,_RNCNvNtNtCs14eHuuW48ek_10actual_cli10generation5merge13merge_outputss_0B7_
FNDA:23,_RNvNtNtCs14eHuuW48ek_10actual_cli10generation5merge13merge_content
FNDA:16,_RNvNtNtCs14eHuuW48ek_10actual_cli10generation5merge13merge_outputs
FNDA:29,_RNvNtNtCs23MeGd5xNbL_10actual_cli10generation5merge13merge_content
FNDA:33,_RNvNtNtCs23MeGd5xNbL_10actual_cli10generation5merge13merge_outputs
FNDA:3,_RNCNvNtNtCs23MeGd5xNbL_10actual_cli10generation5merge13merge_outputs0B7_
FNDA:28,_RNCNvNtNtCs23MeGd5xNbL_10actual_cli10generation5merge13merge_outputss_0B7_
FNDA:6,_RNvNtNtNtCs23MeGd5xNbL_10actual_cli10generation5merge5tests11make_output
FNDA:1,_RNvNtNtNtCs23MeGd5xNbL_10actual_cli10generation5merge5testss_23test_merge_empty_inputs
FNDA:1,_RNvNtNtNtCs23MeGd5xNbL_10actual_cli10generation5merge5testss_26test_empty_managed_content
FNDA:1,_RNvNtNtNtCs23MeGd5xNbL_10actual_cli10generation5merge5testss_26test_merge_different_paths
FNDA:1,_RNvNtNtNtCs23MeGd5xNbL_10actual_cli10generation5merge5testss_28test_merge_overlapping_paths
FNDA:1,_RNvNtNtNtCs23MeGd5xNbL_10actual_cli10generation5merge5testss_28test_new_root_file_roundtrip
FNDA:1,_RNvNtNtNtCs23MeGd5xNbL_10actual_cli10generation5merge5testss_35test_existing_markers_only_replaces
FNDA:1,_RNvNtNtNtCs23MeGd5xNbL_10actual_cli10generation5merge5testss_36test_merge_deduplicates_skipped_adrs
FNDA:1,_RNvNtNtNtCs23MeGd5xNbL_10actual_cli10generation5merge5testss_37test_existing_without_markers_appends
FNDA:1,_RNvNtNtNtCs23MeGd5xNbL_10actual_cli10generation5merge5testss_43test_existing_with_markers_replaces_content
FNDA:1,_RNvNtNtNtCs23MeGd5xNbL_10actual_cli10generation5merge5testss_46test_existing_with_markers_no_trailing_newline
FNDA:1,_RNvNtNtNtCs23MeGd5xNbL_10actual_cli10generation5merge5testss_49test_new_root_file_has_header_and_managed_section
FNDA:1,_RNvNtNtNtCs23MeGd5xNbL_10actual_cli10generation5merge5testss_50test_new_subdirectory_file_is_managed_section_only
FNDA:1,_RNvNtNtNtCs23MeGd5xNbL_10actual_cli10generation5merge5testss_55test_existing_preserves_content_above_and_below_markers
FNDA:1,_RNvNtNtNtCs23MeGd5xNbL_10actual_cli10generation5merge5testss_59test_existing_without_markers_appends_when_trailing_newline
FNDA:4,_RNCNvNtNtNtCs23MeGd5xNbL_10actual_cli10generation5merge5tests11make_output0B9_
FNDA:2,_RNCNvNtNtNtCs23MeGd5xNbL_10actual_cli10generation5merge5testss_26test_merge_different_paths0B9_
FNF:21
FNH:21
DA:17,49
DA:19,49
DA:21,102
DA:22,106
DA:23,53
DA:24,53
DA:25,53
DA:27,7
DA:28,7
DA:31,7
DA:32,15
DA:33,8
DA:34,1
DA:35,7
DA:39,7
DA:40,7
DA:41,7
DA:42,53
DA:47,49
DA:48,49
DA:49,102
DA:50,60
DA:51,7
DA:52,6
DA:53,6
DA:58,49
DA:59,49
DA:60,49
DA:61,49
DA:63,49
DA:65,49
DA:66,49
DA:67,49
DA:68,49
DA:69,49
DA:70,49
DA:71,49
DA:72,49
DA:73,49
DA:74,49
DA:75,49
DA:101,52
DA:102,52
DA:103,52
DA:104,52
DA:105,52
DA:106,52
DA:107,52
DA:108,52
DA:110,52
DA:113,39
DA:114,22
DA:116,17
DA:119,13
DA:120,13
DA:122,11
DA:123,11
DA:125,11
DA:126,9
DA:128,2
DA:130,11
DA:131,11
DA:132,11
DA:135,2
DA:136,1
DA:138,1
DA:144,52
DA:145,52
DA:151,6
DA:152,6
DA:153,6
DA:154,6
DA:155,6
DA:156,6
DA:157,6
DA:158,6
DA:159,6
DA:160,6
DA:161,6
DA:162,6
DA:163,6
DA:164,6
DA:165,6
DA:168,1
DA:169,1
DA:170,1
DA:171,1
DA:172,1
DA:173,1
DA:174,1
DA:175,1
DA:176,1
DA:179,1
DA:180,1
DA:181,1
DA:182,1
DA:183,1
DA:184,1
DA:185,1
DA:186,1
DA:189,1
DA:192,1
DA:193,1
DA:194,1
DA:197,1
DA:200,1
DA:203,1
DA:206,1
DA:207,1
DA:208,1
DA:209,1
DA:210,1
DA:213,1
DA:214,1
DA:215,1
DA:216,1
DA:217,1
DA:218,1
DA:219,1
DA:220,1
DA:221,1
DA:224,1
DA:225,1
DA:226,1
DA:227,1
DA:228,1
DA:229,1
DA:230,1
DA:231,1
DA:234,1
DA:236,1
DA:238,2
DA:239,1
DA:240,1
DA:241,1
DA:242,0
DA:245,1
DA:246,1
DA:247,1
DA:248,1
DA:251,1
DA:252,1
DA:253,1
DA:254,1
DA:255,1
DA:256,1
DA:257,1
DA:260,1
DA:261,1
DA:262,1
DA:263,1
DA:264,1
DA:265,1
DA:266,1
DA:267,1
DA:268,1
DA:269,1
DA:270,1
DA:274,1
DA:276,1
DA:277,1
DA:278,1
DA:279,1
DA:280,1
DA:283,1
DA:284,1
DA:286,1
DA:287,1
DA:288,1
DA:289,1
DA:290,1
DA:291,1
DA:292,1
DA:297,1
DA:298,1
DA:299,1
DA:300,1
DA:301,0
DA:304,1
DA:305,1
DA:306,0
DA:308,1
DA:309,1
DA:310,0
DA:312,1
DA:315,1
DA:316,1
DA:317,1
DA:318,1
DA:319,0
DA:322,1
DA:323,1
DA:324,0
DA:326,1
DA:327,1
DA:328,0
DA:330,1
DA:331,1
DA:332,0
DA:334,1
DA:337,1
DA:338,1
DA:339,1
DA:340,1
DA:341,1
DA:342,0
DA:345,1
DA:346,1
DA:347,0
DA:350,1
DA:351,1
DA:352,0
DA:354,1
DA:357,1
DA:358,1
DA:359,1
DA:360,1
DA:361,1
DA:362,0
DA:365,1
DA:366,1
DA:367,0
DA:369,1
DA:370,1
DA:371,0
DA:373,1
DA:376,1
DA:377,1
DA:378,1
DA:379,1
DA:380,1
DA:381,1
DA:382,0
DA:385,1
DA:386,1
DA:387,0
DA:390,1
DA:391,1
DA:392,0
DA:395,1
DA:396,1
DA:397,0
DA:400,1
DA:403,1
DA:404,1
DA:405,1
DA:406,1
DA:407,0
DA:409,1
DA:410,1
DA:411,0
DA:413,1
DA:414,1
DA:417,1
DA:418,1
DA:419,1
DA:420,1
DA:421,1
DA:422,0
DA:425,1
DA:426,1
DA:427,0
DA:430,1
DA:431,1
DA:432,0
DA:434,1
DA:437,1
DA:438,1
DA:439,1
DA:440,1
DA:441,1
DA:442,1
DA:443,1
DA:444,0
DA:447,1
DA:448,1
DA:449,0
DA:451,1
DA:454,1
DA:456,1
DA:457,1
DA:458,1
DA:459,1
DA:460,1
DA:461,0
DA:464,1
DA:465,1
DA:466,0
DA:469,1
DA:470,1
DA:471,0
DA:473,1
DA:476,1
DA:477,1
DA:478,1
DA:479,1
DA:480,1
DA:481,1
DA:482,1
DA:483,0
DA:486,1
BRF:0
BRH:0
LF:305
LH:276
end_of_record
SF:/Users/poile/repos/actualai/actual-cli/.worktrees/2u6.4/src/generation/writer.rs
FN:43,_RNvNtNtCs14eHuuW48ek_10actual_cli10generation6writer11write_files
FN:52,_RNCNCNvNtNtCs14eHuuW48ek_10actual_cli10generation6writer11write_files00B9_
FN:46,_RNCNvNtNtCs14eHuuW48ek_10actual_cli10generation6writer11write_files0B7_
FN:43,_RNvNtNtCs23MeGd5xNbL_10actual_cli10generation6writer11write_files
FN:243,_RNvNtNtNtCs23MeGd5xNbL_10actual_cli10generation6writer5testss_22test_write_three_files
FN:108,_RNvNtNtNtCs23MeGd5xNbL_10actual_cli10generation6writer5testss_25test_write_root_claude_md
FN:146,_RNvNtNtNtCs23MeGd5xNbL_10actual_cli10generation6writer5testss_28test_write_subdirectory_file
FN:367,_RNvNtNtNtCs23MeGd5xNbL_10actual_cli10generation6writer5testss_34test_write_result_and_action_clone
FN:189,_RNvNtNtNtCs23MeGd5xNbL_10actual_cli10generation6writer5testss_38test_update_existing_file_with_markers
FN:333,_RNvNtNtNtCs23MeGd5xNbL_10actual_cli10generation6writer5testss_44test_write_fails_when_file_cannot_be_written
FN:300,_RNvNtNtNtCs23MeGd5xNbL_10actual_cli10generation6writer5testss_50test_write_fails_when_parent_dir_cannot_be_created
FN:52,_RNCNCNvNtNtCs23MeGd5xNbL_10actual_cli10generation6writer11write_files00B9_
FN:46,_RNCNvNtNtCs23MeGd5xNbL_10actual_cli10generation6writer11write_files0B7_
FNDA:20,_RNvNtNtCs14eHuuW48ek_10actual_cli10generation6writer11write_files
FNDA:23,_RNCNCNvNtNtCs14eHuuW48ek_10actual_cli10generation6writer11write_files00B9_
FNDA:23,_RNCNvNtNtCs14eHuuW48ek_10actual_cli10generation6writer11write_files0B7_
FNDA:13,_RNvNtNtCs23MeGd5xNbL_10actual_cli10generation6writer11write_files
FNDA:1,_RNvNtNtNtCs23MeGd5xNbL_10actual_cli10generation6writer5testss_22test_write_three_files
FNDA:1,_RNvNtNtNtCs23MeGd5xNbL_10actual_cli10generation6writer5testss_25test_write_root_claude_md
FNDA:1,_RNvNtNtNtCs23MeGd5xNbL_10actual_cli10generation6writer5testss_28test_write_subdirectory_file
FNDA:1,_RNvNtNtNtCs23MeGd5xNbL_10actual_cli10generation6writer5testss_34test_write_result_and_action_clone
FNDA:1,_RNvNtNtNtCs23MeGd5xNbL_10actual_cli10generation6writer5testss_38test_update_existing_file_with_markers
FNDA:1,_RNvNtNtNtCs23MeGd5xNbL_10actual_cli10generation6writer5testss_44test_write_fails_when_file_cannot_be_written
FNDA:1,_RNvNtNtNtCs23MeGd5xNbL_10actual_cli10generation6writer5testss_50test_write_fails_when_parent_dir_cannot_be_created
FNDA:19,_RNCNCNvNtNtCs23MeGd5xNbL_10actual_cli10generation6writer11write_files00B9_
FNDA:19,_RNCNvNtNtCs23MeGd5xNbL_10actual_cli10generation6writer11write_files0B7_
FNF:10
FNH:10
DA:43,33
DA:44,33
DA:45,33
DA:46,42
DA:47,42
DA:50,42
DA:51,42
DA:52,42
DA:55,42
DA:56,42
DA:59,42
DA:60,7
DA:62,35
DA:66,42
DA:69,42
DA:70,42
DA:73,42
DA:74,42
DA:75,1
DA:76,1
DA:77,1
DA:78,1
DA:79,1
DA:80,1
DA:81,41
DA:84,41
DA:85,3
DA:86,3
DA:87,3
DA:88,3
DA:89,3
DA:90,3
DA:91,38
DA:93,38
DA:94,38
DA:95,38
DA:96,38
DA:97,38
DA:98,38
DA:99,42
DA:100,33
DA:101,33
DA:108,1
DA:109,1
DA:110,1
DA:111,1
DA:112,1
DA:113,1
DA:114,1
DA:115,1
DA:117,1
DA:119,1
DA:120,1
DA:121,1
DA:122,1
DA:124,0
DA:126,1
DA:127,1
DA:129,1
DA:130,1
DA:131,1
DA:132,1
DA:133,0
DA:135,1
DA:136,1
DA:137,0
DA:139,1
DA:140,1
DA:141,0
DA:143,1
DA:146,1
DA:147,1
DA:148,1
DA:149,1
DA:150,1
DA:151,1
DA:152,1
DA:153,1
DA:155,1
DA:157,1
DA:158,1
DA:159,1
DA:160,1
DA:162,0
DA:164,1
DA:167,1
DA:168,1
DA:169,0
DA:172,1
DA:173,1
DA:174,1
DA:175,1
DA:176,0
DA:178,1
DA:179,1
DA:180,0
DA:182,1
DA:183,1
DA:184,0
DA:186,1
DA:189,1
DA:190,1
DA:193,1
DA:194,1
DA:195,1
DA:197,1
DA:198,1
DA:200,1
DA:201,1
DA:202,1
DA:203,1
DA:204,1
DA:205,1
DA:207,1
DA:209,1
DA:210,1
DA:211,1
DA:213,0
DA:215,1
DA:216,1
DA:217,0
DA:219,1
DA:221,1
DA:222,1
DA:223,1
DA:224,1
DA:225,0
DA:227,1
DA:228,1
DA:229,0
DA:231,1
DA:232,1
DA:234,0
DA:236,1
DA:237,1
DA:238,0
DA:240,1
DA:243,1
DA:244,1
DA:245,1
DA:246,1
DA:247,1
DA:248,1
DA:249,1
DA:250,1
DA:251,1
DA:252,1
DA:253,1
DA:254,1
DA:255,1
DA:256,1
DA:257,1
DA:258,1
DA:259,1
DA:260,1
DA:261,1
DA:262,1
DA:263,1
DA:266,1
DA:268,1
DA:271,4
DA:272,3
DA:273,3
DA:274,3
DA:278,1
DA:279,1
DA:280,1
DA:283,4
DA:284,3
DA:285,3
DA:289,1
DA:290,1
DA:292,1
DA:293,1
DA:295,1
DA:296,1
DA:297,1
DA:300,1
DA:301,1
DA:303,1
DA:305,1
DA:306,1
DA:307,1
DA:308,1
DA:309,1
DA:310,1
DA:312,1
DA:314,1
DA:315,1
DA:316,1
DA:318,0
DA:320,1
DA:321,1
DA:322,1
DA:323,0
DA:325,1
DA:326,1
DA:327,1
DA:328,0
DA:330,1
DA:333,1
DA:334,1
DA:336,1
DA:337,1
DA:339,1
DA:340,1
DA:341,1
DA:342,1
DA:343,1
DA:344,1
DA:346,1
DA:348,1
DA:349,1
DA:350,1
DA:352,0
DA:354,1
DA:355,1
DA:356,1
DA:357,0
DA:359,1
DA:360,1
DA:361,1
DA:362,0
DA:364,1
DA:367,1
DA:369,1
DA:370,1
DA:371,1
DA:372,1
DA:373,1
DA:374,1
DA:375,1
DA:376,1
DA:377,1
DA:378,1
DA:379,1
DA:380,1
DA:381,1
DA:382,1
DA:383,1
DA:384,1
DA:385,1
DA:386,1
DA:387,1
DA:390,4
DA:391,3
DA:392,3
DA:393,3
DA:394,3
DA:395,3
DA:397,1
BRF:0
BRH:0
LF:253
LH:232
end_of_record
SF:/Users/poile/repos/actualai/actual-cli/.worktrees/2u6.4/src/lib.rs
FN:20,_RNvCs14eHuuW48ek_10actual_cli3run
FN:20,_RNvCs23MeGd5xNbL_10actual_cli3run
FNDA:56,_RNvCs14eHuuW48ek_10actual_cli3run
FNDA:0,_RNvCs23MeGd5xNbL_10actual_cli3run
FNF:1
FNH:1
DA:20,56
DA:21,56
DA:22,43
DA:23,2
DA:24,4
DA:25,7
DA:27,56
BRF:0
BRH:0
LF:7
LH:7
end_of_record
SF:/Users/poile/repos/actualai/actual-cli/.worktrees/2u6.4/src/tailoring/batch.rs
FN:13,_RNvNtNtCs14eHuuW48ek_10actual_cli9tailoring5batch14create_batches
FN:56,_RNvNtNtCs14eHuuW48ek_10actual_cli9tailoring5batch21batch_context_summary
FN:38,_RNCNvNtNtCs14eHuuW48ek_10actual_cli9tailoring5batch14create_batches0B7_
FN:13,_RNvNtNtCs23MeGd5xNbL_10actual_cli9tailoring5batch14create_batches
FN:56,_RNvNtNtCs23MeGd5xNbL_10actual_cli9tailoring5batch21batch_context_summary
FN:85,_RNvNtNtNtCs23MeGd5xNbL_10actual_cli9tailoring5batch5tests8make_adr
FN:216,_RNvNtNtNtCs23MeGd5xNbL_10actual_cli9tailoring5batch5testss_22test_batch_empty_input
FN:160,_RNvNtNtNtCs23MeGd5xNbL_10actual_cli9tailoring5batch5testss_26test_batch_context_summary
FN:148,_RNvNtNtNtCs23MeGd5xNbL_10actual_cli9tailoring5batch5testss_31test_batch_5_adrs_batch_size_15
FN:201,_RNvNtNtNtCs23MeGd5xNbL_10actual_cli9tailoring5batch5testss_31test_batch_large_category_split
FN:195,_RNvNtNtNtCs23MeGd5xNbL_10actual_cli9tailoring5batch5testss_32test_batch_context_summary_empty
FN:106,_RNvNtNtNtCs23MeGd5xNbL_10actual_cli9tailoring5batch5testss_45test_batch_30_adrs_4_categories_batch_size_15
FN:222,_RNvNtNtNtCs23MeGd5xNbL_10actual_cli9tailoring5batch5testss_52test_batch_small_then_large_category_flushes_current
FN:38,_RNCNvNtNtCs23MeGd5xNbL_10actual_cli9tailoring5batch14create_batches0B7_
FN:141,_RNCNCNvNtNtNtCs23MeGd5xNbL_10actual_cli9tailoring5batch5testss_45test_batch_30_adrs_4_categories_batch_size_15s_00Bb_
FN:150,_RNCNvNtNtNtCs23MeGd5xNbL_10actual_cli9tailoring5batch5testss_31test_batch_5_adrs_batch_size_150B9_
FN:204,_RNCNvNtNtNtCs23MeGd5xNbL_10actual_cli9tailoring5batch5testss_31test_batch_large_category_split0B9_
FN:128,_RNCNvNtNtNtCs23MeGd5xNbL_10actual_cli9tailoring5batch5testss_45test_batch_30_adrs_4_categories_batch_size_150B9_
FN:141,_RNCNvNtNtNtCs23MeGd5xNbL_10actual_cli9tailoring5batch5testss_45test_batch_30_adrs_4_categories_batch_size_15s_0B9_
FN:242,_RNCNvNtNtNtCs23MeGd5xNbL_10actual_cli9tailoring5batch5testss_52test_batch_small_then_large_category_flushes_current0B9_
FNDA:11,_RNvNtNtCs14eHuuW48ek_10actual_cli9tailoring5batch14create_batches
FNDA:10,_RNvNtNtCs14eHuuW48ek_10actual_cli9tailoring5batch21batch_context_summary
FNDA:0,_RNCNvNtNtCs14eHuuW48ek_10actual_cli9tailoring5batch14create_batches0B7_
FNDA:25,_RNvNtNtCs23MeGd5xNbL_10actual_cli9tailoring5batch14create_batches
FNDA:17,_RNvNtNtCs23MeGd5xNbL_10actual_cli9tailoring5batch21batch_context_summary
FNDA:68,_RNvNtNtNtCs23MeGd5xNbL_10actual_cli9tailoring5batch5tests8make_adr
FNDA:1,_RNvNtNtNtCs23MeGd5xNbL_10actual_cli9tailoring5batch5testss_22test_batch_empty_input
FNDA:1,_RNvNtNtNtCs23MeGd5xNbL_10actual_cli9tailoring5batch5testss_26test_batch_context_summary
FNDA:1,_RNvNtNtNtCs23MeGd5xNbL_10actual_cli9tailoring5batch5testss_31test_batch_5_adrs_batch_size_15
FNDA:1,_RNvNtNtNtCs23MeGd5xNbL_10actual_cli9tailoring5batch5testss_31test_batch_large_category_split
FNDA:1,_RNvNtNtNtCs23MeGd5xNbL_10actual_cli9tailoring5batch5testss_32test_batch_context_summary_empty
FNDA:1,_RNvNtNtNtCs23MeGd5xNbL_10actual_cli9tailoring5batch5testss_45test_batch_30_adrs_4_categories_batch_size_15
FNDA:1,_RNvNtNtNtCs23MeGd5xNbL_10actual_cli9tailoring5batch5testss_52test_batch_small_then_large_category_flushes_current
FNDA:30,_RNCNvNtNtCs23MeGd5xNbL_10actual_cli9tailoring5batch14create_batches0B7_
FNDA:87,_RNCNCNvNtNtNtCs23MeGd5xNbL_10actual_cli9tailoring5batch5testss_45test_batch_30_adrs_4_categories_batch_size_15s_00Bb_
FNDA:5,_RNCNvNtNtNtCs23MeGd5xNbL_10actual_cli9tailoring5batch5testss_31test_batch_5_adrs_batch_size_150B9_
FNDA:20,_RNCNvNtNtNtCs23MeGd5xNbL_10actual_cli9tailoring5batch5testss_31test_batch_large_category_split0B9_
FNDA:3,_RNCNvNtNtNtCs23MeGd5xNbL_10actual_cli9tailoring5batch5testss_45test_batch_30_adrs_4_categories_batch_size_150B9_
FNDA:12,_RNCNvNtNtNtCs23MeGd5xNbL_10actual_cli9tailoring5batch5testss_45test_batch_30_adrs_4_categories_batch_size_15s_0B9_
FNDA:3,_RNCNvNtNtNtCs23MeGd5xNbL_10actual_cli9tailoring5batch5testss_52test_batch_small_then_large_category_flushes_current0B9_
FNF:17
FNH:17
DA:13,36
DA:15,36
DA:16,136
DA:17,100
DA:18,100
DA:20,36
DA:21,36
DA:23,36
DA:24,33
DA:26,31
DA:27,3
DA:28,28
DA:29,101
DA:30,70
DA:31,70
DA:34,2
DA:35,1
DA:36,1
DA:37,5
DA:38,30
DA:39,5
DA:44,36
DA:45,26
DA:46,26
DA:48,36
DA:49,36
DA:56,27
DA:57,27
DA:58,25
DA:59,2
DA:61,2
DA:62,2
DA:64,2
DA:66,2
DA:67,2
DA:68,5
DA:69,3
DA:70,3
DA:71,2
DA:74,2
DA:76,2
DA:77,27
DA:85,68
DA:86,68
DA:87,68
DA:88,68
DA:89,68
DA:90,68
DA:91,68
DA:92,68
DA:93,68
DA:94,68
DA:95,68
DA:96,68
DA:97,68
DA:98,68
DA:99,68
DA:100,68
DA:101,68
DA:102,68
DA:103,68
DA:106,1
DA:108,1
DA:109,11
DA:110,10
DA:111,10
DA:112,9
DA:113,8
DA:114,8
DA:115,8
DA:116,7
DA:117,7
DA:118,6
DA:119,5
DA:120,5
DA:122,1
DA:125,1
DA:128,3
DA:129,1
DA:132,4
DA:133,3
DA:138,5
DA:139,4
DA:140,4
DA:141,87
DA:142,4
DA:143,4
DA:145,1
DA:148,1
DA:149,1
DA:150,5
DA:151,1
DA:153,1
DA:155,1
DA:156,1
DA:157,1
DA:160,1
DA:161,1
DA:162,1
DA:163,1
DA:164,1
DA:165,1
DA:166,1
DA:167,1
DA:168,1
DA:169,1
DA:170,1
DA:171,1
DA:172,1
DA:173,1
DA:174,1
DA:175,1
DA:176,1
DA:177,1
DA:178,1
DA:179,1
DA:180,1
DA:181,1
DA:182,1
DA:183,1
DA:185,1
DA:187,1
DA:188,1
DA:189,1
DA:190,1
DA:191,1
DA:192,1
DA:195,1
DA:196,1
DA:197,1
DA:198,1
DA:201,1
DA:203,1
DA:204,20
DA:205,1
DA:207,1
DA:209,1
DA:210,1
DA:211,1
DA:212,1
DA:213,1
DA:216,1
DA:217,1
DA:218,1
DA:219,1
DA:222,1
DA:227,1
DA:228,4
DA:229,3
DA:230,3
DA:231,11
DA:232,10
DA:233,10
DA:235,1
DA:240,1
DA:241,1
DA:242,3
DA:243,1
DA:244,1
DA:245,1
BRF:0
BRH:0
LF:167
LH:167
end_of_record
SF:/Users/poile/repos/actualai/actual-cli/.worktrees/2u6.4/src/tailoring/concurrent.rs
FN:34,_RINvNtNtCs14eHuuW48ek_10actual_cli9tailoring10concurrent19tailor_all_projectsNtNtNtB6_6claude10subprocess15CliClaudeRunnerEB6_
FN:64,_RINvNtNtCs14eHuuW48ek_10actual_cli9tailoring10concurrent21tailor_single_projectNtNtNtB6_6claude10subprocess15CliClaudeRunnerEB6_
FN:39,_RNCINvNtNtCs14eHuuW48ek_10actual_cli9tailoring10concurrent19tailor_all_projectsNtNtNtB8_6claude10subprocess15CliClaudeRunnerE0B8_
FN:69,_RNCINvNtNtCs14eHuuW48ek_10actual_cli9tailoring10concurrent21tailor_single_projectNtNtNtB8_6claude10subprocess15CliClaudeRunnerE0B8_
FN:45,_RNCNCINvNtNtCs14eHuuW48ek_10actual_cli9tailoring10concurrent19tailor_all_projectsNtNtNtBa_6claude10subprocess15CliClaudeRunnerE00Ba_
FN:47,_RNCNCNCINvNtNtCs14eHuuW48ek_10actual_cli9tailoring10concurrent19tailor_all_projectsNtNtNtBc_6claude10subprocess15CliClaudeRunnerE000Bc_
FN:34,_RINvNtNtCs23MeGd5xNbL_10actual_cli9tailoring10concurrent19tailor_all_projectsNtNtB2_5tests20ConcurrentMockRunnerEB6_
FN:34,_RINvNtNtCs23MeGd5xNbL_10actual_cli9tailoring10concurrent19tailor_all_projectsNtNtNtB6_6claude10subprocess15CliClaudeRunnerEB6_
FN:34,_RINvNtNtCs23MeGd5xNbL_10actual_cli9tailoring10concurrent19tailor_all_projectsNtNtNtNtNtB6_3cli8commands4sync5tests10MockRunnerEB6_
FN:64,_RINvNtNtCs23MeGd5xNbL_10actual_cli9tailoring10concurrent21tailor_single_projectNtNtB2_5tests20ConcurrentMockRunnerEB6_
FN:64,_RINvNtNtCs23MeGd5xNbL_10actual_cli9tailoring10concurrent21tailor_single_projectNtNtNtB6_6claude10subprocess15CliClaudeRunnerEB6_
FN:64,_RINvNtNtCs23MeGd5xNbL_10actual_cli9tailoring10concurrent21tailor_single_projectNtNtNtNtNtB6_3cli8commands4sync5tests10MockRunnerEB6_
FN:39,_RNCINvNtNtCs23MeGd5xNbL_10actual_cli9tailoring10concurrent19tailor_all_projectsNtNtB4_5tests20ConcurrentMockRunnerE0B8_
FN:39,_RNCINvNtNtCs23MeGd5xNbL_10actual_cli9tailoring10concurrent19tailor_all_projectsNtNtNtB8_6claude10subprocess15CliClaudeRunnerE0B8_
FN:39,_RNCINvNtNtCs23MeGd5xNbL_10actual_cli9tailoring10concurrent19tailor_all_projectsNtNtNtNtNtB8_3cli8commands4sync5tests10MockRunnerE0B8_
FN:69,_RNCINvNtNtCs23MeGd5xNbL_10actual_cli9tailoring10concurrent21tailor_single_projectNtNtB4_5tests20ConcurrentMockRunnerE0B8_
FN:69,_RNCINvNtNtCs23MeGd5xNbL_10actual_cli9tailoring10concurrent21tailor_single_projectNtNtNtB8_6claude10subprocess15CliClaudeRunnerE0B8_
FN:69,_RNCINvNtNtCs23MeGd5xNbL_10actual_cli9tailoring10concurrent21tailor_single_projectNtNtNtNtNtB8_3cli8commands4sync5tests10MockRunnerE0B8_
FN:45,_RNCNCINvNtNtCs23MeGd5xNbL_10actual_cli9tailoring10concurrent19tailor_all_projectsNtNtB6_5tests20ConcurrentMockRunnerE00Ba_
FN:45,_RNCNCINvNtNtCs23MeGd5xNbL_10actual_cli9tailoring10concurrent19tailor_all_projectsNtNtNtBa_6claude10subprocess15CliClaudeRunnerE00Ba_
FN:45,_RNCNCINvNtNtCs23MeGd5xNbL_10actual_cli9tailoring10concurrent19tailor_all_projectsNtNtNtNtNtBa_3cli8commands4sync5tests10MockRunnerE00Ba_
FN:47,_RNCNCNCINvNtNtCs23MeGd5xNbL_10actual_cli9tailoring10concurrent19tailor_all_projectsNtNtB8_5tests20ConcurrentMockRunnerE000Bc_
FN:47,_RNCNCNCINvNtNtCs23MeGd5xNbL_10actual_cli9tailoring10concurrent19tailor_all_projectsNtNtNtBc_6claude10subprocess15CliClaudeRunnerE000Bc_
FN:47,_RNCNCNCINvNtNtCs23MeGd5xNbL_10actual_cli9tailoring10concurrent19tailor_all_projectsNtNtNtNtNtBc_3cli8commands4sync5tests10MockRunnerE000Bc_
FN:189,_RINvXs0_NtNtNtCs23MeGd5xNbL_10actual_cli9tailoring10concurrent5testsNtB6_20ConcurrentMockRunnerNtNtNtBc_6claude10subprocess12ClaudeRunner3runNtNtBa_5types15TailoringOutputEBc_
FN:192,_RNCINvXs0_NtNtNtCs23MeGd5xNbL_10actual_cli9tailoring10concurrent5testsNtB8_20ConcurrentMockRunnerNtNtNtBe_6claude10subprocess12ClaudeRunner3runNtNtBc_5types15TailoringOutputE0Be_
FN:267,_RNCNCNvNtNtNtCs23MeGd5xNbL_10actual_cli9tailoring10concurrent5tests22make_output_json_multi00Bb_
FN:582,_RNCNCNvNtNtNtCs23MeGd5xNbL_10actual_cli9tailoring10concurrent5testss_31test_multi_batch_passes_context00Bb_
FN:404,_RNCNCNvNtNtNtCs23MeGd5xNbL_10actual_cli9tailoring10concurrent5testss_45test_merged_output_contains_all_project_files00Bb_
FN:125,_RNCNvMNtNtNtCs23MeGd5xNbL_10actual_cli9tailoring10concurrent5testsNtB4_18ConcurrencyTracker6record0Ba_
FN:244,_RNCNvNtNtNtCs23MeGd5xNbL_10actual_cli9tailoring10concurrent5tests16make_output_json0B9_
FN:264,_RNCNvNtNtNtCs23MeGd5xNbL_10actual_cli9tailoring10concurrent5tests22make_output_json_multi0B9_
FN:277,_RNCNvNtNtNtCs23MeGd5xNbL_10actual_cli9tailoring10concurrent5tests22make_output_json_multis0_0B9_
FN:273,_RNCNvNtNtNtCs23MeGd5xNbL_10actual_cli9tailoring10concurrent5tests22make_output_json_multis_0B9_
FN:482,_RNCNvNtNtNtCs23MeGd5xNbL_10actual_cli9tailoring10concurrent5testss_21test_error_propagates0B9_
FN:520,_RNCNvNtNtNtCs23MeGd5xNbL_10actual_cli9tailoring10concurrent5testss_31test_multi_batch_passes_context0B9_
FN:338,_RNCNvNtNtNtCs23MeGd5xNbL_10actual_cli9tailoring10concurrent5testss_31test_single_project_no_overhead0B9_
FN:425,_RNCNvNtNtNtCs23MeGd5xNbL_10actual_cli9tailoring10concurrent5testss_32test_root_claude_md_concatenated0B9_
FN:294,_RNCNvNtNtNtCs23MeGd5xNbL_10actual_cli9tailoring10concurrent5testss_35test_three_projects_concurrency_two0B9_
FN:369,_RNCNvNtNtNtCs23MeGd5xNbL_10actual_cli9tailoring10concurrent5testss_45test_merged_output_contains_all_project_files0B9_
FN:133,_RNvMNtNtNtCs23MeGd5xNbL_10actual_cli9tailoring10concurrent5testsNtB2_18ConcurrencyTracker14max_concurrent
FN:118,_RNvMNtNtNtCs23MeGd5xNbL_10actual_cli9tailoring10concurrent5testsNtB2_18ConcurrencyTracker3new
FN:125,_RNvMNtNtNtCs23MeGd5xNbL_10actual_cli9tailoring10concurrent5testsNtB2_18ConcurrencyTracker6record
FN:178,_RNvMs_NtNtNtCs23MeGd5xNbL_10actual_cli9tailoring10concurrent5testsNtB4_20ConcurrentMockRunner14with_responses
FN:169,_RNvMs_NtNtNtCs23MeGd5xNbL_10actual_cli9tailoring10concurrent5testsNtB4_20ConcurrentMockRunner3new
FN:204,_RNvNtNtNtCs23MeGd5xNbL_10actual_cli9tailoring10concurrent5tests12make_project
FN:238,_RNvNtNtNtCs23MeGd5xNbL_10actual_cli9tailoring10concurrent5tests16make_output_json
FN:257,_RNvNtNtNtCs23MeGd5xNbL_10actual_cli9tailoring10concurrent5tests22make_output_json_multi
FN:218,_RNvNtNtNtCs23MeGd5xNbL_10actual_cli9tailoring10concurrent5tests8make_adr
FN:482,_RNvNtNtNtCs23MeGd5xNbL_10actual_cli9tailoring10concurrent5testss_21test_error_propagates
FN:520,_RNvNtNtNtCs23MeGd5xNbL_10actual_cli9tailoring10concurrent5testss_31test_multi_batch_passes_context
FN:338,_RNvNtNtNtCs23MeGd5xNbL_10actual_cli9tailoring10concurrent5testss_31test_single_project_no_overhead
FN:425,_RNvNtNtNtCs23MeGd5xNbL_10actual_cli9tailoring10concurrent5testss_32test_root_claude_md_concatenated
FN:294,_RNvNtNtNtCs23MeGd5xNbL_10actual_cli9tailoring10concurrent5testss_35test_three_projects_concurrency_two
FN:369,_RNvNtNtNtCs23MeGd5xNbL_10actual_cli9tailoring10concurrent5testss_45test_merged_output_contains_all_project_files
FNDA:9,_RINvNtNtCs14eHuuW48ek_10actual_cli9tailoring10concurrent19tailor_all_projectsNtNtNtB6_6claude10subprocess15CliClaudeRunnerEB6_
FNDA:11,_RINvNtNtCs14eHuuW48ek_10actual_cli9tailoring10concurrent21tailor_single_projectNtNtNtB6_6claude10subprocess15CliClaudeRunnerEB6_
FNDA:9,_RNCINvNtNtCs14eHuuW48ek_10actual_cli9tailoring10concurrent19tailor_all_projectsNtNtNtB8_6claude10subprocess15CliClaudeRunnerE0B8_
FNDA:11,_RNCINvNtNtCs14eHuuW48ek_10actual_cli9tailoring10concurrent21tailor_single_projectNtNtNtB8_6claude10subprocess15CliClaudeRunnerE0B8_
FNDA:11,_RNCNCINvNtNtCs14eHuuW48ek_10actual_cli9tailoring10concurrent19tailor_all_projectsNtNtNtBa_6claude10subprocess15CliClaudeRunnerE00Ba_
FNDA:11,_RNCNCNCINvNtNtCs14eHuuW48ek_10actual_cli9tailoring10concurrent19tailor_all_projectsNtNtNtBc_6claude10subprocess15CliClaudeRunnerE000Bc_
FNDA:6,_RINvNtNtCs23MeGd5xNbL_10actual_cli9tailoring10concurrent19tailor_all_projectsNtNtB2_5tests20ConcurrentMockRunnerEB6_
FNDA:0,_RINvNtNtCs23MeGd5xNbL_10actual_cli9tailoring10concurrent19tailor_all_projectsNtNtNtB6_6claude10subprocess15CliClaudeRunnerEB6_
FNDA:7,_RINvNtNtCs23MeGd5xNbL_10actual_cli9tailoring10concurrent19tailor_all_projectsNtNtNtNtNtB6_3cli8commands4sync5tests10MockRunnerEB6_
FNDA:13,_RINvNtNtCs23MeGd5xNbL_10actual_cli9tailoring10concurrent21tailor_single_projectNtNtB2_5tests20ConcurrentMockRunnerEB6_
FNDA:0,_RINvNtNtCs23MeGd5xNbL_10actual_cli9tailoring10concurrent21tailor_single_projectNtNtNtB6_6claude10subprocess15CliClaudeRunnerEB6_
FNDA:7,_RINvNtNtCs23MeGd5xNbL_10actual_cli9tailoring10concurrent21tailor_single_projectNtNtNtNtNtB6_3cli8commands4sync5tests10MockRunnerEB6_
FNDA:6,_RNCINvNtNtCs23MeGd5xNbL_10actual_cli9tailoring10concurrent19tailor_all_projectsNtNtB4_5tests20ConcurrentMockRunnerE0B8_
FNDA:0,_RNCINvNtNtCs23MeGd5xNbL_10actual_cli9tailoring10concurrent19tailor_all_projectsNtNtNtB8_6claude10subprocess15CliClaudeRunnerE0B8_
FNDA:7,_RNCINvNtNtCs23MeGd5xNbL_10actual_cli9tailoring10concurrent19tailor_all_projectsNtNtNtNtNtB8_3cli8commands4sync5tests10MockRunnerE0B8_
FNDA:13,_RNCINvNtNtCs23MeGd5xNbL_10actual_cli9tailoring10concurrent21tailor_single_projectNtNtB4_5tests20ConcurrentMockRunnerE0B8_
FNDA:0,_RNCINvNtNtCs23MeGd5xNbL_10actual_cli9tailoring10concurrent21tailor_single_projectNtNtNtB8_6claude10subprocess15CliClaudeRunnerE0B8_
FNDA:7,_RNCINvNtNtCs23MeGd5xNbL_10actual_cli9tailoring10concurrent21tailor_single_projectNtNtNtNtNtB8_3cli8commands4sync5tests10MockRunnerE0B8_
FNDA:13,_RNCNCINvNtNtCs23MeGd5xNbL_10actual_cli9tailoring10concurrent19tailor_all_projectsNtNtB6_5tests20ConcurrentMockRunnerE00Ba_
FNDA:0,_RNCNCINvNtNtCs23MeGd5xNbL_10actual_cli9tailoring10concurrent19tailor_all_projectsNtNtNtBa_6claude10subprocess15CliClaudeRunnerE00Ba_
FNDA:7,_RNCNCINvNtNtCs23MeGd5xNbL_10actual_cli9tailoring10concurrent19tailor_all_projectsNtNtNtNtNtBa_3cli8commands4sync5tests10MockRunnerE00Ba_
FNDA:13,_RNCNCNCINvNtNtCs23MeGd5xNbL_10actual_cli9tailoring10concurrent19tailor_all_projectsNtNtB8_5tests20ConcurrentMockRunnerE000Bc_
FNDA:0,_RNCNCNCINvNtNtCs23MeGd5xNbL_10actual_cli9tailoring10concurrent19tailor_all_projectsNtNtNtBc_6claude10subprocess15CliClaudeRunnerE000Bc_
FNDA:7,_RNCNCNCINvNtNtCs23MeGd5xNbL_10actual_cli9tailoring10concurrent19tailor_all_projectsNtNtNtNtNtBc_3cli8commands4sync5tests10MockRunnerE000Bc_
FNDA:14,_RINvXs0_NtNtNtCs23MeGd5xNbL_10actual_cli9tailoring10concurrent5testsNtB6_20ConcurrentMockRunnerNtNtNtBc_6claude10subprocess12ClaudeRunner3runNtNtBa_5types15TailoringOutputEBc_
FNDA:14,_RNCINvXs0_NtNtNtCs23MeGd5xNbL_10actual_cli9tailoring10concurrent5testsNtB8_20ConcurrentMockRunnerNtNtNtBe_6claude10subprocess12ClaudeRunner3runNtNtBc_5types15TailoringOutputE0Be_
FNDA:5,_RNCNCNvNtNtNtCs23MeGd5xNbL_10actual_cli9tailoring10concurrent5tests22make_output_json_multi00Bb_
FNDA:2,_RNCNCNvNtNtNtCs23MeGd5xNbL_10actual_cli9tailoring10concurrent5testss_31test_multi_batch_passes_context00Bb_
FNDA:4,_RNCNCNvNtNtNtCs23MeGd5xNbL_10actual_cli9tailoring10concurrent5testss_45test_merged_output_contains_all_project_files00Bb_
FNDA:14,_RNCNvMNtNtNtCs23MeGd5xNbL_10actual_cli9tailoring10concurrent5testsNtB4_18ConcurrencyTracker6record0Ba_
FNDA:10,_RNCNvNtNtNtCs23MeGd5xNbL_10actual_cli9tailoring10concurrent5tests16make_output_json0B9_
FNDA:4,_RNCNvNtNtNtCs23MeGd5xNbL_10actual_cli9tailoring10concurrent5tests22make_output_json_multi0B9_
FNDA:4,_RNCNvNtNtNtCs23MeGd5xNbL_10actual_cli9tailoring10concurrent5tests22make_output_json_multis0_0B9_
FNDA:1,_RNCNvNtNtNtCs23MeGd5xNbL_10actual_cli9tailoring10concurrent5tests22make_output_json_multis_0B9_
FNDA:1,_RNCNvNtNtNtCs23MeGd5xNbL_10actual_cli9tailoring10concurrent5testss_21test_error_propagates0B9_
FNDA:1,_RNCNvNtNtNtCs23MeGd5xNbL_10actual_cli9tailoring10concurrent5testss_31test_multi_batch_passes_context0B9_
FNDA:1,_RNCNvNtNtNtCs23MeGd5xNbL_10actual_cli9tailoring10concurrent5testss_31test_single_project_no_overhead0B9_
FNDA:1,_RNCNvNtNtNtCs23MeGd5xNbL_10actual_cli9tailoring10concurrent5testss_32test_root_claude_md_concatenated0B9_
FNDA:1,_RNCNvNtNtNtCs23MeGd5xNbL_10actual_cli9tailoring10concurrent5testss_35test_three_projects_concurrency_two0B9_
FNDA:1,_RNCNvNtNtNtCs23MeGd5xNbL_10actual_cli9tailoring10concurrent5testss_45test_merged_output_contains_all_project_files0B9_
FNDA:1,_RNvMNtNtNtCs23MeGd5xNbL_10actual_cli9tailoring10concurrent5testsNtB2_18ConcurrencyTracker14max_concurrent
FNDA:6,_RNvMNtNtNtCs23MeGd5xNbL_10actual_cli9tailoring10concurrent5testsNtB2_18ConcurrencyTracker3new
FNDA:14,_RNvMNtNtNtCs23MeGd5xNbL_10actual_cli9tailoring10concurrent5testsNtB2_18ConcurrencyTracker6record
FNDA:1,_RNvMs_NtNtNtCs23MeGd5xNbL_10actual_cli9tailoring10concurrent5testsNtB4_20ConcurrentMockRunner14with_responses
FNDA:5,_RNvMs_NtNtNtCs23MeGd5xNbL_10actual_cli9tailoring10concurrent5testsNtB4_20ConcurrentMockRunner3new
FNDA:13,_RNvNtNtNtCs23MeGd5xNbL_10actual_cli9tailoring10concurrent5tests12make_project
FNDA:10,_RNvNtNtNtCs23MeGd5xNbL_10actual_cli9tailoring10concurrent5tests16make_output_json
FNDA:3,_RNvNtNtNtCs23MeGd5xNbL_10actual_cli9tailoring10concurrent5tests22make_output_json_multi
FNDA:6,_RNvNtNtNtCs23MeGd5xNbL_10actual_cli9tailoring10concurrent5tests8make_adr
FNDA:1,_RNvNtNtNtCs23MeGd5xNbL_10actual_cli9tailoring10concurrent5testss_21test_error_propagates
FNDA:1,_RNvNtNtNtCs23MeGd5xNbL_10actual_cli9tailoring10concurrent5testss_31test_multi_batch_passes_context
FNDA:1,_RNvNtNtNtCs23MeGd5xNbL_10actual_cli9tailoring10concurrent5testss_31test_single_project_no_overhead
FNDA:1,_RNvNtNtNtCs23MeGd5xNbL_10actual_cli9tailoring10concurrent5testss_32test_root_claude_md_concatenated
FNDA:1,_RNvNtNtNtCs23MeGd5xNbL_10actual_cli9tailoring10concurrent5testss_35test_three_projects_concurrency_two
FNDA:1,_RNvNtNtNtCs23MeGd5xNbL_10actual_cli9tailoring10concurrent5testss_45test_merged_output_contains_all_project_files
FNF:37
FNH:37
DA:34,22
DA:35,22
DA:36,22
DA:37,22
DA:38,22
DA:39,22
DA:40,22
DA:43,22
DA:44,22
DA:45,31
DA:46,31
DA:47,31
DA:48,31
DA:49,31
DA:50,31
DA:51,31
DA:52,22
DA:54,22
DA:57,22
DA:59,22
DA:60,22
DA:64,31
DA:65,31
DA:66,31
DA:67,31
DA:68,31
DA:69,31
DA:70,31
DA:71,31
DA:72,31
DA:74,31
DA:76,52
DA:77,25
DA:78,25
DA:79,24
DA:81,1
DA:84,25
DA:85,25
DA:86,25
DA:87,25
DA:88,25
DA:89,25
DA:90,25
DA:91,25
DA:92,25
DA:93,25
DA:95,21
DA:98,27
DA:99,31
DA:118,6
DA:119,6
DA:120,6
DA:121,6
DA:122,6
DA:125,14
DA:126,14
DA:127,14
DA:128,14
DA:129,14
DA:130,14
DA:133,1
DA:134,1
DA:135,1
DA:136,3
DA:137,3
DA:138,9
DA:141,9
DA:142,4
DA:143,5
DA:145,3
DA:146,2
DA:147,2
DA:149,1
DA:150,1
DA:169,5
DA:170,5
DA:171,5
DA:172,5
DA:173,5
DA:174,5
DA:175,5
DA:176,5
DA:178,1
DA:179,1
DA:180,1
DA:181,1
DA:182,1
DA:183,1
DA:184,1
DA:185,1
DA:189,14
DA:190,14
DA:191,14
DA:192,14
DA:193,14
DA:194,14
DA:195,14
DA:196,14
DA:197,14
DA:198,13
DA:199,1
DA:201,14
DA:204,13
DA:205,13
DA:206,13
DA:207,13
DA:208,13
DA:209,13
DA:210,13
DA:211,13
DA:212,13
DA:213,13
DA:214,13
DA:215,13
DA:216,13
DA:218,6
DA:219,6
DA:220,6
DA:221,6
DA:222,6
DA:223,6
DA:224,6
DA:225,6
DA:226,6
DA:227,6
DA:228,6
DA:229,6
DA:230,6
DA:231,6
DA:232,6
DA:233,6
DA:234,6
DA:235,6
DA:236,6
DA:238,10
DA:239,10
DA:240,10
DA:241,10
DA:242,10
DA:243,10
DA:244,10
DA:246,10
DA:247,10
DA:248,10
DA:249,10
DA:250,10
DA:251,10
DA:252,10
DA:254,10
DA:255,10
DA:257,3
DA:258,3
DA:259,3
DA:260,3
DA:261,3
DA:262,3
DA:263,3
DA:264,4
DA:265,4
DA:266,4
DA:267,5
DA:268,4
DA:269,3
DA:270,3
DA:271,3
DA:272,3
DA:273,1
DA:274,1
DA:275,1
DA:276,3
DA:277,4
DA:278,3
DA:279,3
DA:280,3
DA:281,3
DA:282,3
DA:283,3
DA:284,3
DA:285,3
DA:286,3
DA:287,3
DA:288,3
DA:289,3
DA:294,1
DA:295,1
DA:296,1
DA:299,1
DA:300,1
DA:301,1
DA:302,1
DA:305,1
DA:307,1
DA:308,1
DA:309,1
DA:310,1
DA:311,1
DA:312,1
DA:313,1
DA:314,1
DA:316,1
DA:319,1
DA:322,1
DA:323,1
DA:324,1
DA:325,0
DA:329,1
DA:330,1
DA:331,1
DA:332,1
DA:333,1
DA:338,1
DA:339,1
DA:340,1
DA:342,1
DA:343,1
DA:344,1
DA:345,1
DA:348,1
DA:350,1
DA:351,1
DA:352,1
DA:353,1
DA:354,1
DA:355,1
DA:356,1
DA:357,1
DA:359,1
DA:360,1
DA:361,1
DA:362,1
DA:363,1
DA:364,1
DA:369,1
DA:370,1
DA:371,1
DA:374,1
DA:375,1
DA:376,1
DA:377,1
DA:378,1
DA:380,1
DA:382,1
DA:383,1
DA:384,1
DA:386,1
DA:387,1
DA:388,1
DA:392,1
DA:394,1
DA:395,1
DA:396,1
DA:397,1
DA:398,1
DA:399,1
DA:400,1
DA:401,1
DA:403,1
DA:404,4
DA:406,1
DA:407,1
DA:408,1
DA:409,0
DA:411,1
DA:412,1
DA:413,0
DA:415,1
DA:416,1
DA:417,0
DA:419,1
DA:420,1
DA:425,1
DA:426,1
DA:427,1
DA:430,1
DA:431,1
DA:432,1
DA:433,1
DA:436,1
DA:438,1
DA:439,1
DA:440,1
DA:441,1
DA:442,1
DA:443,1
DA:444,1
DA:445,1
DA:447,1
DA:450,1
DA:451,1
DA:454,1
DA:455,1
DA:456,1
DA:457,0
DA:459,1
DA:460,1
DA:461,0
DA:463,1
DA:464,1
DA:465,0
DA:471,1
DA:472,1
DA:473,1
DA:474,1
DA:475,1
DA:476,1
DA:477,1
DA:482,1
DA:483,1
DA:484,1
DA:486,1
DA:487,1
DA:488,1
DA:489,1
DA:490,1
DA:491,1
DA:492,1
DA:493,1
DA:494,1
DA:495,1
DA:498,1
DA:500,1
DA:501,1
DA:502,1
DA:503,1
DA:504,1
DA:505,1
DA:506,1
DA:507,1
DA:509,1
DA:510,1
DA:511,1
DA:512,1
DA:513,1
DA:514,1
DA:515,1
DA:520,1
DA:521,1
DA:523,1
DA:524,1
DA:525,1
DA:526,1
DA:527,1
DA:528,1
DA:529,1
DA:530,1
DA:531,1
DA:532,1
DA:533,1
DA:534,1
DA:535,1
DA:536,1
DA:537,1
DA:538,1
DA:539,1
DA:540,1
DA:541,1
DA:542,1
DA:543,1
DA:544,1
DA:545,1
DA:546,1
DA:547,1
DA:548,1
DA:549,1
DA:550,1
DA:551,1
DA:552,1
DA:553,1
DA:554,1
DA:555,1
DA:556,1
DA:557,1
DA:562,1
DA:563,1
DA:564,1
DA:567,1
DA:569,1
DA:570,1
DA:571,1
DA:572,1
DA:573,1
DA:574,1
DA:575,1
DA:576,1
DA:578,1
DA:581,1
DA:582,2
DA:583,1
DA:584,1
DA:587,1
DA:588,1
BRF:0
BRH:0
LF:419
LH:409
end_of_record
SF:/Users/poile/repos/actualai/actual-cli/.worktrees/2u6.4/src/tailoring/filter.rs
FN:15,_RNCNvNtNtCs14eHuuW48ek_10actual_cli9tailoring6filter19pre_filter_rejected0B7_
FN:9,_RNvNtNtCs14eHuuW48ek_10actual_cli9tailoring6filter19pre_filter_rejected
FN:15,_RNCNvNtNtCs23MeGd5xNbL_10actual_cli9tailoring6filter19pre_filter_rejected0B7_
FN:25,_RNvNtNtNtCs23MeGd5xNbL_10actual_cli9tailoring6filter5tests8make_adr
FN:76,_RNvNtNtNtCs23MeGd5xNbL_10actual_cli9tailoring6filter5testss_15order_preserved
FN:68,_RNvNtNtNtCs23MeGd5xNbL_10actual_cli9tailoring6filter5testss_26all_rejected_returns_empty
FN:61,_RNvNtNtNtCs23MeGd5xNbL_10actual_cli9tailoring6filter5testss_26empty_rejected_returns_all
FN:46,_RNvNtNtNtCs23MeGd5xNbL_10actual_cli9tailoring6filter5testss_37ten_adrs_three_rejected_returns_seven
FN:77,_RNCNvNtNtNtCs23MeGd5xNbL_10actual_cli9tailoring6filter5testss_15order_preserved0B9_
FN:80,_RNCNvNtNtNtCs23MeGd5xNbL_10actual_cli9tailoring6filter5testss_15order_preserveds_0B9_
FN:69,_RNCNvNtNtNtCs23MeGd5xNbL_10actual_cli9tailoring6filter5testss_26all_rejected_returns_empty0B9_
FN:70,_RNCNvNtNtNtCs23MeGd5xNbL_10actual_cli9tailoring6filter5testss_26all_rejected_returns_emptys_0B9_
FN:62,_RNCNvNtNtNtCs23MeGd5xNbL_10actual_cli9tailoring6filter5testss_26empty_rejected_returns_all0B9_
FN:47,_RNCNvNtNtNtCs23MeGd5xNbL_10actual_cli9tailoring6filter5testss_37ten_adrs_three_rejected_returns_seven0B9_
FN:9,_RNvNtNtCs23MeGd5xNbL_10actual_cli9tailoring6filter19pre_filter_rejected
FNDA:2,_RNCNvNtNtCs14eHuuW48ek_10actual_cli9tailoring6filter19pre_filter_rejected0B7_
FNDA:28,_RNvNtNtCs14eHuuW48ek_10actual_cli9tailoring6filter19pre_filter_rejected
FNDA:19,_RNCNvNtNtCs23MeGd5xNbL_10actual_cli9tailoring6filter19pre_filter_rejected0B7_
FNDA:28,_RNvNtNtNtCs23MeGd5xNbL_10actual_cli9tailoring6filter5tests8make_adr
FNDA:1,_RNvNtNtNtCs23MeGd5xNbL_10actual_cli9tailoring6filter5testss_15order_preserved
FNDA:1,_RNvNtNtNtCs23MeGd5xNbL_10actual_cli9tailoring6filter5testss_26all_rejected_returns_empty
FNDA:1,_RNvNtNtNtCs23MeGd5xNbL_10actual_cli9tailoring6filter5testss_26empty_rejected_returns_all
FNDA:1,_RNvNtNtNtCs23MeGd5xNbL_10actual_cli9tailoring6filter5testss_37ten_adrs_three_rejected_returns_seven
FNDA:5,_RNCNvNtNtNtCs23MeGd5xNbL_10actual_cli9tailoring6filter5testss_15order_preserved0B9_
FNDA:3,_RNCNvNtNtNtCs23MeGd5xNbL_10actual_cli9tailoring6filter5testss_15order_preserveds_0B9_
FNDA:3,_RNCNvNtNtNtCs23MeGd5xNbL_10actual_cli9tailoring6filter5testss_26all_rejected_returns_empty0B9_
FNDA:3,_RNCNvNtNtNtCs23MeGd5xNbL_10actual_cli9tailoring6filter5testss_26all_rejected_returns_emptys_0B9_
FNDA:10,_RNCNvNtNtNtCs23MeGd5xNbL_10actual_cli9tailoring6filter5testss_26empty_rejected_returns_all0B9_
FNDA:10,_RNCNvNtNtNtCs23MeGd5xNbL_10actual_cli9tailoring6filter5testss_37ten_adrs_three_rejected_returns_seven0B9_
FNDA:17,_RNvNtNtCs23MeGd5xNbL_10actual_cli9tailoring6filter19pre_filter_rejected
FNF:13
FNH:13
DA:9,45
DA:10,45
DA:11,40
DA:12,5
DA:13,5
DA:14,5
DA:15,21
DA:16,5
DA:17,5
DA:18,45
DA:25,28
DA:26,28
DA:27,28
DA:28,28
DA:29,28
DA:30,28
DA:31,28
DA:32,28
DA:33,28
DA:34,28
DA:35,28
DA:36,28
DA:37,28
DA:38,28
DA:39,28
DA:40,28
DA:41,28
DA:42,28
DA:43,28
DA:46,1
DA:47,10
DA:48,1
DA:49,1
DA:50,1
DA:51,1
DA:53,1
DA:54,1
DA:55,8
DA:56,7
DA:58,1
DA:61,1
DA:62,10
DA:63,1
DA:64,1
DA:65,1
DA:68,1
DA:69,3
DA:70,3
DA:71,1
DA:72,1
DA:73,1
DA:76,1
DA:77,5
DA:78,1
DA:79,1
DA:80,3
DA:81,1
DA:82,1
BRF:0
BRH:0
LF:65
LH:65
end_of_record
SF:/Users/poile/repos/actualai/actual-cli/.worktrees/2u6.4/src/tailoring/invoke.rs
FN:45,_RNvNtNtCs14eHuuW48ek_10actual_cli9tailoring6invoke10build_args
FN:69,_RNvNtNtCs14eHuuW48ek_10actual_cli9tailoring6invoke26validate_and_filter_output
FN:15,_RINvNtNtCs14eHuuW48ek_10actual_cli9tailoring6invoke16invoke_tailoringNtNtNtB6_6claude10subprocess15CliClaudeRunnerEB6_
FN:22,_RNCINvNtNtCs14eHuuW48ek_10actual_cli9tailoring6invoke16invoke_tailoringNtNtNtB8_6claude10subprocess15CliClaudeRunnerE0B8_
FN:30,_RNCNCINvNtNtCs14eHuuW48ek_10actual_cli9tailoring6invoke16invoke_tailoringNtNtNtBa_6claude10subprocess15CliClaudeRunnerE00Ba_
FN:89,_RNCNvNtNtCs14eHuuW48ek_10actual_cli9tailoring6invoke26validate_and_filter_output0B7_
FN:99,_RNCNvNtNtCs14eHuuW48ek_10actual_cli9tailoring6invoke26validate_and_filter_outputs_0B7_
FN:15,_RINvNtNtCs23MeGd5xNbL_10actual_cli9tailoring6invoke16invoke_tailoringNtNtB2_5tests16MockClaudeRunnerEB6_
FN:15,_RINvNtNtCs23MeGd5xNbL_10actual_cli9tailoring6invoke16invoke_tailoringNtNtNtB4_10concurrent5tests20ConcurrentMockRunnerEB6_
FN:15,_RINvNtNtCs23MeGd5xNbL_10actual_cli9tailoring6invoke16invoke_tailoringNtNtNtB6_6claude10subprocess15CliClaudeRunnerEB6_
FN:15,_RINvNtNtCs23MeGd5xNbL_10actual_cli9tailoring6invoke16invoke_tailoringNtNtNtNtNtB6_3cli8commands4sync5tests10MockRunnerEB6_
FN:22,_RNCINvNtNtCs23MeGd5xNbL_10actual_cli9tailoring6invoke16invoke_tailoringNtNtB4_5tests16MockClaudeRunnerE0B8_
FN:22,_RNCINvNtNtCs23MeGd5xNbL_10actual_cli9tailoring6invoke16invoke_tailoringNtNtNtB6_10concurrent5tests20ConcurrentMockRunnerE0B8_
FN:22,_RNCINvNtNtCs23MeGd5xNbL_10actual_cli9tailoring6invoke16invoke_tailoringNtNtNtB8_6claude10subprocess15CliClaudeRunnerE0B8_
FN:22,_RNCINvNtNtCs23MeGd5xNbL_10actual_cli9tailoring6invoke16invoke_tailoringNtNtNtNtNtB8_3cli8commands4sync5tests10MockRunnerE0B8_
FN:30,_RNCNCINvNtNtCs23MeGd5xNbL_10actual_cli9tailoring6invoke16invoke_tailoringNtNtB6_5tests16MockClaudeRunnerE00Ba_
FN:30,_RNCNCINvNtNtCs23MeGd5xNbL_10actual_cli9tailoring6invoke16invoke_tailoringNtNtNtB8_10concurrent5tests20ConcurrentMockRunnerE00Ba_
FN:30,_RNCNCINvNtNtCs23MeGd5xNbL_10actual_cli9tailoring6invoke16invoke_tailoringNtNtNtBa_6claude10subprocess15CliClaudeRunnerE00Ba_
FN:30,_RNCNCINvNtNtCs23MeGd5xNbL_10actual_cli9tailoring6invoke16invoke_tailoringNtNtNtNtNtBa_3cli8commands4sync5tests10MockRunnerE00Ba_
FN:89,_RNCNvNtNtCs23MeGd5xNbL_10actual_cli9tailoring6invoke26validate_and_filter_output0B7_
FN:99,_RNCNvNtNtCs23MeGd5xNbL_10actual_cli9tailoring6invoke26validate_and_filter_outputs_0B7_
FN:45,_RNvNtNtCs23MeGd5xNbL_10actual_cli9tailoring6invoke10build_args
FN:69,_RNvNtNtCs23MeGd5xNbL_10actual_cli9tailoring6invoke26validate_and_filter_output
FN:145,_RINvXs_NtNtNtCs23MeGd5xNbL_10actual_cli9tailoring6invoke5testsNtB5_16MockClaudeRunnerNtNtNtBb_6claude10subprocess12ClaudeRunner3runNtNtB9_5types15TailoringOutputEBb_
FN:148,_RNCINvXs_NtNtNtCs23MeGd5xNbL_10actual_cli9tailoring6invoke5testsNtB7_16MockClaudeRunnerNtNtNtBd_6claude10subprocess12ClaudeRunner3runNtNtBb_5types15TailoringOutputE0Bd_
FN:189,_RNCNvNtNtNtCs23MeGd5xNbL_10actual_cli9tailoring6invoke5tests17valid_output_json0B9_
FN:203,_RNCNvNtNtNtCs23MeGd5xNbL_10actual_cli9tailoring6invoke5testss_17test_valid_output0B9_
FN:335,_RNCNvNtNtNtCs23MeGd5xNbL_10actual_cli9tailoring6invoke5testss_26test_retry_on_invalid_json0B9_
FN:350,_RNCNvNtNtNtCs23MeGd5xNbL_10actual_cli9tailoring6invoke5testss_32test_non_parse_error_not_retried0B9_
FN:251,_RNCNvNtNtNtCs23MeGd5xNbL_10actual_cli9tailoring6invoke5testss_32test_wrong_path_validation_error0B9_
FN:219,_RNCNvNtNtNtCs23MeGd5xNbL_10actual_cli9tailoring6invoke5testss_35test_empty_content_validation_error0B9_
FN:280,_RNCNvNtNtNtCs23MeGd5xNbL_10actual_cli9tailoring6invoke5testss_38test_unknown_adr_id_filtered_not_error0B9_
FN:308,_RNCNvNtNtNtCs23MeGd5xNbL_10actual_cli9tailoring6invoke5testss_50test_all_adr_ids_hallucinated_results_in_empty_ids0B9_
FN:139,_RNvMNtNtNtCs23MeGd5xNbL_10actual_cli9tailoring6invoke5testsNtB2_16MockClaudeRunner17from_json_strings
FN:128,_RNvMNtNtNtCs23MeGd5xNbL_10actual_cli9tailoring6invoke5testsNtB2_16MockClaudeRunner3new
FN:135,_RNvMNtNtNtCs23MeGd5xNbL_10actual_cli9tailoring6invoke5testsNtB2_16MockClaudeRunner6single
FN:183,_RNvNtNtNtCs23MeGd5xNbL_10actual_cli9tailoring6invoke5tests17valid_output_json
FN:163,_RNvNtNtNtCs23MeGd5xNbL_10actual_cli9tailoring6invoke5tests8make_adr
FN:203,_RNvNtNtNtCs23MeGd5xNbL_10actual_cli9tailoring6invoke5testss_17test_valid_output
FN:335,_RNvNtNtNtCs23MeGd5xNbL_10actual_cli9tailoring6invoke5testss_26test_retry_on_invalid_json
FN:350,_RNvNtNtNtCs23MeGd5xNbL_10actual_cli9tailoring6invoke5testss_32test_non_parse_error_not_retried
FN:251,_RNvNtNtNtCs23MeGd5xNbL_10actual_cli9tailoring6invoke5testss_32test_wrong_path_validation_error
FN:219,_RNvNtNtNtCs23MeGd5xNbL_10actual_cli9tailoring6invoke5testss_35test_empty_content_validation_error
FN:280,_RNvNtNtNtCs23MeGd5xNbL_10actual_cli9tailoring6invoke5testss_38test_unknown_adr_id_filtered_not_error
FN:308,_RNvNtNtNtCs23MeGd5xNbL_10actual_cli9tailoring6invoke5testss_50test_all_adr_ids_hallucinated_results_in_empty_ids
FNDA:10,_RNvNtNtCs14eHuuW48ek_10actual_cli9tailoring6invoke10build_args
FNDA:8,_RNvNtNtCs14eHuuW48ek_10actual_cli9tailoring6invoke26validate_and_filter_output
FNDA:10,_RINvNtNtCs14eHuuW48ek_10actual_cli9tailoring6invoke16invoke_tailoringNtNtNtB6_6claude10subprocess15CliClaudeRunnerEB6_
FNDA:10,_RNCINvNtNtCs14eHuuW48ek_10actual_cli9tailoring6invoke16invoke_tailoringNtNtNtB8_6claude10subprocess15CliClaudeRunnerE0B8_
FNDA:14,_RNCNCINvNtNtCs14eHuuW48ek_10actual_cli9tailoring6invoke16invoke_tailoringNtNtNtBa_6claude10subprocess15CliClaudeRunnerE00Ba_
FNDA:11,_RNCNvNtNtCs14eHuuW48ek_10actual_cli9tailoring6invoke26validate_and_filter_output0B7_
FNDA:0,_RNCNvNtNtCs14eHuuW48ek_10actual_cli9tailoring6invoke26validate_and_filter_outputs_0B7_
FNDA:7,_RINvNtNtCs23MeGd5xNbL_10actual_cli9tailoring6invoke16invoke_tailoringNtNtB2_5tests16MockClaudeRunnerEB6_
FNDA:14,_RINvNtNtCs23MeGd5xNbL_10actual_cli9tailoring6invoke16invoke_tailoringNtNtNtB4_10concurrent5tests20ConcurrentMockRunnerEB6_
FNDA:0,_RINvNtNtCs23MeGd5xNbL_10actual_cli9tailoring6invoke16invoke_tailoringNtNtNtB6_6claude10subprocess15CliClaudeRunnerEB6_
FNDA:1,_RINvNtNtCs23MeGd5xNbL_10actual_cli9tailoring6invoke16invoke_tailoringNtNtNtNtNtB6_3cli8commands4sync5tests10MockRunnerEB6_
FNDA:7,_RNCINvNtNtCs23MeGd5xNbL_10actual_cli9tailoring6invoke16invoke_tailoringNtNtB4_5tests16MockClaudeRunnerE0B8_
FNDA:14,_RNCINvNtNtCs23MeGd5xNbL_10actual_cli9tailoring6invoke16invoke_tailoringNtNtNtB6_10concurrent5tests20ConcurrentMockRunnerE0B8_
FNDA:0,_RNCINvNtNtCs23MeGd5xNbL_10actual_cli9tailoring6invoke16invoke_tailoringNtNtNtB8_6claude10subprocess15CliClaudeRunnerE0B8_
FNDA:1,_RNCINvNtNtCs23MeGd5xNbL_10actual_cli9tailoring6invoke16invoke_tailoringNtNtNtNtNtB8_3cli8commands4sync5tests10MockRunnerE0B8_
FNDA:8,_RNCNCINvNtNtCs23MeGd5xNbL_10actual_cli9tailoring6invoke16invoke_tailoringNtNtB6_5tests16MockClaudeRunnerE00Ba_
FNDA:17,_RNCNCINvNtNtCs23MeGd5xNbL_10actual_cli9tailoring6invoke16invoke_tailoringNtNtNtB8_10concurrent5tests20ConcurrentMockRunnerE00Ba_
FNDA:0,_RNCNCINvNtNtCs23MeGd5xNbL_10actual_cli9tailoring6invoke16invoke_tailoringNtNtNtBa_6claude10subprocess15CliClaudeRunnerE00Ba_
FNDA:1,_RNCNCINvNtNtCs23MeGd5xNbL_10actual_cli9tailoring6invoke16invoke_tailoringNtNtNtNtNtBa_3cli8commands4sync5tests10MockRunnerE00Ba_
FNDA:22,_RNCNvNtNtCs23MeGd5xNbL_10actual_cli9tailoring6invoke26validate_and_filter_output0B7_
FNDA:4,_RNCNvNtNtCs23MeGd5xNbL_10actual_cli9tailoring6invoke26validate_and_filter_outputs_0B7_
FNDA:22,_RNvNtNtCs23MeGd5xNbL_10actual_cli9tailoring6invoke10build_args
FNDA:19,_RNvNtNtCs23MeGd5xNbL_10actual_cli9tailoring6invoke26validate_and_filter_output
FNDA:8,_RINvXs_NtNtNtCs23MeGd5xNbL_10actual_cli9tailoring6invoke5testsNtB5_16MockClaudeRunnerNtNtNtBb_6claude10subprocess12ClaudeRunner3runNtNtB9_5types15TailoringOutputEBb_
FNDA:8,_RNCINvXs_NtNtNtCs23MeGd5xNbL_10actual_cli9tailoring6invoke5testsNtB7_16MockClaudeRunnerNtNtNtBd_6claude10subprocess12ClaudeRunner3runNtNtBb_5types15TailoringOutputE0Bd_
FNDA:3,_RNCNvNtNtNtCs23MeGd5xNbL_10actual_cli9tailoring6invoke5tests17valid_output_json0B9_
FNDA:1,_RNCNvNtNtNtCs23MeGd5xNbL_10actual_cli9tailoring6invoke5testss_17test_valid_output0B9_
FNDA:1,_RNCNvNtNtNtCs23MeGd5xNbL_10actual_cli9tailoring6invoke5testss_26test_retry_on_invalid_json0B9_
FNDA:1,_RNCNvNtNtNtCs23MeGd5xNbL_10actual_cli9tailoring6invoke5testss_32test_non_parse_error_not_retried0B9_
FNDA:1,_RNCNvNtNtNtCs23MeGd5xNbL_10actual_cli9tailoring6invoke5testss_32test_wrong_path_validation_error0B9_
FNDA:1,_RNCNvNtNtNtCs23MeGd5xNbL_10actual_cli9tailoring6invoke5testss_35test_empty_content_validation_error0B9_
FNDA:1,_RNCNvNtNtNtCs23MeGd5xNbL_10actual_cli9tailoring6invoke5testss_38test_unknown_adr_id_filtered_not_error0B9_
FNDA:1,_RNCNvNtNtNtCs23MeGd5xNbL_10actual_cli9tailoring6invoke5testss_50test_all_adr_ids_hallucinated_results_in_empty_ids0B9_
FNDA:1,_RNvMNtNtNtCs23MeGd5xNbL_10actual_cli9tailoring6invoke5testsNtB2_16MockClaudeRunner17from_json_strings
FNDA:7,_RNvMNtNtNtCs23MeGd5xNbL_10actual_cli9tailoring6invoke5testsNtB2_16MockClaudeRunner3new
FNDA:5,_RNvMNtNtNtCs23MeGd5xNbL_10actual_cli9tailoring6invoke5testsNtB2_16MockClaudeRunner6single
FNDA:2,_RNvNtNtNtCs23MeGd5xNbL_10actual_cli9tailoring6invoke5tests17valid_output_json
FNDA:8,_RNvNtNtNtCs23MeGd5xNbL_10actual_cli9tailoring6invoke5tests8make_adr
FNDA:1,_RNvNtNtNtCs23MeGd5xNbL_10actual_cli9tailoring6invoke5testss_17test_valid_output
FNDA:1,_RNvNtNtNtCs23MeGd5xNbL_10actual_cli9tailoring6invoke5testss_26test_retry_on_invalid_json
FNDA:1,_RNvNtNtNtCs23MeGd5xNbL_10actual_cli9tailoring6invoke5testss_32test_non_parse_error_not_retried
FNDA:1,_RNvNtNtNtCs23MeGd5xNbL_10actual_cli9tailoring6invoke5testss_32test_wrong_path_validation_error
FNDA:1,_RNvNtNtNtCs23MeGd5xNbL_10actual_cli9tailoring6invoke5testss_35test_empty_content_validation_error
FNDA:1,_RNvNtNtNtCs23MeGd5xNbL_10actual_cli9tailoring6invoke5testss_38test_unknown_adr_id_filtered_not_error
FNDA:1,_RNvNtNtNtCs23MeGd5xNbL_10actual_cli9tailoring6invoke5testss_50test_all_adr_ids_hallucinated_results_in_empty_ids
FNF:29
FNH:29
DA:15,32
DA:16,32
DA:17,32
DA:18,32
DA:19,32
DA:20,32
DA:21,32
DA:22,32
DA:23,32
DA:24,32
DA:25,32
DA:26,32
DA:27,32
DA:28,32
DA:30,40
DA:33,32
DA:34,26
DA:37,3
DA:38,1
DA:40,3
DA:42,32
DA:45,32
DA:46,32
DA:47,32
DA:48,32
DA:49,32
DA:50,32
DA:51,32
DA:52,32
DA:53,32
DA:54,32
DA:56,32
DA:57,32
DA:59,32
DA:60,32
DA:61,32
DA:62,32
DA:63,32
DA:69,27
DA:70,27
DA:71,27
DA:72,27
DA:73,56
DA:74,31
DA:75,1
DA:76,1
DA:77,1
DA:78,1
DA:79,30
DA:80,30
DA:81,1
DA:82,1
DA:83,1
DA:84,1
DA:85,29
DA:86,29
DA:87,29
DA:88,29
DA:89,33
DA:90,29
DA:91,29
DA:92,29
DA:93,2
DA:94,2
DA:95,2
DA:97,2
DA:99,4
DA:100,27
DA:102,25
DA:103,27
DA:128,7
DA:129,7
DA:130,7
DA:131,7
DA:132,7
DA:133,7
DA:135,5
DA:136,5
DA:137,5
DA:139,1
DA:140,1
DA:141,1
DA:145,8
DA:146,8
DA:147,8
DA:148,8
DA:149,8
DA:150,8
DA:152,8
DA:153,8
DA:154,7
DA:155,7
DA:156,6
DA:158,1
DA:160,8
DA:163,8
DA:164,8
DA:165,8
DA:166,8
DA:167,8
DA:168,8
DA:169,8
DA:170,8
DA:171,8
DA:172,8
DA:173,8
DA:174,8
DA:175,8
DA:176,8
DA:177,8
DA:178,8
DA:179,8
DA:180,8
DA:181,8
DA:183,2
DA:184,2
DA:185,2
DA:186,2
DA:187,2
DA:188,2
DA:189,3
DA:191,2
DA:192,2
DA:193,2
DA:194,2
DA:195,2
DA:196,2
DA:197,2
DA:199,2
DA:200,2
DA:203,1
DA:204,1
DA:205,1
DA:206,1
DA:208,1
DA:210,1
DA:211,1
DA:212,1
DA:213,1
DA:214,1
DA:215,1
DA:216,1
DA:219,1
DA:220,1
DA:221,1
DA:222,1
DA:223,1
DA:224,1
DA:225,1
DA:226,1
DA:227,1
DA:228,1
DA:229,1
DA:230,1
DA:231,1
DA:232,1
DA:233,1
DA:234,1
DA:235,1
DA:236,1
DA:237,1
DA:239,1
DA:241,1
DA:242,1
DA:243,1
DA:244,1
DA:245,0
DA:247,1
DA:248,1
DA:251,1
DA:252,1
DA:253,1
DA:254,1
DA:255,1
DA:256,1
DA:257,1
DA:258,1
DA:259,1
DA:260,1
DA:261,1
DA:262,1
DA:263,1
DA:264,1
DA:265,1
DA:266,1
DA:267,1
DA:268,1
DA:269,1
DA:271,1
DA:273,1
DA:274,1
DA:275,1
DA:276,1
DA:277,1
DA:280,1
DA:281,1
DA:282,1
DA:283,1
DA:284,1
DA:285,1
DA:286,1
DA:287,1
DA:288,1
DA:289,1
DA:290,1
DA:291,1
DA:292,1
DA:293,1
DA:294,1
DA:295,1
DA:296,1
DA:297,1
DA:298,1
DA:300,1
DA:302,1
DA:304,1
DA:305,1
DA:308,1
DA:309,1
DA:310,1
DA:311,1
DA:312,1
DA:313,1
DA:314,1
DA:315,1
DA:316,1
DA:317,1
DA:318,1
DA:319,1
DA:320,1
DA:321,1
DA:322,1
DA:323,1
DA:324,1
DA:325,1
DA:326,1
DA:328,1
DA:330,1
DA:331,1
DA:332,1
DA:335,1
DA:336,1
DA:337,1
DA:338,1
DA:339,1
DA:341,1
DA:343,1
DA:344,1
DA:345,1
DA:346,1
DA:347,1
DA:350,1
DA:351,1
DA:352,1
DA:353,1
DA:354,1
DA:355,1
DA:356,1
DA:357,1
DA:359,1
DA:361,1
DA:362,1
DA:363,1
DA:364,1
BRF:0
BRH:0
LF:284
LH:283
end_of_record
SF:/Users/poile/repos/actualai/actual-cli/.worktrees/2u6.4/src/tailoring/types.rs
FN:126,_RNvNtNtNtCs23MeGd5xNbL_10actual_cli9tailoring5types5testss_14test_roundtrip
FN:57,_RNvNtNtNtCs23MeGd5xNbL_10actual_cli9tailoring5types5testss_23test_deserialize_sample
FN:153,_RNvNtNtNtCs23MeGd5xNbL_10actual_cli9tailoring5types5testss_23test_subdirectory_paths
FNDA:1,_RNvNtNtNtCs23MeGd5xNbL_10actual_cli9tailoring5types5testss_14test_roundtrip
FNDA:1,_RNvNtNtNtCs23MeGd5xNbL_10actual_cli9tailoring5types5testss_23test_deserialize_sample
FNDA:1,_RNvNtNtNtCs23MeGd5xNbL_10actual_cli9tailoring5types5testss_23test_subdirectory_paths
FNF:3
FNH:3
DA:57,1
DA:58,1
DA:59,1
DA:60,1
DA:61,1
DA:62,1
DA:63,1
DA:64,1
DA:65,1
DA:66,1
DA:67,1
DA:68,1
DA:69,1
DA:70,1
DA:71,1
DA:72,1
DA:73,1
DA:74,1
DA:75,1
DA:76,1
DA:77,1
DA:78,1
DA:79,1
DA:80,1
DA:81,1
DA:82,1
DA:83,1
DA:84,1
DA:85,1
DA:87,1
DA:89,1
DA:90,1
DA:91,1
DA:92,1
DA:95,1
DA:96,1
DA:99,1
DA:101,1
DA:102,1
DA:103,1
DA:106,1
DA:107,1
DA:110,1
DA:112,1
DA:113,1
DA:114,1
DA:115,1
DA:119,1
DA:120,1
DA:121,1
DA:122,1
DA:123,1
DA:126,1
DA:127,1
DA:128,1
DA:129,1
DA:130,1
DA:131,1
DA:132,1
DA:133,1
DA:134,1
DA:135,1
DA:136,1
DA:137,1
DA:138,1
DA:139,1
DA:140,1
DA:141,1
DA:142,1
DA:143,1
DA:144,1
DA:146,1
DA:147,1
DA:149,1
DA:150,1
DA:153,1
DA:154,1
DA:155,1
DA:156,1
DA:157,1
DA:158,1
DA:159,1
DA:161,1
DA:162,1
DA:164,1
DA:165,1
DA:166,1
BRF:0
BRH:0
LF:87
LH:87
end_of_record
SF:/Users/poile/repos/actualai/actual-cli/.worktrees/2u6.4/src/telemetry/identity.rs
FN:8,_RNvNtNtCs14eHuuW48ek_10actual_cli9telemetry8identity18hash_repo_identity
FN:87,_RNCNvNtNtNtCs23MeGd5xNbL_10actual_cli9telemetry8identity5testss_17test_empty_inputs0B9_
FN:71,_RNCNvNtNtNtCs23MeGd5xNbL_10actual_cli9telemetry8identity5testss_34test_hash_is_64_char_lowercase_hex0B9_
FN:78,_RNvNtNtNtCs23MeGd5xNbL_10actual_cli9telemetry8identity5testss_17test_empty_inputs
FN:33,_RNvNtNtNtCs23MeGd5xNbL_10actual_cli9telemetry8identity5testss_26test_same_inputs_same_hash
FN:66,_RNvNtNtNtCs23MeGd5xNbL_10actual_cli9telemetry8identity5testss_34test_hash_is_64_char_lowercase_hex
FN:41,_RNvNtNtNtCs23MeGd5xNbL_10actual_cli9telemetry8identity5testss_38test_different_inputs_different_hashes
FN:22,_RNvNtNtNtCs23MeGd5xNbL_10actual_cli9telemetry8identity5testss_44test_known_input_produces_deterministic_hash
FN:8,_RNvNtNtCs23MeGd5xNbL_10actual_cli9telemetry8identity18hash_repo_identity
FNDA:0,_RNvNtNtCs14eHuuW48ek_10actual_cli9telemetry8identity18hash_repo_identity
FNDA:64,_RNCNvNtNtNtCs23MeGd5xNbL_10actual_cli9telemetry8identity5testss_17test_empty_inputs0B9_
FNDA:64,_RNCNvNtNtNtCs23MeGd5xNbL_10actual_cli9telemetry8identity5testss_34test_hash_is_64_char_lowercase_hex0B9_
FNDA:1,_RNvNtNtNtCs23MeGd5xNbL_10actual_cli9telemetry8identity5testss_17test_empty_inputs
FNDA:1,_RNvNtNtNtCs23MeGd5xNbL_10actual_cli9telemetry8identity5testss_26test_same_inputs_same_hash
FNDA:1,_RNvNtNtNtCs23MeGd5xNbL_10actual_cli9telemetry8identity5testss_34test_hash_is_64_char_lowercase_hex
FNDA:1,_RNvNtNtNtCs23MeGd5xNbL_10actual_cli9telemetry8identity5testss_38test_different_inputs_different_hashes
FNDA:1,_RNvNtNtNtCs23MeGd5xNbL_10actual_cli9telemetry8identity5testss_44test_known_input_produces_deterministic_hash
FNDA:10,_RNvNtNtCs23MeGd5xNbL_10actual_cli9telemetry8identity18hash_repo_identity
FNF:8
FNH:8
DA:8,10
DA:9,10
DA:10,10
DA:11,10
DA:12,10
DA:13,10
DA:14,10
DA:22,1
DA:23,1
DA:25,1
DA:27,0
DA:29,1
DA:33,1
DA:34,1
DA:35,1
DA:36,1
DA:37,1
DA:41,1
DA:42,1
DA:43,1
DA:44,1
DA:46,1
DA:48,0
DA:50,1
DA:52,0
DA:56,1
DA:57,1
DA:58,1
DA:60,0
DA:62,1
DA:66,1
DA:67,1
DA:68,1
DA:69,1
DA:70,1
DA:71,64
DA:72,0
DA:74,1
DA:78,1
DA:79,1
DA:80,1
DA:81,1
DA:83,0
DA:85,1
DA:86,1
DA:87,64
DA:88,0
DA:90,1
BRF:0
BRH:0
LF:50
LH:43
end_of_record
SF:/Users/poile/repos/actualai/actual-cli/.worktrees/2u6.4/src/telemetry/metrics.rs
FN:20,_RNvMNtNtCs14eHuuW48ek_10actual_cli9telemetry7metricsNtB2_11SyncMetrics18to_counter_request
FN:21,_RNCNvMNtNtCs14eHuuW48ek_10actual_cli9telemetry7metricsNtB4_11SyncMetrics18to_counter_request0B8_
FN:185,_RNCNvNtNtNtCs23MeGd5xNbL_10actual_cli9telemetry7metrics5testss_30test_metric_values_match_input0B9_
FN:78,_RNCNvNtNtNtCs23MeGd5xNbL_10actual_cli9telemetry7metrics5testss_45test_to_counter_request_produces_four_metrics0B9_
FN:20,_RNvMNtNtCs23MeGd5xNbL_10actual_cli9telemetry7metricsNtB2_11SyncMetrics18to_counter_request
FN:60,_RNvNtNtNtCs23MeGd5xNbL_10actual_cli9telemetry7metrics5tests14sample_metrics
FN:171,_RNvNtNtNtCs23MeGd5xNbL_10actual_cli9telemetry7metrics5testss_30test_metric_values_match_input
FN:91,_RNvNtNtNtCs23MeGd5xNbL_10actual_cli9telemetry7metrics5testss_35test_all_tags_include_required_keys
FN:72,_RNvNtNtNtCs23MeGd5xNbL_10actual_cli9telemetry7metrics5testss_45test_to_counter_request_produces_four_metrics
FN:141,_RNvNtNtNtCs23MeGd5xNbL_10actual_cli9telemetry7metrics5testss_47test_json_serialization_matches_expected_format
FN:21,_RNCNvMNtNtCs23MeGd5xNbL_10actual_cli9telemetry7metricsNtB4_11SyncMetrics18to_counter_request0B8_
FNDA:0,_RNvMNtNtCs14eHuuW48ek_10actual_cli9telemetry7metricsNtB2_11SyncMetrics18to_counter_request
FNDA:0,_RNCNvMNtNtCs14eHuuW48ek_10actual_cli9telemetry7metricsNtB4_11SyncMetrics18to_counter_request0B8_
FNDA:4,_RNCNvNtNtNtCs23MeGd5xNbL_10actual_cli9telemetry7metrics5testss_30test_metric_values_match_input0B9_
FNDA:4,_RNCNvNtNtNtCs23MeGd5xNbL_10actual_cli9telemetry7metrics5testss_45test_to_counter_request_produces_four_metrics0B9_
FNDA:6,_RNvMNtNtCs23MeGd5xNbL_10actual_cli9telemetry7metricsNtB2_11SyncMetrics18to_counter_request
FNDA:2,_RNvNtNtNtCs23MeGd5xNbL_10actual_cli9telemetry7metrics5tests14sample_metrics
FNDA:1,_RNvNtNtNtCs23MeGd5xNbL_10actual_cli9telemetry7metrics5testss_30test_metric_values_match_input
FNDA:1,_RNvNtNtNtCs23MeGd5xNbL_10actual_cli9telemetry7metrics5testss_35test_all_tags_include_required_keys
FNDA:1,_RNvNtNtNtCs23MeGd5xNbL_10actual_cli9telemetry7metrics5testss_45test_to_counter_request_produces_four_metrics
FNDA:1,_RNvNtNtNtCs23MeGd5xNbL_10actual_cli9telemetry7metrics5testss_47test_json_serialization_matches_expected_format
FNDA:24,_RNCNvMNtNtCs23MeGd5xNbL_10actual_cli9telemetry7metricsNtB4_11SyncMetrics18to_counter_request0B8_
FNF:9
FNH:9
DA:20,6
DA:21,24
DA:22,24
DA:23,24
DA:24,24
DA:25,24
DA:26,24
DA:27,24
DA:29,6
DA:30,6
DA:31,6
DA:32,6
DA:33,6
DA:34,6
DA:35,6
DA:36,6
DA:37,6
DA:38,6
DA:39,6
DA:40,6
DA:41,6
DA:42,6
DA:43,6
DA:44,6
DA:45,6
DA:46,6
DA:47,6
DA:48,6
DA:49,6
DA:50,6
DA:51,6
DA:52,6
DA:53,6
DA:60,2
DA:61,2
DA:62,2
DA:63,2
DA:64,2
DA:65,2
DA:66,2
DA:67,2
DA:68,2
DA:69,2
DA:72,1
DA:73,1
DA:74,1
DA:76,1
DA:78,4
DA:79,1
DA:81,1
DA:83,1
DA:84,1
DA:85,1
DA:88,1
DA:91,1
DA:92,1
DA:93,1
DA:94,1
DA:95,1
DA:96,1
DA:97,1
DA:98,1
DA:99,1
DA:100,1
DA:102,5
DA:103,4
DA:104,4
DA:105,0
DA:108,4
DA:109,4
DA:110,0
DA:113,4
DA:114,4
DA:115,0
DA:119,4
DA:120,4
DA:122,0
DA:125,4
DA:126,4
DA:128,0
DA:131,4
DA:132,4
DA:134,0
DA:138,1
DA:141,1
DA:142,1
DA:143,1
DA:144,1
DA:146,1
DA:147,1
DA:149,1
DA:150,1
DA:151,1
DA:152,1
DA:153,1
DA:154,1
DA:156,4
DA:157,1
DA:159,4
DA:160,4
DA:162,4
DA:163,4
DA:164,4
DA:165,4
DA:166,4
DA:168,1
DA:171,1
DA:172,1
DA:173,1
DA:174,1
DA:175,1
DA:176,1
DA:177,1
DA:178,1
DA:179,1
DA:180,1
DA:182,1
DA:183,1
DA:184,1
DA:185,4
DA:186,1
DA:188,1
DA:189,1
DA:190,1
DA:191,1
DA:192,1
BRF:0
BRH:0
LF:129
LH:123
end_of_record
SF:/Users/poile/repos/actualai/actual-cli/.worktrees/2u6.4/src/telemetry/reporter.rs
FN:12,_RNvNtNtCs14eHuuW48ek_10actual_cli9telemetry8reporter14report_metrics
FN:12,_RNCNvNtNtCs14eHuuW48ek_10actual_cli9telemetry8reporter14report_metrics0B7_
FN:88,_RNCNvNtNtNtCs23MeGd5xNbL_10actual_cli9telemetry8reporter5testss_30test_report_opt_out_via_config0B9_
FN:116,_RNCNvNtNtNtCs23MeGd5xNbL_10actual_cli9telemetry8reporter5testss_31test_report_opt_out_via_env_var0B9_
FN:156,_RNCNvNtNtNtCs23MeGd5xNbL_10actual_cli9telemetry8reporter5testss_34test_service_key_not_in_log_output0B9_
FN:141,_RNCNvNtNtNtCs23MeGd5xNbL_10actual_cli9telemetry8reporter5testss_36test_report_network_failure_no_panic0B9_
FN:65,_RNCNvNtNtNtCs23MeGd5xNbL_10actual_cli9telemetry8reporter5testss_39test_report_sends_post_with_auth_header0B9_
FN:12,_RNvNtNtCs23MeGd5xNbL_10actual_cli9telemetry8reporter14report_metrics
FN:12,_RNCNvNtNtCs23MeGd5xNbL_10actual_cli9telemetry8reporter14report_metrics0B7_
FN:58,_RNvNtNtNtCs23MeGd5xNbL_10actual_cli9telemetry8reporter5tests11restore_env
FN:39,_RNvNtNtNtCs23MeGd5xNbL_10actual_cli9telemetry8reporter5tests14sample_metrics
FN:51,_RNvNtNtNtCs23MeGd5xNbL_10actual_cli9telemetry8reporter5tests18save_and_clear_env
FN:88,_RNvNtNtNtCs23MeGd5xNbL_10actual_cli9telemetry8reporter5testss_30test_report_opt_out_via_config
FN:116,_RNvNtNtNtCs23MeGd5xNbL_10actual_cli9telemetry8reporter5testss_31test_report_opt_out_via_env_var
FN:154,_RNvNtNtNtCs23MeGd5xNbL_10actual_cli9telemetry8reporter5testss_34test_service_key_not_in_log_output
FN:141,_RNvNtNtNtCs23MeGd5xNbL_10actual_cli9telemetry8reporter5testss_36test_report_network_failure_no_panic
FN:166,_RNvNtNtNtCs23MeGd5xNbL_10actual_cli9telemetry8reporter5testss_36test_save_and_restore_env_round_trip
FN:65,_RNvNtNtNtCs23MeGd5xNbL_10actual_cli9telemetry8reporter5testss_39test_report_sends_post_with_auth_header
FNDA:0,_RNvNtNtCs14eHuuW48ek_10actual_cli9telemetry8reporter14report_metrics
FNDA:0,_RNCNvNtNtCs14eHuuW48ek_10actual_cli9telemetry8reporter14report_metrics0B7_
FNDA:1,_RNCNvNtNtNtCs23MeGd5xNbL_10actual_cli9telemetry8reporter5testss_30test_report_opt_out_via_config0B9_
FNDA:1,_RNCNvNtNtNtCs23MeGd5xNbL_10actual_cli9telemetry8reporter5testss_31test_report_opt_out_via_env_var0B9_
FNDA:199,_RNCNvNtNtNtCs23MeGd5xNbL_10actual_cli9telemetry8reporter5testss_34test_service_key_not_in_log_output0B9_
FNDA:1,_RNCNvNtNtNtCs23MeGd5xNbL_10actual_cli9telemetry8reporter5testss_36test_report_network_failure_no_panic0B9_
FNDA:1,_RNCNvNtNtNtCs23MeGd5xNbL_10actual_cli9telemetry8reporter5testss_39test_report_sends_post_with_auth_header0B9_
FNDA:4,_RNvNtNtCs23MeGd5xNbL_10actual_cli9telemetry8reporter14report_metrics
FNDA:4,_RNCNvNtNtCs23MeGd5xNbL_10actual_cli9telemetry8reporter14report_metrics0B7_
FNDA:6,_RNvNtNtNtCs23MeGd5xNbL_10actual_cli9telemetry8reporter5tests11restore_env
FNDA:4,_RNvNtNtNtCs23MeGd5xNbL_10actual_cli9telemetry8reporter5tests14sample_metrics
FNDA:6,_RNvNtNtNtCs23MeGd5xNbL_10actual_cli9telemetry8reporter5tests18save_and_clear_env
FNDA:1,_RNvNtNtNtCs23MeGd5xNbL_10actual_cli9telemetry8reporter5testss_30test_report_opt_out_via_config
FNDA:1,_RNvNtNtNtCs23MeGd5xNbL_10actual_cli9telemetry8reporter5testss_31test_report_opt_out_via_env_var
FNDA:1,_RNvNtNtNtCs23MeGd5xNbL_10actual_cli9telemetry8reporter5testss_34test_service_key_not_in_log_output
FNDA:1,_RNvNtNtNtCs23MeGd5xNbL_10actual_cli9telemetry8reporter5testss_36test_report_network_failure_no_panic
FNDA:1,_RNvNtNtNtCs23MeGd5xNbL_10actual_cli9telemetry8reporter5testss_36test_save_and_restore_env_round_trip
FNDA:1,_RNvNtNtNtCs23MeGd5xNbL_10actual_cli9telemetry8reporter5testss_39test_report_sends_post_with_auth_header
FNF:16
FNH:16
DA:12,4
DA:14,4
DA:15,1
DA:16,3
DA:19,3
DA:20,3
DA:21,3
DA:22,3
DA:23,3
DA:25,1
DA:26,2
DA:28,2
DA:29,2
DA:30,2
DA:31,4
DA:39,4
DA:40,4
DA:41,4
DA:42,4
DA:43,4
DA:44,4
DA:45,4
DA:46,4
DA:47,4
DA:48,4
DA:51,6
DA:52,6
DA:53,6
DA:54,6
DA:55,6
DA:58,6
DA:59,6
DA:60,1
DA:61,5
DA:62,6
DA:65,1
DA:66,1
DA:67,1
DA:69,1
DA:70,1
DA:71,1
DA:72,1
DA:73,1
DA:74,1
DA:75,1
DA:76,1
DA:78,1
DA:79,1
DA:81,1
DA:82,1
DA:84,1
DA:85,1
DA:88,1
DA:91,1
DA:92,1
DA:94,1
DA:95,1
DA:96,1
DA:97,1
DA:98,1
DA:99,1
DA:101,1
DA:102,1
DA:103,1
DA:104,1
DA:105,1
DA:106,1
DA:107,1
DA:109,1
DA:110,1
DA:112,1
DA:113,1
DA:116,1
DA:117,1
DA:118,1
DA:120,1
DA:122,1
DA:123,1
DA:124,1
DA:125,1
DA:126,1
DA:127,1
DA:129,1
DA:130,1
DA:132,1
DA:133,1
DA:136,1
DA:137,1
DA:138,1
DA:141,1
DA:142,1
DA:143,1
DA:145,1
DA:146,1
DA:148,1
DA:150,1
DA:151,1
DA:154,1
DA:155,1
DA:156,199
DA:157,199
DA:158,3
DA:159,3
DA:160,3
DA:161,199
DA:162,1
DA:163,1
DA:166,1
DA:167,1
DA:169,1
DA:170,1
DA:173,1
DA:174,1
DA:177,1
DA:178,1
DA:179,1
DA:180,1
DA:183,1
DA:184,1
DA:185,1
DA:190,1
DA:191,1
DA:192,1
DA:197,1
DA:198,1
BRF:0
BRH:0
LF:135
LH:135
end_of_record