SF:/home/runner/work/actual-cli/actual-cli/src/analysis/types.rs
FN:71,_RNvNtNtNtCskLWVUVQqCaf_10actual_cli8analysis5types5testss_23deserialize_sample_json
FN:150,_RNvNtNtNtCskLWVUVQqCaf_10actual_cli8analysis5types5testss_32language_serializes_as_lowercase
FN:101,_RNvNtNtNtCskLWVUVQqCaf_10actual_cli8analysis5types5testss_32serialize_deserialize_round_trip
FN:156,_RNvNtNtNtCskLWVUVQqCaf_10actual_cli8analysis5types5testss_43framework_category_serializes_as_kebab_case
FNDA:1,_RNvNtNtNtCskLWVUVQqCaf_10actual_cli8analysis5types5testss_23deserialize_sample_json
FNDA:1,_RNvNtNtNtCskLWVUVQqCaf_10actual_cli8analysis5types5testss_32language_serializes_as_lowercase
FNDA:1,_RNvNtNtNtCskLWVUVQqCaf_10actual_cli8analysis5types5testss_32serialize_deserialize_round_trip
FNDA:1,_RNvNtNtNtCskLWVUVQqCaf_10actual_cli8analysis5types5testss_43framework_category_serializes_as_kebab_case
FNF:4
FNH:4
DA:71,1
DA:72,1
DA:73,1
DA:74,1
DA:75,1
DA:76,1
DA:77,1
DA:78,1
DA:79,1
DA:80,1
DA:82,1
DA:83,1
DA:84,1
DA:86,1
DA:87,1
DA:88,1
DA:89,1
DA:90,1
DA:91,1
DA:92,1
DA:93,1
DA:96,1
DA:97,1
DA:98,1
DA:101,1
DA:102,1
DA:103,1
DA:104,1
DA:105,1
DA:106,1
DA:107,1
DA:108,1
DA:109,1
DA:110,1
DA:111,1
DA:112,1
DA:113,1
DA:114,1
DA:115,1
DA:116,1
DA:117,1
DA:118,1
DA:119,1
DA:120,1
DA:121,1
DA:123,1
DA:124,1
DA:126,1
DA:127,1
DA:129,1
DA:130,1
DA:131,1
DA:132,1
DA:133,1
DA:134,1
DA:135,1
DA:136,1
DA:137,1
DA:138,1
DA:140,1
DA:141,1
DA:142,1
DA:143,1
DA:145,1
DA:146,1
DA:147,1
DA:150,1
DA:151,1
DA:152,1
DA:153,1
DA:156,1
DA:157,1
DA:158,1
DA:159,1
BRF:0
BRH:0
LF:74
LH:74
end_of_record
SF:/home/runner/work/actual-cli/actual-cli/src/api/types.rs
FN:230,_RNvNtNtNtCskLWVUVQqCaf_10actual_cli3api5types5testss_28test_serialize_match_request
FN:341,_RNvNtNtNtCskLWVUVQqCaf_10actual_cli3api5types5testss_29test_round_trip_match_request
FN:293,_RNvNtNtNtCskLWVUVQqCaf_10actual_cli3api5types5testss_31test_deserialize_error_response
FN:447,_RNvNtNtNtCskLWVUVQqCaf_10actual_cli3api5types5testss_32test_deserialize_health_response
FN:485,_RNvNtNtNtCskLWVUVQqCaf_10actual_cli3api5types5testss_32test_error_response_with_details
FN:456,_RNvNtNtNtCskLWVUVQqCaf_10actual_cli3api5types5testss_34test_deserialize_telemetry_request
FN:366,_RNvNtNtNtCskLWVUVQqCaf_10actual_cli3api5types5testss_35test_deserialize_languages_response
FN:415,_RNvNtNtNtCskLWVUVQqCaf_10actual_cli3api5types5testss_36test_deserialize_categories_response
FN:391,_RNvNtNtNtCskLWVUVQqCaf_10actual_cli3api5types5testss_36test_deserialize_frameworks_response
FN:155,_RNvNtNtNtCskLWVUVQqCaf_10actual_cli3api5types5testss_36test_deserialize_full_match_response
FN:282,_RNvNtNtNtCskLWVUVQqCaf_10actual_cli3api5types5testss_47test_serialize_match_request_omits_none_options
FN:303,_RNvNtNtNtCskLWVUVQqCaf_10actual_cli3api5types5testss_53test_deserialize_response_with_optional_fields_absent
FNDA:1,_RNvNtNtNtCskLWVUVQqCaf_10actual_cli3api5types5testss_28test_serialize_match_request
FNDA:1,_RNvNtNtNtCskLWVUVQqCaf_10actual_cli3api5types5testss_29test_round_trip_match_request
FNDA:1,_RNvNtNtNtCskLWVUVQqCaf_10actual_cli3api5types5testss_31test_deserialize_error_response
FNDA:1,_RNvNtNtNtCskLWVUVQqCaf_10actual_cli3api5types5testss_32test_deserialize_health_response
FNDA:1,_RNvNtNtNtCskLWVUVQqCaf_10actual_cli3api5types5testss_32test_error_response_with_details
FNDA:1,_RNvNtNtNtCskLWVUVQqCaf_10actual_cli3api5types5testss_34test_deserialize_telemetry_request
FNDA:1,_RNvNtNtNtCskLWVUVQqCaf_10actual_cli3api5types5testss_35test_deserialize_languages_response
FNDA:1,_RNvNtNtNtCskLWVUVQqCaf_10actual_cli3api5types5testss_36test_deserialize_categories_response
FNDA:1,_RNvNtNtNtCskLWVUVQqCaf_10actual_cli3api5types5testss_36test_deserialize_frameworks_response
FNDA:1,_RNvNtNtNtCskLWVUVQqCaf_10actual_cli3api5types5testss_36test_deserialize_full_match_response
FNDA:1,_RNvNtNtNtCskLWVUVQqCaf_10actual_cli3api5types5testss_47test_serialize_match_request_omits_none_options
FNDA:1,_RNvNtNtNtCskLWVUVQqCaf_10actual_cli3api5types5testss_53test_deserialize_response_with_optional_fields_absent
FNF:12
FNH:12
DA:155,1
DA:156,1
DA:157,1
DA:158,1
DA:159,1
DA:160,1
DA:161,1
DA:162,1
DA:163,1
DA:164,1
DA:165,1
DA:166,1
DA:167,1
DA:168,1
DA:169,1
DA:170,1
DA:171,1
DA:172,1
DA:173,1
DA:174,1
DA:175,1
DA:176,1
DA:177,1
DA:178,1
DA:179,1
DA:180,1
DA:181,1
DA:182,1
DA:183,1
DA:184,1
DA:185,1
DA:186,1
DA:187,1
DA:188,1
DA:189,1
DA:190,1
DA:191,1
DA:192,1
DA:193,1
DA:194,1
DA:196,1
DA:198,1
DA:200,1
DA:201,1
DA:202,1
DA:203,1
DA:204,1
DA:205,1
DA:206,1
DA:207,1
DA:208,1
DA:209,1
DA:210,1
DA:211,1
DA:212,1
DA:213,1
DA:214,1
DA:215,1
DA:216,1
DA:217,1
DA:219,1
DA:220,1
DA:221,1
DA:222,1
DA:223,1
DA:224,1
DA:225,1
DA:226,1
DA:227,1
DA:230,1
DA:231,1
DA:232,1
DA:233,1
DA:234,1
DA:235,1
DA:236,1
DA:237,1
DA:238,1
DA:239,1
DA:240,1
DA:241,1
DA:242,1
DA:243,1
DA:244,1
DA:245,1
DA:246,1
DA:247,1
DA:248,1
DA:249,1
DA:250,1
DA:251,1
DA:252,1
DA:253,1
DA:255,1
DA:258,1
DA:259,1
DA:260,1
DA:261,1
DA:263,1
DA:264,1
DA:265,1
DA:266,1
DA:268,1
DA:269,1
DA:270,1
DA:271,1
DA:272,1
DA:273,1
DA:276,1
DA:277,1
DA:278,1
DA:279,1
DA:282,1
DA:283,1
DA:284,1
DA:285,1
DA:286,1
DA:288,1
DA:289,1
DA:290,1
DA:293,1
DA:294,1
DA:296,1
DA:297,1
DA:298,1
DA:299,1
DA:300,1
DA:303,1
DA:304,1
DA:305,1
DA:306,1
DA:307,1
DA:308,1
DA:309,1
DA:310,1
DA:311,1
DA:312,1
DA:313,1
DA:314,1
DA:315,1
DA:316,1
DA:317,1
DA:318,1
DA:319,1
DA:320,1
DA:321,1
DA:322,1
DA:323,1
DA:324,1
DA:325,1
DA:326,1
DA:327,1
DA:328,1
DA:329,1
DA:331,1
DA:332,1
DA:333,1
DA:334,1
DA:335,1
DA:336,1
DA:337,1
DA:338,1
DA:341,1
DA:342,1
DA:343,1
DA:344,1
DA:345,1
DA:346,1
DA:347,1
DA:348,1
DA:349,1
DA:350,1
DA:351,1
DA:352,1
DA:353,1
DA:354,1
DA:355,1
DA:356,1
DA:357,1
DA:358,1
DA:360,1
DA:361,1
DA:362,1
DA:363,1
DA:366,1
DA:367,1
DA:368,1
DA:369,1
DA:370,1
DA:371,1
DA:372,1
DA:373,1
DA:374,1
DA:375,1
DA:376,1
DA:377,1
DA:378,1
DA:379,1
DA:380,1
DA:382,1
DA:383,1
DA:384,1
DA:385,1
DA:386,1
DA:387,1
DA:388,1
DA:391,1
DA:392,1
DA:393,1
DA:394,1
DA:395,1
DA:396,1
DA:397,1
DA:398,1
DA:399,1
DA:400,1
DA:401,1
DA:403,1
DA:404,1
DA:405,1
DA:406,1
DA:407,1
DA:408,1
DA:409,1
DA:410,1
DA:412,1
DA:415,1
DA:416,1
DA:417,1
DA:418,1
DA:419,1
DA:420,1
DA:421,1
DA:422,1
DA:423,1
DA:424,1
DA:425,1
DA:426,1
DA:427,1
DA:428,1
DA:429,1
DA:430,1
DA:431,1
DA:432,1
DA:433,1
DA:434,1
DA:436,1
DA:437,1
DA:438,1
DA:439,1
DA:440,1
DA:441,1
DA:442,1
DA:443,1
DA:444,1
DA:447,1
DA:448,1
DA:450,1
DA:451,1
DA:452,1
DA:453,1
DA:456,1
DA:457,1
DA:458,1
DA:459,1
DA:460,1
DA:461,1
DA:462,1
DA:463,1
DA:464,1
DA:465,1
DA:466,1
DA:467,1
DA:468,1
DA:470,1
DA:471,1
DA:472,1
DA:473,1
DA:474,1
DA:475,1
DA:476,1
DA:478,1
DA:479,1
DA:480,1
DA:482,1
DA:485,1
DA:486,1
DA:487,1
DA:488,1
DA:489,1
DA:490,1
DA:491,1
DA:492,1
DA:494,1
DA:495,1
DA:496,1
DA:497,1
DA:498,1
DA:499,1
DA:500,1
BRF:0
BRH:0
LF:300
LH:300
end_of_record
SF:/home/runner/work/actual-cli/actual-cli/src/claude/binary.rs
FN:20,_RNvNtNtCs7FzDW6vJnUF_10actual_cli6claude6binary18find_claude_binary
FN:20,_RNvNtNtCskLWVUVQqCaf_10actual_cli6claude6binary18find_claude_binary
FN:74,_RNvNtNtNtCskLWVUVQqCaf_10actual_cli6claude6binary5testss_34test_not_found_when_binary_missing
FN:50,_RNvNtNtNtCskLWVUVQqCaf_10actual_cli6claude6binary5testss_37test_env_var_override_with_valid_path
FN:64,_RNvNtNtNtCskLWVUVQqCaf_10actual_cli6claude6binary5testss_43test_env_var_override_with_nonexistent_path
FN:40,_RNvNtNtNtCskLWVUVQqCaf_10actual_cli6claude6binary5testss_48test_error_message_contains_install_instructions
FNDA:0,_RNvNtNtCs7FzDW6vJnUF_10actual_cli6claude6binary18find_claude_binary
FNDA:3,_RNvNtNtCskLWVUVQqCaf_10actual_cli6claude6binary18find_claude_binary
FNDA:1,_RNvNtNtNtCskLWVUVQqCaf_10actual_cli6claude6binary5testss_34test_not_found_when_binary_missing
FNDA:1,_RNvNtNtNtCskLWVUVQqCaf_10actual_cli6claude6binary5testss_37test_env_var_override_with_valid_path
FNDA:1,_RNvNtNtNtCskLWVUVQqCaf_10actual_cli6claude6binary5testss_43test_env_var_override_with_nonexistent_path
FNDA:1,_RNvNtNtNtCskLWVUVQqCaf_10actual_cli6claude6binary5testss_48test_error_message_contains_install_instructions
FNF:5
FNH:5
DA:20,3
DA:22,3
DA:23,2
DA:24,2
DA:25,1
DA:26,1
DA:27,1
DA:28,1
DA:31,1
DA:32,3
DA:40,1
DA:41,1
DA:42,1
DA:43,1
DA:44,1
DA:47,1
DA:50,1
DA:51,1
DA:52,1
DA:53,1
DA:55,1
DA:56,1
DA:57,1
DA:59,1
DA:60,1
DA:61,1
DA:64,1
DA:65,1
DA:66,1
DA:67,1
DA:69,1
DA:70,1
DA:71,1
DA:74,1
DA:75,1
DA:76,1
DA:77,1
DA:78,1
DA:79,1
DA:81,1
DA:82,1
DA:83,1
BRF:0
BRH:0
LF:42
LH:42
end_of_record
SF:/home/runner/work/actual-cli/actual-cli/src/claude/prompts.rs
FN:3,_RNvNtNtCs7FzDW6vJnUF_10actual_cli6claude7prompts15analysis_prompt
FN:27,_RNvNtNtCs7FzDW6vJnUF_10actual_cli6claude7prompts16tailoring_prompt
FN:3,_RNvNtNtCskLWVUVQqCaf_10actual_cli6claude7prompts15analysis_prompt
FN:27,_RNvNtNtCskLWVUVQqCaf_10actual_cli6claude7prompts16tailoring_prompt
FN:98,_RNvNtNtNtCskLWVUVQqCaf_10actual_cli6claude7prompts5testss_36analysis_prompt_contains_json_schema
FN:89,_RNvNtNtNtCskLWVUVQqCaf_10actual_cli6claude7prompts5testss_40analysis_prompt_contains_workspace_files
FN:129,_RNvNtNtNtCskLWVUVQqCaf_10actual_cli6claude7prompts5testss_41tailoring_prompt_contains_tailor_each_adr
FN:107,_RNvNtNtNtCskLWVUVQqCaf_10actual_cli6claude7prompts5testss_42tailoring_prompt_interpolates_all_sections
FN:138,_RNvNtNtNtCskLWVUVQqCaf_10actual_cli6claude7prompts5testss_43tailoring_prompt_contains_skip_inapplicable
FN:80,_RNvNtNtNtCskLWVUVQqCaf_10actual_cli6claude7prompts5testss_44analysis_prompt_contains_monorepo_indicators
FN:147,_RNvNtNtNtCskLWVUVQqCaf_10actual_cli6claude7prompts5testss_44tailoring_prompt_contains_decide_file_layout
FN:156,_RNvNtNtNtCskLWVUVQqCaf_10actual_cli6claude7prompts5testss_44tailoring_prompt_contains_format_as_markdown
FN:165,_RNvNtNtNtCskLWVUVQqCaf_10actual_cli6claude7prompts5testss_47tailoring_prompt_does_not_panic_on_empty_inputs
FNDA:0,_RNvNtNtCs7FzDW6vJnUF_10actual_cli6claude7prompts15analysis_prompt
FNDA:0,_RNvNtNtCs7FzDW6vJnUF_10actual_cli6claude7prompts16tailoring_prompt
FNDA:3,_RNvNtNtCskLWVUVQqCaf_10actual_cli6claude7prompts15analysis_prompt
FNDA:6,_RNvNtNtCskLWVUVQqCaf_10actual_cli6claude7prompts16tailoring_prompt
FNDA:1,_RNvNtNtNtCskLWVUVQqCaf_10actual_cli6claude7prompts5testss_36analysis_prompt_contains_json_schema
FNDA:1,_RNvNtNtNtCskLWVUVQqCaf_10actual_cli6claude7prompts5testss_40analysis_prompt_contains_workspace_files
FNDA:1,_RNvNtNtNtCskLWVUVQqCaf_10actual_cli6claude7prompts5testss_41tailoring_prompt_contains_tailor_each_adr
FNDA:1,_RNvNtNtNtCskLWVUVQqCaf_10actual_cli6claude7prompts5testss_42tailoring_prompt_interpolates_all_sections
FNDA:1,_RNvNtNtNtCskLWVUVQqCaf_10actual_cli6claude7prompts5testss_43tailoring_prompt_contains_skip_inapplicable
FNDA:1,_RNvNtNtNtCskLWVUVQqCaf_10actual_cli6claude7prompts5testss_44analysis_prompt_contains_monorepo_indicators
FNDA:1,_RNvNtNtNtCskLWVUVQqCaf_10actual_cli6claude7prompts5testss_44tailoring_prompt_contains_decide_file_layout
FNDA:1,_RNvNtNtNtCskLWVUVQqCaf_10actual_cli6claude7prompts5testss_44tailoring_prompt_contains_format_as_markdown
FNDA:1,_RNvNtNtNtCskLWVUVQqCaf_10actual_cli6claude7prompts5testss_47tailoring_prompt_does_not_panic_on_empty_inputs
FNF:11
FNH:11
DA:3,3
DA:4,3
DA:5,3
DA:6,3
DA:7,3
DA:8,3
DA:9,3
DA:10,3
DA:11,3
DA:12,3
DA:13,3
DA:14,3
DA:15,3
DA:16,3
DA:17,3
DA:18,3
DA:19,3
DA:20,3
DA:21,3
DA:22,3
DA:23,3
DA:27,6
DA:28,6
DA:29,6
DA:30,6
DA:31,6
DA:32,6
DA:73,6
DA:80,1
DA:81,1
DA:82,1
DA:83,1
DA:86,1
DA:89,1
DA:90,1
DA:91,1
DA:92,1
DA:95,1
DA:98,1
DA:99,1
DA:100,1
DA:101,1
DA:104,1
DA:107,1
DA:108,1
DA:109,1
DA:110,1
DA:112,1
DA:114,1
DA:115,1
DA:118,1
DA:119,1
DA:122,1
DA:123,1
DA:126,1
DA:129,1
DA:130,1
DA:131,1
DA:132,1
DA:135,1
DA:138,1
DA:139,1
DA:140,1
DA:141,1
DA:144,1
DA:147,1
DA:148,1
DA:149,1
DA:150,1
DA:153,1
DA:156,1
DA:157,1
DA:158,1
DA:159,1
DA:162,1
DA:165,1
DA:166,1
DA:167,1
DA:168,1
DA:171,1
BRF:0
BRH:0
LF:80
LH:80
end_of_record
SF:/home/runner/work/actual-cli/actual-cli/src/claude/schemas.rs
FN:151,_RNCNvNtNtNtCskLWVUVQqCaf_10actual_cli6claude7schemas5testss_40repo_analysis_schema_has_required_fields0B9_
FN:168,_RNCNvNtNtNtCskLWVUVQqCaf_10actual_cli6claude7schemas5testss_43tailoring_output_schema_has_required_fields0B9_
FN:132,_RNvNtNtNtCskLWVUVQqCaf_10actual_cli6claude7schemas5testss_34repo_analysis_schema_is_valid_json
FN:139,_RNvNtNtNtCskLWVUVQqCaf_10actual_cli6claude7schemas5testss_37tailoring_output_schema_is_valid_json
FN:146,_RNvNtNtNtCskLWVUVQqCaf_10actual_cli6claude7schemas5testss_40repo_analysis_schema_has_required_fields
FN:163,_RNvNtNtNtCskLWVUVQqCaf_10actual_cli6claude7schemas5testss_43tailoring_output_schema_has_required_fields
FNDA:2,_RNCNvNtNtNtCskLWVUVQqCaf_10actual_cli6claude7schemas5testss_40repo_analysis_schema_has_required_fields0B9_
FNDA:3,_RNCNvNtNtNtCskLWVUVQqCaf_10actual_cli6claude7schemas5testss_43tailoring_output_schema_has_required_fields0B9_
FNDA:1,_RNvNtNtNtCskLWVUVQqCaf_10actual_cli6claude7schemas5testss_34repo_analysis_schema_is_valid_json
FNDA:1,_RNvNtNtNtCskLWVUVQqCaf_10actual_cli6claude7schemas5testss_37tailoring_output_schema_is_valid_json
FNDA:1,_RNvNtNtNtCskLWVUVQqCaf_10actual_cli6claude7schemas5testss_40repo_analysis_schema_has_required_fields
FNDA:1,_RNvNtNtNtCskLWVUVQqCaf_10actual_cli6claude7schemas5testss_43tailoring_output_schema_has_required_fields
FNF:6
FNH:6
DA:132,1
DA:133,1
DA:134,1
DA:135,1
DA:136,1
DA:139,1
DA:140,1
DA:141,1
DA:142,1
DA:143,1
DA:146,1
DA:147,1
DA:148,1
DA:149,1
DA:150,1
DA:151,2
DA:152,1
DA:153,1
DA:156,1
DA:157,1
DA:160,1
DA:163,1
DA:164,1
DA:165,1
DA:166,1
DA:167,1
DA:168,3
DA:169,1
DA:170,1
DA:173,1
DA:174,1
DA:177,1
DA:178,1
DA:181,1
BRF:0
BRH:0
LF:36
LH:36
end_of_record
SF:/home/runner/work/actual-cli/actual-cli/src/cli/commands/auth.rs
FN:1,_RNvNtNtNtCs7FzDW6vJnUF_10actual_cli3cli8commands4auth4exec
FN:1,_RNvNtNtNtCskLWVUVQqCaf_10actual_cli3cli8commands4auth4exec
FNDA:2,_RNvNtNtNtCs7FzDW6vJnUF_10actual_cli3cli8commands4auth4exec
FNDA:0,_RNvNtNtNtCskLWVUVQqCaf_10actual_cli3cli8commands4auth4exec
FNF:1
FNH:1
DA:1,2
DA:2,2
DA:3,2
DA:4,2
BRF:0
BRH:0
LF:4
LH:4
end_of_record
SF:/home/runner/work/actual-cli/actual-cli/src/cli/commands/config.rs
FN:3,_RNvNtNtNtCs7FzDW6vJnUF_10actual_cli3cli8commands6config4exec
FN:3,_RNvNtNtNtCskLWVUVQqCaf_10actual_cli3cli8commands6config4exec
FNDA:6,_RNvNtNtNtCs7FzDW6vJnUF_10actual_cli3cli8commands6config4exec
FNDA:0,_RNvNtNtNtCskLWVUVQqCaf_10actual_cli3cli8commands6config4exec
FNF:1
FNH:1
DA:3,6
DA:4,6
DA:6,2
DA:7,2
DA:10,2
DA:11,2
DA:14,2
DA:15,2
DA:18,6
BRF:0
BRH:0
LF:9
LH:9
end_of_record
SF:/home/runner/work/actual-cli/actual-cli/src/cli/commands/status.rs
FN:3,_RNvNtNtNtCs7FzDW6vJnUF_10actual_cli3cli8commands6status4exec
FN:3,_RNvNtNtNtCskLWVUVQqCaf_10actual_cli3cli8commands6status4exec
FNDA:2,_RNvNtNtNtCs7FzDW6vJnUF_10actual_cli3cli8commands6status4exec
FNDA:0,_RNvNtNtNtCskLWVUVQqCaf_10actual_cli3cli8commands6status4exec
FNF:1
FNH:1
DA:3,2
DA:4,2
DA:5,2
DA:6,2
BRF:0
BRH:0
LF:4
LH:4
end_of_record
SF:/home/runner/work/actual-cli/actual-cli/src/cli/commands/sync.rs
FN:3,_RNvNtNtNtCs7FzDW6vJnUF_10actual_cli3cli8commands4sync4exec
FN:3,_RNvNtNtNtCskLWVUVQqCaf_10actual_cli3cli8commands4sync4exec
FNDA:3,_RNvNtNtNtCs7FzDW6vJnUF_10actual_cli3cli8commands4sync4exec
FNDA:0,_RNvNtNtNtCskLWVUVQqCaf_10actual_cli3cli8commands4sync4exec
FNF:1
FNH:1
DA:3,3
DA:4,3
DA:5,3
DA:6,3
BRF:0
BRH:0
LF:4
LH:4
end_of_record
SF:/home/runner/work/actual-cli/actual-cli/src/config/types.rs
FN:86,_RNvNtNtNtCskLWVUVQqCaf_10actual_cli6config5types5testss_27test_round_trip_with_values
FN:131,_RNvNtNtNtCskLWVUVQqCaf_10actual_cli6config5types5testss_36test_round_trip_with_cached_analysis
FN:124,_RNvNtNtNtCskLWVUVQqCaf_10actual_cli6config5types5testss_39test_empty_yaml_deserializes_to_default
FN:116,_RNvNtNtNtCskLWVUVQqCaf_10actual_cli6config5types5testss_44test_default_config_serializes_to_valid_yaml
FN:149,_RNvNtNtNtCskLWVUVQqCaf_10actual_cli6config5types5testss_44test_partial_yaml_deserializes_with_defaults
FNDA:1,_RNvNtNtNtCskLWVUVQqCaf_10actual_cli6config5types5testss_27test_round_trip_with_values
FNDA:1,_RNvNtNtNtCskLWVUVQqCaf_10actual_cli6config5types5testss_36test_round_trip_with_cached_analysis
FNDA:1,_RNvNtNtNtCskLWVUVQqCaf_10actual_cli6config5types5testss_39test_empty_yaml_deserializes_to_default
FNDA:1,_RNvNtNtNtCskLWVUVQqCaf_10actual_cli6config5types5testss_44test_default_config_serializes_to_valid_yaml
FNDA:1,_RNvNtNtNtCskLWVUVQqCaf_10actual_cli6config5types5testss_44test_partial_yaml_deserializes_with_defaults
FNF:5
FNH:5
DA:86,1
DA:87,1
DA:88,1
DA:89,1
DA:90,1
DA:93,1
DA:94,1
DA:95,1
DA:96,1
DA:97,1
DA:98,1
DA:99,1
DA:100,1
DA:101,1
DA:102,1
DA:103,1
DA:104,1
DA:105,1
DA:106,1
DA:107,1
DA:109,1
DA:110,1
DA:111,1
DA:112,1
DA:116,1
DA:117,1
DA:118,1
DA:119,1
DA:120,1
DA:124,1
DA:125,1
DA:126,1
DA:127,1
DA:131,1
DA:132,1
DA:133,1
DA:134,1
DA:135,1
DA:136,1
DA:137,1
DA:138,1
DA:139,1
DA:140,1
DA:142,1
DA:143,1
DA:144,1
DA:145,1
DA:149,1
DA:150,1
DA:151,1
DA:152,1
DA:153,1
DA:154,1
DA:155,1
DA:156,1
DA:157,1
BRF:0
BRH:0
LF:56
LH:56
end_of_record
SF:/home/runner/work/actual-cli/actual-cli/src/error.rs
FN:34,_RNvMNtCs7FzDW6vJnUF_10actual_cli5errorNtB2_11ActualError9exit_code
FN:34,_RNvMNtCskLWVUVQqCaf_10actual_cli5errorNtB2_11ActualError9exit_code
FN:50,_RNvNtNtCskLWVUVQqCaf_10actual_cli5error5testss_15test_exit_codes
FN:88,_RNvNtNtCskLWVUVQqCaf_10actual_cli5error5testss_21test_display_messages
FNDA:0,_RNvMNtCs7FzDW6vJnUF_10actual_cli5errorNtB2_11ActualError9exit_code
FNDA:9,_RNvMNtCskLWVUVQqCaf_10actual_cli5errorNtB2_11ActualError9exit_code
FNDA:1,_RNvNtNtCskLWVUVQqCaf_10actual_cli5error5testss_15test_exit_codes
FNDA:1,_RNvNtNtCskLWVUVQqCaf_10actual_cli5error5testss_21test_display_messages
FNF:3
FNH:3
DA:34,9
DA:35,9
DA:36,1
DA:37,2
DA:38,2
DA:39,1
DA:40,3
DA:42,9
DA:50,1
DA:51,1
DA:52,1
DA:53,1
DA:54,1
DA:55,1
DA:56,1
DA:57,1
DA:58,1
DA:61,1
DA:62,1
DA:63,1
DA:66,1
DA:67,1
DA:68,1
DA:69,1
DA:70,1
DA:71,1
DA:72,1
DA:75,1
DA:76,1
DA:77,1
DA:80,1
DA:81,1
DA:84,1
DA:85,1
DA:88,1
DA:89,1
DA:90,1
DA:91,1
DA:94,1
DA:95,1
DA:99,1
DA:100,1
DA:101,1
DA:105,1
DA:106,1
DA:107,1
DA:108,1
DA:109,1
DA:110,1
DA:112,1
DA:113,1
DA:115,1
DA:116,1
DA:117,1
DA:118,1
DA:119,1
DA:120,1
DA:121,1
DA:122,1
DA:126,1
DA:127,1
DA:129,1
DA:130,1
DA:131,1
BRF:0
BRH:0
LF:64
LH:64
end_of_record
SF:/home/runner/work/actual-cli/actual-cli/src/generation/markers.rs
FN:5,_RNvNtNtCs7FzDW6vJnUF_10actual_cli10generation7markers15wrap_in_markers
FN:13,_RNvNtNtCs7FzDW6vJnUF_10actual_cli10generation7markers19has_managed_section
FN:22,_RNvNtNtCs7FzDW6vJnUF_10actual_cli10generation7markers23extract_managed_content
FN:85,_RNCNvNtNtNtCskLWVUVQqCaf_10actual_cli10generation7markers5testss_39test_wrap_in_markers_contains_timestamp0B9_
FN:5,_RNvNtNtCskLWVUVQqCaf_10actual_cli10generation7markers15wrap_in_markers
FN:13,_RNvNtNtCskLWVUVQqCaf_10actual_cli10generation7markers19has_managed_section
FN:22,_RNvNtNtCskLWVUVQqCaf_10actual_cli10generation7markers23extract_managed_content
FN:115,_RNvNtNtNtCskLWVUVQqCaf_10actual_cli10generation7markers5testss_29test_has_managed_section_true
FN:257,_RNvNtNtNtCskLWVUVQqCaf_10actual_cli10generation7markers5testss_31test_timestamp_is_valid_iso8601
FN:203,_RNvNtNtNtCskLWVUVQqCaf_10actual_cli10generation7markers5testss_32test_roundtrip_wrap_then_extract
FN:89,_RNvNtNtNtCskLWVUVQqCaf_10actual_cli10generation7markers5testss_37test_wrap_in_markers_contains_content
FN:102,_RNvNtNtNtCskLWVUVQqCaf_10actual_cli10generation7markers5testss_37test_wrap_in_markers_start_before_end
FN:141,_RNvNtNtNtCskLWVUVQqCaf_10actual_cli10generation7markers5testss_39test_has_managed_section_false_only_end
FN:72,_RNvNtNtNtCskLWVUVQqCaf_10actual_cli10generation7markers5testss_39test_wrap_in_markers_contains_timestamp
FN:52,_RNvNtNtNtCskLWVUVQqCaf_10actual_cli10generation7markers5testss_40test_wrap_in_markers_contains_end_marker
FN:124,_RNvNtNtNtCskLWVUVQqCaf_10actual_cli10generation7markers5testss_41test_has_managed_section_false_no_markers
FN:132,_RNvNtNtNtCskLWVUVQqCaf_10actual_cli10generation7markers5testss_41test_has_managed_section_false_only_start
FN:42,_RNvNtNtNtCskLWVUVQqCaf_10actual_cli10generation7markers5testss_42test_wrap_in_markers_contains_start_marker
FN:150,_RNvNtNtNtCskLWVUVQqCaf_10actual_cli10generation7markers5testss_44test_extract_managed_content_returns_content
FN:62,_RNvNtNtNtCskLWVUVQqCaf_10actual_cli10generation7markers5testss_45test_wrap_in_markers_contains_version_comment
FN:248,_RNvNtNtNtCskLWVUVQqCaf_10actual_cli10generation7markers5testss_47test_has_managed_section_false_reversed_markers
FN:215,_RNvNtNtNtCskLWVUVQqCaf_10actual_cli10generation7markers5testss_50test_extract_managed_content_returns_none_only_end
FN:171,_RNvNtNtNtCskLWVUVQqCaf_10actual_cli10generation7markers5testss_52test_extract_managed_content_returns_none_only_start
FN:236,_RNvNtNtNtCskLWVUVQqCaf_10actual_cli10generation7markers5testss_55test_extract_managed_content_no_newlines_around_content
FN:162,_RNvNtNtNtCskLWVUVQqCaf_10actual_cli10generation7markers5testss_57test_extract_managed_content_returns_none_without_markers
FN:181,_RNvNtNtNtCskLWVUVQqCaf_10actual_cli10generation7markers5testss_58test_extract_managed_content_preserves_surrounding_content
FN:225,_RNvNtNtNtCskLWVUVQqCaf_10actual_cli10generation7markers5testss_58test_extract_managed_content_returns_none_reversed_markers
FNDA:0,_RNvNtNtCs7FzDW6vJnUF_10actual_cli10generation7markers15wrap_in_markers
FNDA:0,_RNvNtNtCs7FzDW6vJnUF_10actual_cli10generation7markers19has_managed_section
FNDA:0,_RNvNtNtCs7FzDW6vJnUF_10actual_cli10generation7markers23extract_managed_content
FNDA:0,_RNCNvNtNtNtCskLWVUVQqCaf_10actual_cli10generation7markers5testss_39test_wrap_in_markers_contains_timestamp0B9_
FNDA:11,_RNvNtNtCskLWVUVQqCaf_10actual_cli10generation7markers15wrap_in_markers
FNDA:5,_RNvNtNtCskLWVUVQqCaf_10actual_cli10generation7markers19has_managed_section
FNDA:8,_RNvNtNtCskLWVUVQqCaf_10actual_cli10generation7markers23extract_managed_content
FNDA:1,_RNvNtNtNtCskLWVUVQqCaf_10actual_cli10generation7markers5testss_29test_has_managed_section_true
FNDA:1,_RNvNtNtNtCskLWVUVQqCaf_10actual_cli10generation7markers5testss_31test_timestamp_is_valid_iso8601
FNDA:1,_RNvNtNtNtCskLWVUVQqCaf_10actual_cli10generation7markers5testss_32test_roundtrip_wrap_then_extract
FNDA:1,_RNvNtNtNtCskLWVUVQqCaf_10actual_cli10generation7markers5testss_37test_wrap_in_markers_contains_content
FNDA:1,_RNvNtNtNtCskLWVUVQqCaf_10actual_cli10generation7markers5testss_37test_wrap_in_markers_start_before_end
FNDA:1,_RNvNtNtNtCskLWVUVQqCaf_10actual_cli10generation7markers5testss_39test_has_managed_section_false_only_end
FNDA:1,_RNvNtNtNtCskLWVUVQqCaf_10actual_cli10generation7markers5testss_39test_wrap_in_markers_contains_timestamp
FNDA:1,_RNvNtNtNtCskLWVUVQqCaf_10actual_cli10generation7markers5testss_40test_wrap_in_markers_contains_end_marker
FNDA:1,_RNvNtNtNtCskLWVUVQqCaf_10actual_cli10generation7markers5testss_41test_has_managed_section_false_no_markers
FNDA:1,_RNvNtNtNtCskLWVUVQqCaf_10actual_cli10generation7markers5testss_41test_has_managed_section_false_only_start
FNDA:1,_RNvNtNtNtCskLWVUVQqCaf_10actual_cli10generation7markers5testss_42test_wrap_in_markers_contains_start_marker
FNDA:1,_RNvNtNtNtCskLWVUVQqCaf_10actual_cli10generation7markers5testss_44test_extract_managed_content_returns_content
FNDA:1,_RNvNtNtNtCskLWVUVQqCaf_10actual_cli10generation7markers5testss_45test_wrap_in_markers_contains_version_comment
FNDA:1,_RNvNtNtNtCskLWVUVQqCaf_10actual_cli10generation7markers5testss_47test_has_managed_section_false_reversed_markers
FNDA:1,_RNvNtNtNtCskLWVUVQqCaf_10actual_cli10generation7markers5testss_50test_extract_managed_content_returns_none_only_end
FNDA:1,_RNvNtNtNtCskLWVUVQqCaf_10actual_cli10generation7markers5testss_52test_extract_managed_content_returns_none_only_start
FNDA:1,_RNvNtNtNtCskLWVUVQqCaf_10actual_cli10generation7markers5testss_55test_extract_managed_content_no_newlines_around_content
FNDA:1,_RNvNtNtNtCskLWVUVQqCaf_10actual_cli10generation7markers5testss_57test_extract_managed_content_returns_none_without_markers
FNDA:1,_RNvNtNtNtCskLWVUVQqCaf_10actual_cli10generation7markers5testss_58test_extract_managed_content_preserves_surrounding_content
FNDA:1,_RNvNtNtNtCskLWVUVQqCaf_10actual_cli10generation7markers5testss_58test_extract_managed_content_returns_none_reversed_markers
FNF:24
FNH:23
DA:5,11
DA:6,11
DA:7,11
DA:10,11
DA:13,5
DA:14,5
DA:15,2
DA:17,3
DA:19,5
DA:22,8
DA:23,8
DA:24,6
DA:25,5
DA:26,1
DA:27,4
DA:28,4
DA:29,4
DA:31,4
DA:33,4
DA:34,4
DA:35,8
DA:42,1
DA:43,1
DA:44,1
DA:45,1
DA:49,1
DA:52,1
DA:53,1
DA:54,1
DA:55,1
DA:59,1
DA:62,1
DA:63,1
DA:64,1
DA:65,1
DA:69,1
DA:72,1
DA:73,1
DA:74,1
DA:75,1
DA:80,1
DA:81,1
DA:82,1
DA:83,1
DA:84,1
DA:85,1
DA:86,1
DA:89,1
DA:90,1
DA:91,1
DA:92,1
DA:93,1
DA:94,1
DA:95,1
DA:99,1
DA:102,1
DA:103,1
DA:104,1
DA:105,1
DA:106,1
DA:107,1
DA:112,1
DA:115,1
DA:116,1
DA:117,1
DA:118,1
DA:121,1
DA:124,1
DA:125,1
DA:126,1
DA:129,1
DA:132,1
DA:133,1
DA:134,1
DA:135,1
DA:138,1
DA:141,1
DA:142,1
DA:143,1
DA:144,1
DA:147,1
DA:150,1
DA:151,1
DA:152,1
DA:153,1
DA:154,1
DA:155,1
DA:159,1
DA:162,1
DA:163,1
DA:164,1
DA:168,1
DA:171,1
DA:172,1
DA:173,1
DA:174,1
DA:178,1
DA:181,1
DA:182,1
DA:183,1
DA:184,1
DA:185,1
DA:186,1
DA:190,1
DA:191,1
DA:195,1
DA:196,1
DA:200,1
DA:203,1
DA:204,1
DA:205,1
DA:206,1
DA:207,1
DA:208,1
DA:212,1
DA:215,1
DA:216,1
DA:217,1
DA:218,1
DA:222,1
DA:225,1
DA:227,1
DA:228,1
DA:229,1
DA:233,1
DA:236,1
DA:238,1
DA:239,1
DA:240,1
DA:245,1
DA:248,1
DA:249,1
DA:250,1
DA:251,1
DA:254,1
DA:257,1
DA:258,1
DA:259,1
DA:260,1
DA:261,1
DA:262,1
DA:263,1
DA:264,1
DA:265,1
DA:268,0
DA:270,1
BRF:0
BRH:0
LF:147
LH:145
end_of_record
SF:/home/runner/work/actual-cli/actual-cli/src/lib.rs
FN:17,_RNvCs7FzDW6vJnUF_10actual_cli3run
FN:17,_RNvCskLWVUVQqCaf_10actual_cli3run
FNDA:13,_RNvCs7FzDW6vJnUF_10actual_cli3run
FNDA:0,_RNvCskLWVUVQqCaf_10actual_cli3run
FNF:1
FNH:1
DA:17,13
DA:18,13
DA:19,3
DA:20,2
DA:21,2
DA:22,6
DA:24,13
BRF:0
BRH:0
LF:7
LH:7
end_of_record
SF:/home/runner/work/actual-cli/actual-cli/src/tailoring/types.rs
FN:126,_RNvNtNtNtCskLWVUVQqCaf_10actual_cli9tailoring5types5testss_14test_roundtrip
FN:57,_RNvNtNtNtCskLWVUVQqCaf_10actual_cli9tailoring5types5testss_23test_deserialize_sample
FN:153,_RNvNtNtNtCskLWVUVQqCaf_10actual_cli9tailoring5types5testss_23test_subdirectory_paths
FNDA:1,_RNvNtNtNtCskLWVUVQqCaf_10actual_cli9tailoring5types5testss_14test_roundtrip
FNDA:1,_RNvNtNtNtCskLWVUVQqCaf_10actual_cli9tailoring5types5testss_23test_deserialize_sample
FNDA:1,_RNvNtNtNtCskLWVUVQqCaf_10actual_cli9tailoring5types5testss_23test_subdirectory_paths
FNF:3
FNH:3
DA:57,1
DA:58,1
DA:59,1
DA:60,1
DA:61,1
DA:62,1
DA:63,1
DA:64,1
DA:65,1
DA:66,1
DA:67,1
DA:68,1
DA:69,1
DA:70,1
DA:71,1
DA:72,1
DA:73,1
DA:74,1
DA:75,1
DA:76,1
DA:77,1
DA:78,1
DA:79,1
DA:80,1
DA:81,1
DA:82,1
DA:83,1
DA:84,1
DA:85,1
DA:87,1
DA:89,1
DA:90,1
DA:91,1
DA:92,1
DA:95,1
DA:96,1
DA:99,1
DA:101,1
DA:102,1
DA:103,1
DA:106,1
DA:107,1
DA:110,1
DA:112,1
DA:113,1
DA:114,1
DA:115,1
DA:119,1
DA:120,1
DA:121,1
DA:122,1
DA:123,1
DA:126,1
DA:127,1
DA:128,1
DA:129,1
DA:130,1
DA:131,1
DA:132,1
DA:133,1
DA:134,1
DA:135,1
DA:136,1
DA:137,1
DA:138,1
DA:139,1
DA:140,1
DA:141,1
DA:142,1
DA:143,1
DA:144,1
DA:146,1
DA:147,1
DA:149,1
DA:150,1
DA:153,1
DA:154,1
DA:155,1
DA:156,1
DA:157,1
DA:158,1
DA:159,1
DA:161,1
DA:162,1
DA:164,1
DA:165,1
DA:166,1
BRF:0
BRH:0
LF:87
LH:87
end_of_record